;
; File generated by cc65 v 2.19 - Git b75f872
;
	.fopt		compiler,"cc65 v 2.19 - Git b75f872"
	.setcpu		"6502"
	.smart		on
	.autoimport	on
	.case		on
	.debuginfo	off
	.importzp	sp, sreg, regsave, regbank
	.importzp	tmp1, tmp2, tmp3, tmp4, ptr1, ptr2, ptr3, ptr4
	.macpack	longbranch
	.forceimport	__STARTUP__
	.import		_pal_bg
	.import		_pal_spr
	.import		_ppu_wait_nmi
	.import		_ppu_off
	.import		_ppu_on_all
	.import		_oam_clear
	.import		_oam_meta_spr
	.import		_music_play
	.import		_sfx_play
	.import		_pad_poll
	.import		_bank_spr
	.import		_vram_adr
	.import		_vram_put
	.import		_vram_write
	.import		_memcpy
	.import		_check_collision
	.import		_set_scroll_y
	.export		_playerSprite
	.export		_playerShootUpSprite
	.export		_playerShootDownSprite
	.export		_playerShootLeftSprite
	.export		_playerShootRightSprite
	.export		_playerShootTopRightSprite
	.export		_playerShootBottomRightSprite
	.export		_playerShootBottomLeftSprite
	.export		_playerShootTopLeftSprite
	.export		_orangePortal
	.export		_bluePortal
	.export		_orangeBulletSprite
	.export		_blueBulletSprite
	.export		_boxSprite
	.export		_playerSpriteData
	.export		_orangePortalSpriteData
	.export		_bluePortalSpriteData
	.export		_orangeBulletSpriteData
	.export		_blueBulletSpriteData
	.export		_boxSpriteData
	.export		_paletteBackground
	.export		_paletteSprite
	.export		_levelPaletteBackground
	.export		_endingScreenPalette
	.export		_levelOneData
	.export		_levelTwoData
	.export		_levelThreeData
	.export		_levelFourData
	.export		_levelFiveData
	.export		_levelSixData
	.export		_levelOneCollision
	.export		_levelTwoCollision
	.export		_levelThreeCollision
	.export		_levelFourCollision
	.export		_levelFiveCollision
	.export		_levelSixCollision
	.export		_menu
	.export		_end
	.export		_pad1
	.export		_pad1Old
	.export		_mode
	.export		_aLatch
	.export		_currentLevel
	.export		_gameState
	.export		_song
	.export		_currentSong
	.export		_boxHeld
	.export		_doorOpen
	.export		_playerVelocity
	.export		_boxVelocity
	.export		_orangePortalCollision
	.export		_bluePortalCollision
	.export		_bluePortalActive
	.export		_orangePortalActive
	.export		_lastPortalUsed
	.export		_levelCollisionRAM
	.export		_orangePortalOrientation
	.export		_bluePortalOrientation
	.export		_orangeBulletActive
	.export		_blueBulletActive
	.export		_orangeBulletDirectionX
	.export		_orangeBulletDirectionY
	.export		_blueBulletDirectionX
	.export		_blueBulletDirectionY
	.export		_aimDirectionX
	.export		_aimDirectionY
	.export		_blankTiles
	.export		_pressStartTiles
	.export		_endScreenDrawn
	.export		_cakeTextTimer
	.export		_cakeIsALie
	.export		_prevCakeisALie
	.export		_boxEnabled
	.export		_boxStartX
	.export		_boxStartY
	.export		_buttonTileX
	.export		_buttonTileY
	.export		_buttonEnabled
	.export		_doorTileX
	.export		_doorTileY
	.export		_buttonTileIndexLeft
	.export		_buttonTileIndexRight
	.export		_buttonTileIndexLeftPressed
	.export		_buttonTileIndexRightPressed
	.export		_levelCollisionData
	.export		_levelCollision
	.export		_modeToggle
	.export		_walkMode
	.export		_shootMode
	.export		_portalPlayerCollision
	.export		_playerWallCollision
	.export		_spawnOrangeBullet
	.export		_spawnBlueBullet
	.export		_updateBullet
	.export		_drawBullet
	.export		_onGround
	.export		_applyGravity
	.export		_getPlayerSprite
	.export		_drawSprite
	.export		_loadLevel
	.export		_drawMainMenu
	.export		_animatePressStartText
	.export		_drawOrangePortalSprite
	.export		_drawBluePortalSprite
	.export		_getCollisionValue
	.export		_doorPlayerCollision
	.export		_disablePortals
	.export		_drawEndScreen
	.export		_writeEndText
	.export		_handleButtonLogic
	.export		_main

.segment	"DATA"

_playerSpriteData:
	.byte	$10
	.byte	$C8
	.byte	$0F
	.byte	$0E
_orangePortalSpriteData:
	.byte	$00
	.byte	$00
	.byte	$10
	.byte	$10
_bluePortalSpriteData:
	.byte	$00
	.byte	$00
	.byte	$12
	.byte	$10
_orangeBulletSpriteData:
	.byte	$00
	.byte	$00
	.byte	$07
	.byte	$07
_blueBulletSpriteData:
	.byte	$00
	.byte	$00
	.byte	$07
	.byte	$07
_boxSpriteData:
	.byte	$00
	.byte	$00
	.byte	$10
	.byte	$10
_blankTiles:
	.byte	$00
	.res	11,$00
_pressStartTiles:
	.byte	$50
	.byte	$52
	.byte	$45
	.byte	$53
	.byte	$53
	.byte	$00
	.byte	$53
	.byte	$54
	.byte	$41
	.byte	$52
	.byte	$54
	.byte	$21
_endScreenDrawn:
	.byte	$00
_cakeTextTimer:
	.byte	$00
_cakeIsALie:
	.byte	$00
_prevCakeisALie:
	.byte	$FF
_boxEnabled:
	.byte	$00
_boxStartX:
	.byte	$00
_boxStartY:
	.byte	$00
_buttonTileX:
	.byte	$00
_buttonTileY:
	.byte	$00
_buttonEnabled:
	.byte	$00
_doorTileX:
	.byte	$00
_doorTileY:
	.byte	$00
_buttonTileIndexLeft:
	.byte	$FC
_buttonTileIndexRight:
	.byte	$FD
_buttonTileIndexLeftPressed:
	.byte	$FE
_buttonTileIndexRightPressed:
	.byte	$FF
_levelCollision:
	.addr	_levelCollisionRAM

.segment	"RODATA"

_playerSprite:
	.byte	$00
	.byte	$00
	.byte	$20
	.byte	$00
	.byte	$00
	.byte	$08
	.byte	$30
	.byte	$00
	.byte	$08
	.byte	$00
	.byte	$21
	.byte	$00
	.byte	$08
	.byte	$08
	.byte	$31
	.byte	$00
	.byte	$80
_playerShootUpSprite:
	.byte	$00
	.byte	$00
	.byte	$02
	.byte	$00
	.byte	$00
	.byte	$08
	.byte	$12
	.byte	$00
	.byte	$08
	.byte	$00
	.byte	$03
	.byte	$00
	.byte	$08
	.byte	$08
	.byte	$13
	.byte	$00
	.byte	$80
_playerShootDownSprite:
	.byte	$00
	.byte	$00
	.byte	$06
	.byte	$00
	.byte	$00
	.byte	$08
	.byte	$16
	.byte	$00
	.byte	$08
	.byte	$00
	.byte	$07
	.byte	$00
	.byte	$08
	.byte	$08
	.byte	$17
	.byte	$00
	.byte	$80
_playerShootLeftSprite:
	.byte	$00
	.byte	$00
	.byte	$04
	.byte	$00
	.byte	$00
	.byte	$08
	.byte	$14
	.byte	$00
	.byte	$08
	.byte	$00
	.byte	$05
	.byte	$00
	.byte	$08
	.byte	$08
	.byte	$15
	.byte	$00
	.byte	$80
_playerShootRightSprite:
	.byte	$00
	.byte	$00
	.byte	$00
	.byte	$00
	.byte	$00
	.byte	$08
	.byte	$10
	.byte	$00
	.byte	$08
	.byte	$00
	.byte	$01
	.byte	$00
	.byte	$08
	.byte	$08
	.byte	$11
	.byte	$00
	.byte	$80
_playerShootTopRightSprite:
	.byte	$00
	.byte	$00
	.byte	$08
	.byte	$00
	.byte	$00
	.byte	$08
	.byte	$18
	.byte	$00
	.byte	$08
	.byte	$00
	.byte	$09
	.byte	$00
	.byte	$08
	.byte	$08
	.byte	$19
	.byte	$00
	.byte	$80
_playerShootBottomRightSprite:
	.byte	$00
	.byte	$00
	.byte	$0E
	.byte	$00
	.byte	$00
	.byte	$08
	.byte	$1E
	.byte	$00
	.byte	$08
	.byte	$00
	.byte	$0F
	.byte	$00
	.byte	$08
	.byte	$08
	.byte	$1F
	.byte	$00
	.byte	$80
_playerShootBottomLeftSprite:
	.byte	$00
	.byte	$00
	.byte	$0C
	.byte	$00
	.byte	$00
	.byte	$08
	.byte	$1C
	.byte	$00
	.byte	$08
	.byte	$00
	.byte	$0D
	.byte	$00
	.byte	$08
	.byte	$08
	.byte	$1D
	.byte	$00
	.byte	$80
_playerShootTopLeftSprite:
	.byte	$00
	.byte	$00
	.byte	$0A
	.byte	$00
	.byte	$00
	.byte	$08
	.byte	$1A
	.byte	$00
	.byte	$08
	.byte	$00
	.byte	$0B
	.byte	$00
	.byte	$08
	.byte	$08
	.byte	$1B
	.byte	$00
	.byte	$80
_orangePortal:
	.byte	$00
	.byte	$00
	.byte	$EF
	.byte	$00
	.byte	$00
	.byte	$08
	.byte	$EF
	.byte	$80
	.byte	$08
	.byte	$00
	.byte	$EF
	.byte	$40
	.byte	$08
	.byte	$08
	.byte	$EF
	.byte	$C0
	.byte	$80
_bluePortal:
	.byte	$00
	.byte	$00
	.byte	$EF
	.byte	$02
	.byte	$00
	.byte	$08
	.byte	$EF
	.byte	$82
	.byte	$08
	.byte	$00
	.byte	$EF
	.byte	$42
	.byte	$08
	.byte	$08
	.byte	$EF
	.byte	$C2
	.byte	$80
_orangeBulletSprite:
	.byte	$00
	.byte	$00
	.byte	$FF
	.byte	$00
	.byte	$80
_blueBulletSprite:
	.byte	$00
	.byte	$00
	.byte	$FF
	.byte	$02
	.byte	$80
_boxSprite:
	.byte	$00
	.byte	$00
	.byte	$22
	.byte	$03
	.byte	$00
	.byte	$08
	.byte	$32
	.byte	$03
	.byte	$08
	.byte	$00
	.byte	$23
	.byte	$03
	.byte	$08
	.byte	$08
	.byte	$33
	.byte	$03
	.byte	$80
_paletteBackground:
	.byte	$0F
	.byte	$11
	.byte	$10
	.byte	$30
	.byte	$0F
	.byte	$0F
	.byte	$0F
	.byte	$27
	.byte	$0F
	.byte	$00
	.byte	$10
	.byte	$30
	.byte	$0F
	.byte	$0F
	.byte	$0F
	.byte	$0F
_paletteSprite:
	.byte	$2C
	.byte	$36
	.byte	$30
	.byte	$27
	.byte	$2C
	.byte	$0F
	.byte	$31
	.byte	$10
	.byte	$2C
	.byte	$27
	.byte	$10
	.byte	$11
	.byte	$2C
	.byte	$10
	.byte	$00
	.byte	$21
_levelPaletteBackground:
	.byte	$31
	.byte	$00
	.byte	$10
	.byte	$16
	.byte	$31
	.byte	$00
	.byte	$10
	.byte	$2C
	.byte	$31
	.byte	$00
	.byte	$10
	.byte	$30
	.byte	$31
	.byte	$0F
	.byte	$21
	.byte	$00
_endingScreenPalette:
	.byte	$10
	.byte	$07
	.byte	$30
	.byte	$16
	.byte	$10
	.byte	$10
	.byte	$00
	.byte	$2A
	.byte	$10
	.byte	$0F
	.byte	$31
	.byte	$00
	.byte	$10
	.byte	$00
	.byte	$30
	.byte	$16
_levelOneData:
	.byte	$D7
	.byte	$D7
	.byte	$D7
	.byte	$D7
	.byte	$D7
	.byte	$D7
	.byte	$D7
	.byte	$D7
	.byte	$D7
	.byte	$D7
	.byte	$D7
	.byte	$D7
	.byte	$D7
	.byte	$D7
	.byte	$D7
	.byte	$D7
	.byte	$D7
	.byte	$D7
	.byte	$D7
	.byte	$D7
	.byte	$D7
	.byte	$D7
	.byte	$D7
	.byte	$D7
	.byte	$D7
	.byte	$D7
	.byte	$D7
	.byte	$D7
	.byte	$D7
	.byte	$D7
	.byte	$D7
	.byte	$D7
	.byte	$D7
	.byte	$E7
	.byte	$DB
	.byte	$DB
	.byte	$DB
	.byte	$DB
	.byte	$DB
	.byte	$DB
	.byte	$DB
	.byte	$DB
	.byte	$DB
	.byte	$DB
	.byte	$DB
	.byte	$DB
	.byte	$DB
	.byte	$DB
	.byte	$DB
	.byte	$DB
	.byte	$DB
	.byte	$DB
	.byte	$DB
	.byte	$DB
	.byte	$DB
	.byte	$DB
	.byte	$DB
	.byte	$DB
	.byte	$DB
	.byte	$DB
	.byte	$DB
	.byte	$DB
	.byte	$E4
	.byte	$D7
	.byte	$D7
	.byte	$D1
	.byte	$00
	.byte	$00
	.byte	$00
	.byte	$00
	.byte	$00
	.byte	$00
	.byte	$00
	.byte	$00
	.byte	$00
	.byte	$00
	.byte	$00
	.byte	$00
	.byte	$00
	.byte	$00
	.byte	$00
	.byte	$00
	.byte	$00
	.byte	$F3
	.byte	$F3
	.byte	$F3
	.byte	$F3
	.byte	$F3
	.byte	$F3
	.byte	$00
	.byte	$00
	.byte	$00
	.byte	$00
	.byte	$00
	.byte	$D0
	.byte	$D7
	.byte	$D7
	.byte	$D1
	.byte	$00
	.byte	$00
	.byte	$00
	.byte	$00
	.byte	$00
	.byte	$00
	.byte	$00
	.byte	$00
	.byte	$00
	.byte	$00
	.byte	$00
	.byte	$00
	.byte	$00
	.byte	$00
	.byte	$00
	.byte	$00
	.byte	$00
	.byte	$F3
	.byte	$F3
	.byte	$F2
	.byte	$F2
	.byte	$F3
	.byte	$F3
	.byte	$00
	.byte	$00
	.byte	$00
	.byte	$00
	.byte	$00
	.byte	$D0
	.byte	$D7
	.byte	$D7
	.byte	$D1
	.byte	$00
	.byte	$00
	.byte	$00
	.byte	$00
	.byte	$00
	.byte	$00
	.byte	$00
	.byte	$00
	.byte	$00
	.byte	$00
	.byte	$00
	.byte	$00
	.byte	$00
	.byte	$00
	.byte	$00
	.byte	$00
	.byte	$00
	.byte	$F3
	.byte	$F2
	.byte	$F2
	.byte	$F2
	.byte	$F3
	.byte	$F3
	.byte	$00
	.byte	$00
	.byte	$00
	.byte	$00
	.byte	$00
	.byte	$D0
	.byte	$D7
	.byte	$D7
	.byte	$D1
	.byte	$00
	.byte	$00
	.byte	$00
	.byte	$00
	.byte	$00
	.byte	$00
	.byte	$00
	.byte	$00
	.byte	$00
	.byte	$00
	.byte	$00
	.byte	$00
	.byte	$00
	.byte	$00
	.byte	$00
	.byte	$00
	.byte	$00
	.byte	$F3
	.byte	$F3
	.byte	$F2
	.byte	$F2
	.byte	$F3
	.byte	$F3
	.byte	$00
	.byte	$00
	.byte	$00
	.byte	$00
	.byte	$00
	.byte	$D0
	.byte	$D7
	.byte	$D7
	.byte	$D1
	.byte	$00
	.byte	$00
	.byte	$00
	.byte	$00
	.byte	$00
	.byte	$00
	.byte	$00
	.byte	$00
	.byte	$00
	.byte	$00
	.byte	$00
	.byte	$00
	.byte	$00
	.byte	$00
	.byte	$00
	.byte	$00
	.byte	$00
	.byte	$F3
	.byte	$F3
	.byte	$F2
	.byte	$F2
	.byte	$F3
	.byte	$F3
	.byte	$00
	.byte	$00
	.byte	$00
	.byte	$00
	.byte	$00
	.byte	$D0
	.byte	$D7
	.byte	$D7
	.byte	$D1
	.byte	$00
	.byte	$00
	.byte	$00
	.byte	$00
	.byte	$00
	.byte	$00
	.byte	$00
	.byte	$00
	.byte	$00
	.byte	$00
	.byte	$00
	.byte	$00
	.byte	$00
	.byte	$00
	.byte	$00
	.byte	$00
	.byte	$00
	.byte	$F3
	.byte	$F3
	.byte	$F2
	.byte	$F2
	.byte	$F3
	.byte	$F3
	.byte	$00
	.byte	$00
	.byte	$00
	.byte	$00
	.byte	$00
	.byte	$D0
	.byte	$D7
	.byte	$D7
	.byte	$D1
	.byte	$00
	.byte	$00
	.byte	$00
	.byte	$00
	.byte	$00
	.byte	$00
	.byte	$00
	.byte	$00
	.byte	$00
	.byte	$00
	.byte	$00
	.byte	$00
	.byte	$00
	.byte	$00
	.byte	$00
	.byte	$00
	.byte	$00
	.byte	$F3
	.byte	$F2
	.byte	$F2
	.byte	$F2
	.byte	$F2
	.byte	$F3
	.byte	$00
	.byte	$00
	.byte	$00
	.byte	$00
	.byte	$00
	.byte	$D0
	.byte	$D7
	.byte	$D7
	.byte	$D1
	.byte	$00
	.byte	$00
	.byte	$00
	.byte	$00
	.byte	$00
	.byte	$00
	.byte	$00
	.byte	$00
	.byte	$00
	.byte	$00
	.byte	$00
	.byte	$00
	.byte	$00
	.byte	$00
	.byte	$00
	.byte	$00
	.byte	$00
	.byte	$F3
	.byte	$F3
	.byte	$F3
	.byte	$F3
	.byte	$F3
	.byte	$F3
	.byte	$00
	.byte	$00
	.byte	$00
	.byte	$00
	.byte	$00
	.byte	$D0
	.byte	$D7
	.byte	$D7
	.byte	$D1
	.byte	$00
	.byte	$00
	.byte	$00
	.byte	$00
	.byte	$00
	.byte	$00
	.byte	$00
	.byte	$00
	.byte	$00
	.byte	$00
	.byte	$00
	.byte	$00
	.byte	$00
	.byte	$00
	.byte	$00
	.byte	$00
	.byte	$00
	.byte	$00
	.byte	$00
	.byte	$00
	.byte	$00
	.byte	$00
	.byte	$00
	.byte	$00
	.byte	$00
	.byte	$00
	.byte	$00
	.byte	$00
	.byte	$D0
	.byte	$D7
	.byte	$D7
	.byte	$D1
	.byte	$00
	.byte	$00
	.byte	$00
	.byte	$00
	.byte	$00
	.byte	$00
	.byte	$00
	.byte	$00
	.byte	$00
	.byte	$00
	.byte	$00
	.byte	$00
	.byte	$00
	.byte	$00
	.byte	$00
	.byte	$00
	.byte	$00
	.byte	$00
	.byte	$00
	.byte	$00
	.byte	$00
	.byte	$00
	.byte	$00
	.byte	$00
	.byte	$00
	.byte	$00
	.byte	$00
	.byte	$00
	.byte	$D0
	.byte	$D7
	.byte	$D7
	.byte	$D1
	.byte	$00
	.byte	$00
	.byte	$00
	.byte	$00
	.byte	$00
	.byte	$00
	.byte	$00
	.byte	$00
	.byte	$44
	.byte	$50
	.byte	$41
	.byte	$44
	.byte	$00
	.byte	$54
	.byte	$4F
	.byte	$00
	.byte	$4D
	.byte	$4F
	.byte	$56
	.byte	$45
	.byte	$21
	.byte	$00
	.byte	$00
	.byte	$00
	.byte	$00
	.byte	$00
	.byte	$00
	.byte	$00
	.byte	$D0
	.byte	$D7
	.byte	$D7
	.byte	$D1
	.byte	$00
	.byte	$00
	.byte	$00
	.byte	$00
	.byte	$00
	.byte	$00
	.byte	$00
	.byte	$00
	.byte	$00
	.byte	$00
	.byte	$00
	.byte	$00
	.byte	$00
	.byte	$00
	.byte	$00
	.byte	$00
	.byte	$00
	.byte	$00
	.byte	$00
	.byte	$00
	.byte	$00
	.byte	$00
	.byte	$00
	.byte	$00
	.byte	$00
	.byte	$00
	.byte	$00
	.byte	$00
	.byte	$D0
	.byte	$D7
	.byte	$D7
	.byte	$D1
	.byte	$00
	.byte	$00
	.byte	$00
	.byte	$00
	.byte	$00
	.byte	$00
	.byte	$00
	.byte	$00
	.byte	$41
	.byte	$00
	.byte	$54
	.byte	$4F
	.byte	$00
	.byte	$49
	.byte	$4E
	.byte	$54
	.byte	$45
	.byte	$52
	.byte	$41
	.byte	$43
	.byte	$54
	.byte	$00
	.byte	$00
	.byte	$00
	.byte	$00
	.byte	$00
	.byte	$00
	.byte	$00
	.byte	$D0
	.byte	$D7
	.byte	$D7
	.byte	$D1
	.byte	$00
	.byte	$00
	.byte	$00
	.byte	$00
	.byte	$00
	.byte	$00
	.byte	$00
	.byte	$00
	.byte	$00
	.byte	$00
	.byte	$00
	.byte	$00
	.byte	$00
	.byte	$00
	.byte	$00
	.byte	$00
	.byte	$00
	.byte	$00
	.byte	$00
	.byte	$00
	.byte	$00
	.byte	$00
	.byte	$00
	.byte	$00
	.byte	$00
	.byte	$00
	.byte	$00
	.byte	$00
	.byte	$D0
	.byte	$D7
	.byte	$D7
	.byte	$D1
	.byte	$00
	.byte	$00
	.byte	$00
	.byte	$00
	.byte	$00
	.byte	$00
	.byte	$00
	.byte	$00
	.byte	$00
	.byte	$00
	.byte	$00
	.byte	$00
	.byte	$00
	.byte	$00
	.byte	$00
	.byte	$00
	.byte	$00
	.byte	$00
	.byte	$00
	.byte	$00
	.byte	$00
	.byte	$00
	.byte	$00
	.byte	$00
	.byte	$00
	.byte	$00
	.byte	$00
	.byte	$00
	.byte	$D0
	.byte	$D7
	.byte	$D7
	.byte	$D1
	.byte	$00
	.byte	$00
	.byte	$00
	.byte	$00
	.byte	$00
	.byte	$00
	.byte	$00
	.byte	$00
	.byte	$00
	.byte	$00
	.byte	$00
	.byte	$00
	.byte	$00
	.byte	$00
	.byte	$00
	.byte	$00
	.byte	$00
	.byte	$00
	.byte	$00
	.byte	$00
	.byte	$00
	.byte	$00
	.byte	$00
	.byte	$00
	.byte	$00
	.byte	$00
	.byte	$00
	.byte	$00
	.byte	$D0
	.byte	$D7
	.byte	$D7
	.byte	$D1
	.byte	$00
	.byte	$00
	.byte	$00
	.byte	$00
	.byte	$00
	.byte	$00
	.byte	$00
	.byte	$00
	.byte	$00
	.byte	$00
	.byte	$00
	.byte	$00
	.byte	$00
	.byte	$00
	.byte	$00
	.byte	$00
	.byte	$00
	.byte	$00
	.byte	$00
	.byte	$00
	.byte	$00
	.byte	$00
	.byte	$00
	.byte	$00
	.byte	$00
	.byte	$00
	.byte	$00
	.byte	$00
	.byte	$D0
	.byte	$D7
	.byte	$D7
	.byte	$D1
	.byte	$00
	.byte	$00
	.byte	$00
	.byte	$00
	.byte	$00
	.byte	$00
	.byte	$00
	.byte	$00
	.byte	$00
	.byte	$00
	.byte	$00
	.byte	$00
	.byte	$00
	.byte	$00
	.byte	$00
	.byte	$00
	.byte	$00
	.byte	$00
	.byte	$00
	.byte	$00
	.byte	$00
	.byte	$00
	.byte	$00
	.byte	$00
	.byte	$00
	.byte	$00
	.byte	$00
	.byte	$00
	.byte	$D0
	.byte	$D7
	.byte	$D7
	.byte	$D1
	.byte	$00
	.byte	$00
	.byte	$00
	.byte	$00
	.byte	$00
	.byte	$00
	.byte	$00
	.byte	$00
	.byte	$00
	.byte	$00
	.byte	$00
	.byte	$00
	.byte	$00
	.byte	$00
	.byte	$00
	.byte	$00
	.byte	$00
	.byte	$00
	.byte	$00
	.byte	$00
	.byte	$00
	.byte	$00
	.byte	$00
	.byte	$00
	.byte	$00
	.byte	$00
	.byte	$00
	.byte	$00
	.byte	$D0
	.byte	$D7
	.byte	$D7
	.byte	$D1
	.byte	$00
	.byte	$00
	.byte	$00
	.byte	$00
	.byte	$00
	.byte	$00
	.byte	$00
	.byte	$00
	.byte	$00
	.byte	$00
	.byte	$00
	.byte	$00
	.byte	$00
	.byte	$00
	.byte	$00
	.byte	$00
	.byte	$00
	.byte	$00
	.byte	$00
	.byte	$00
	.byte	$00
	.byte	$00
	.byte	$00
	.byte	$00
	.byte	$00
	.byte	$00
	.byte	$00
	.byte	$00
	.byte	$D0
	.byte	$D7
	.byte	$D7
	.byte	$D1
	.byte	$00
	.byte	$00
	.byte	$00
	.byte	$00
	.byte	$00
	.byte	$00
	.byte	$00
	.byte	$00
	.byte	$00
	.byte	$00
	.byte	$00
	.byte	$00
	.byte	$00
	.byte	$00
	.byte	$00
	.byte	$00
	.byte	$00
	.byte	$00
	.byte	$00
	.byte	$00
	.byte	$00
	.byte	$00
	.byte	$00
	.byte	$00
	.byte	$00
	.byte	$00
	.byte	$00
	.byte	$00
	.byte	$D0
	.byte	$D7
	.byte	$D7
	.byte	$D1
	.byte	$00
	.byte	$00
	.byte	$00
	.byte	$00
	.byte	$00
	.byte	$00
	.byte	$00
	.byte	$00
	.byte	$00
	.byte	$00
	.byte	$00
	.byte	$00
	.byte	$00
	.byte	$00
	.byte	$00
	.byte	$00
	.byte	$00
	.byte	$00
	.byte	$00
	.byte	$00
	.byte	$00
	.byte	$00
	.byte	$00
	.byte	$00
	.byte	$00
	.byte	$00
	.byte	$00
	.byte	$00
	.byte	$D0
	.byte	$D7
	.byte	$D7
	.byte	$D1
	.byte	$00
	.byte	$00
	.byte	$00
	.byte	$00
	.byte	$00
	.byte	$00
	.byte	$00
	.byte	$00
	.byte	$00
	.byte	$00
	.byte	$00
	.byte	$00
	.byte	$00
	.byte	$00
	.byte	$00
	.byte	$00
	.byte	$00
	.byte	$00
	.byte	$00
	.byte	$00
	.byte	$00
	.byte	$00
	.byte	$00
	.byte	$00
	.byte	$00
	.byte	$00
	.byte	$00
	.byte	$00
	.byte	$D0
	.byte	$D7
	.byte	$D7
	.byte	$D1
	.byte	$00
	.byte	$00
	.byte	$00
	.byte	$00
	.byte	$00
	.byte	$00
	.byte	$00
	.byte	$00
	.byte	$00
	.byte	$00
	.byte	$00
	.byte	$00
	.byte	$00
	.byte	$00
	.byte	$00
	.byte	$00
	.byte	$00
	.byte	$00
	.byte	$00
	.byte	$00
	.byte	$00
	.byte	$00
	.byte	$00
	.byte	$00
	.byte	$00
	.byte	$00
	.byte	$00
	.byte	$00
	.byte	$D0
	.byte	$D7
	.byte	$D7
	.byte	$D1
	.byte	$00
	.byte	$00
	.byte	$00
	.byte	$00
	.byte	$00
	.byte	$00
	.byte	$00
	.byte	$00
	.byte	$00
	.byte	$00
	.byte	$00
	.byte	$00
	.byte	$00
	.byte	$00
	.byte	$00
	.byte	$00
	.byte	$00
	.byte	$00
	.byte	$00
	.byte	$00
	.byte	$00
	.byte	$00
	.byte	$00
	.byte	$EA
	.byte	$EB
	.byte	$00
	.byte	$00
	.byte	$00
	.byte	$D0
	.byte	$D7
	.byte	$D7
	.byte	$D1
	.byte	$00
	.byte	$00
	.byte	$00
	.byte	$00
	.byte	$00
	.byte	$00
	.byte	$00
	.byte	$00
	.byte	$00
	.byte	$00
	.byte	$00
	.byte	$00
	.byte	$00
	.byte	$00
	.byte	$00
	.byte	$00
	.byte	$00
	.byte	$FC
	.byte	$FD
	.byte	$00
	.byte	$00
	.byte	$00
	.byte	$00
	.byte	$FA
	.byte	$FB
	.byte	$00
	.byte	$00
	.byte	$00
	.byte	$D0
	.byte	$D7
	.byte	$D7
	.byte	$E5
	.byte	$AA
	.byte	$AA
	.byte	$AA
	.byte	$AA
	.byte	$AA
	.byte	$AA
	.byte	$AA
	.byte	$AA
	.byte	$AA
	.byte	$AA
	.byte	$AA
	.byte	$AA
	.byte	$AA
	.byte	$AA
	.byte	$AA
	.byte	$AA
	.byte	$AA
	.byte	$AA
	.byte	$AA
	.byte	$AA
	.byte	$AA
	.byte	$AA
	.byte	$AA
	.byte	$AA
	.byte	$AA
	.byte	$AA
	.byte	$AA
	.byte	$AA
	.byte	$E6
	.byte	$D7
	.byte	$D7
	.byte	$D7
	.byte	$D7
	.byte	$D7
	.byte	$D7
	.byte	$D7
	.byte	$D7
	.byte	$D7
	.byte	$D7
	.byte	$D7
	.byte	$D7
	.byte	$D7
	.byte	$D7
	.byte	$D7
	.byte	$D7
	.byte	$D7
	.byte	$D7
	.byte	$D7
	.byte	$D7
	.byte	$D7
	.byte	$D7
	.byte	$D7
	.byte	$D7
	.byte	$D7
	.byte	$D7
	.byte	$D7
	.byte	$D7
	.byte	$D7
	.byte	$D7
	.byte	$D7
	.byte	$D7
	.byte	$D7
	.byte	$AA
	.byte	$AA
	.byte	$AA
	.byte	$AA
	.byte	$AA
	.byte	$AA
	.byte	$AA
	.byte	$AA
	.byte	$AA
	.byte	$2A
	.byte	$8A
	.byte	$AA
	.byte	$AA
	.byte	$AA
	.byte	$AA
	.byte	$AA
	.byte	$AA
	.byte	$AA
	.byte	$AA
	.byte	$AA
	.byte	$AA
	.byte	$AA
	.byte	$AA
	.byte	$AA
	.byte	$AA
	.byte	$AA
	.byte	$AA
	.byte	$AA
	.byte	$AA
	.byte	$AA
	.byte	$AA
	.byte	$AA
	.byte	$AA
	.byte	$AA
	.byte	$AA
	.byte	$AA
	.byte	$AA
	.byte	$AA
	.byte	$AA
	.byte	$AA
	.byte	$AA
	.byte	$AA
	.byte	$AA
	.byte	$AA
	.byte	$AA
	.byte	$AA
	.byte	$AA
	.byte	$AA
	.byte	$AA
	.byte	$AA
	.byte	$AA
	.byte	$AA
	.byte	$2A
	.byte	$8A
	.byte	$FA
	.byte	$AA
	.byte	$0A
	.byte	$0A
	.byte	$0A
	.byte	$0A
	.byte	$0A
	.byte	$0A
	.byte	$0A
	.byte	$0A
_levelTwoData:
	.byte	$D7
	.byte	$D7
	.byte	$D7
	.byte	$D7
	.byte	$D7
	.byte	$D7
	.byte	$D7
	.byte	$D7
	.byte	$D7
	.byte	$D7
	.byte	$D7
	.byte	$D7
	.byte	$D7
	.byte	$D7
	.byte	$D7
	.byte	$D7
	.byte	$D7
	.byte	$D7
	.byte	$D7
	.byte	$D7
	.byte	$D7
	.byte	$D7
	.byte	$D7
	.byte	$D7
	.byte	$D7
	.byte	$D7
	.byte	$D7
	.byte	$D7
	.byte	$D7
	.byte	$D7
	.byte	$D7
	.byte	$D7
	.byte	$D7
	.byte	$E7
	.byte	$DB
	.byte	$DB
	.byte	$DB
	.byte	$DB
	.byte	$DB
	.byte	$DB
	.byte	$DB
	.byte	$DB
	.byte	$DB
	.byte	$DB
	.byte	$DB
	.byte	$DB
	.byte	$DB
	.byte	$DB
	.byte	$DB
	.byte	$DB
	.byte	$DB
	.byte	$DB
	.byte	$DB
	.byte	$DB
	.byte	$DB
	.byte	$DB
	.byte	$DB
	.byte	$DB
	.byte	$DB
	.byte	$DB
	.byte	$DB
	.byte	$DB
	.byte	$E4
	.byte	$D7
	.byte	$D7
	.byte	$D1
	.byte	$00
	.byte	$00
	.byte	$00
	.byte	$00
	.byte	$00
	.byte	$00
	.byte	$00
	.byte	$00
	.byte	$00
	.byte	$00
	.byte	$00
	.byte	$00
	.byte	$00
	.byte	$00
	.byte	$00
	.byte	$00
	.byte	$00
	.byte	$F3
	.byte	$F3
	.byte	$F3
	.byte	$F3
	.byte	$F3
	.byte	$F3
	.byte	$00
	.byte	$00
	.byte	$00
	.byte	$00
	.byte	$00
	.byte	$D0
	.byte	$D7
	.byte	$D7
	.byte	$D1
	.byte	$00
	.byte	$00
	.byte	$00
	.byte	$00
	.byte	$00
	.byte	$00
	.byte	$00
	.byte	$00
	.byte	$00
	.byte	$00
	.byte	$00
	.byte	$00
	.byte	$00
	.byte	$00
	.byte	$00
	.byte	$00
	.byte	$00
	.byte	$F3
	.byte	$F3
	.byte	$F2
	.byte	$F2
	.byte	$F3
	.byte	$F3
	.byte	$00
	.byte	$00
	.byte	$00
	.byte	$00
	.byte	$00
	.byte	$D0
	.byte	$D7
	.byte	$D7
	.byte	$D1
	.byte	$00
	.byte	$00
	.byte	$00
	.byte	$00
	.byte	$00
	.byte	$00
	.byte	$00
	.byte	$00
	.byte	$00
	.byte	$00
	.byte	$00
	.byte	$00
	.byte	$00
	.byte	$00
	.byte	$00
	.byte	$00
	.byte	$00
	.byte	$F3
	.byte	$F2
	.byte	$F3
	.byte	$F3
	.byte	$F2
	.byte	$F3
	.byte	$00
	.byte	$00
	.byte	$00
	.byte	$00
	.byte	$00
	.byte	$D0
	.byte	$D7
	.byte	$D7
	.byte	$D1
	.byte	$00
	.byte	$00
	.byte	$00
	.byte	$00
	.byte	$00
	.byte	$00
	.byte	$00
	.byte	$00
	.byte	$00
	.byte	$00
	.byte	$00
	.byte	$00
	.byte	$00
	.byte	$00
	.byte	$00
	.byte	$00
	.byte	$00
	.byte	$F3
	.byte	$F3
	.byte	$F3
	.byte	$F2
	.byte	$F3
	.byte	$F3
	.byte	$00
	.byte	$00
	.byte	$00
	.byte	$00
	.byte	$00
	.byte	$D0
	.byte	$D7
	.byte	$D7
	.byte	$D1
	.byte	$00
	.byte	$00
	.byte	$00
	.byte	$00
	.byte	$00
	.byte	$00
	.byte	$00
	.byte	$00
	.byte	$00
	.byte	$00
	.byte	$00
	.byte	$00
	.byte	$00
	.byte	$00
	.byte	$00
	.byte	$00
	.byte	$00
	.byte	$F3
	.byte	$F3
	.byte	$F2
	.byte	$F3
	.byte	$F3
	.byte	$F3
	.byte	$00
	.byte	$00
	.byte	$00
	.byte	$00
	.byte	$00
	.byte	$D0
	.byte	$D7
	.byte	$D7
	.byte	$D1
	.byte	$00
	.byte	$00
	.byte	$00
	.byte	$00
	.byte	$00
	.byte	$00
	.byte	$00
	.byte	$00
	.byte	$00
	.byte	$00
	.byte	$00
	.byte	$00
	.byte	$00
	.byte	$00
	.byte	$00
	.byte	$00
	.byte	$00
	.byte	$F3
	.byte	$F2
	.byte	$F3
	.byte	$F3
	.byte	$F3
	.byte	$F3
	.byte	$00
	.byte	$00
	.byte	$00
	.byte	$00
	.byte	$00
	.byte	$D0
	.byte	$D7
	.byte	$D7
	.byte	$D1
	.byte	$00
	.byte	$00
	.byte	$00
	.byte	$00
	.byte	$00
	.byte	$00
	.byte	$00
	.byte	$00
	.byte	$00
	.byte	$00
	.byte	$00
	.byte	$00
	.byte	$00
	.byte	$00
	.byte	$00
	.byte	$00
	.byte	$00
	.byte	$F3
	.byte	$F2
	.byte	$F2
	.byte	$F2
	.byte	$F2
	.byte	$F3
	.byte	$00
	.byte	$00
	.byte	$00
	.byte	$00
	.byte	$00
	.byte	$D0
	.byte	$D7
	.byte	$D7
	.byte	$D1
	.byte	$00
	.byte	$00
	.byte	$00
	.byte	$00
	.byte	$00
	.byte	$00
	.byte	$00
	.byte	$00
	.byte	$00
	.byte	$00
	.byte	$00
	.byte	$00
	.byte	$00
	.byte	$00
	.byte	$00
	.byte	$00
	.byte	$00
	.byte	$F3
	.byte	$F3
	.byte	$F3
	.byte	$F3
	.byte	$F3
	.byte	$F3
	.byte	$00
	.byte	$00
	.byte	$00
	.byte	$00
	.byte	$00
	.byte	$D0
	.byte	$D7
	.byte	$D7
	.byte	$D1
	.byte	$00
	.byte	$00
	.byte	$00
	.byte	$00
	.byte	$00
	.byte	$00
	.byte	$00
	.byte	$00
	.byte	$00
	.byte	$00
	.byte	$00
	.byte	$00
	.byte	$00
	.byte	$00
	.byte	$00
	.byte	$00
	.byte	$00
	.byte	$00
	.byte	$00
	.byte	$00
	.byte	$00
	.byte	$00
	.byte	$00
	.byte	$00
	.byte	$00
	.byte	$00
	.byte	$00
	.byte	$00
	.byte	$D0
	.byte	$D7
	.byte	$D7
	.byte	$D1
	.byte	$53
	.byte	$45
	.byte	$4C
	.byte	$45
	.byte	$43
	.byte	$54
	.byte	$00
	.byte	$54
	.byte	$4F
	.byte	$00
	.byte	$54
	.byte	$4F
	.byte	$47
	.byte	$47
	.byte	$4C
	.byte	$45
	.byte	$00
	.byte	$50
	.byte	$4F
	.byte	$52
	.byte	$54
	.byte	$41
	.byte	$4C
	.byte	$00
	.byte	$47
	.byte	$55
	.byte	$4E
	.byte	$21
	.byte	$D0
	.byte	$D7
	.byte	$D7
	.byte	$D1
	.byte	$00
	.byte	$00
	.byte	$00
	.byte	$00
	.byte	$00
	.byte	$00
	.byte	$00
	.byte	$00
	.byte	$00
	.byte	$00
	.byte	$00
	.byte	$00
	.byte	$00
	.byte	$00
	.byte	$00
	.byte	$00
	.byte	$00
	.byte	$00
	.byte	$00
	.byte	$00
	.byte	$00
	.byte	$00
	.byte	$00
	.byte	$00
	.byte	$00
	.byte	$00
	.byte	$00
	.byte	$00
	.byte	$D0
	.byte	$D7
	.byte	$D7
	.byte	$D1
	.byte	$00
	.byte	$41
	.byte	$00
	.byte	$46
	.byte	$4F
	.byte	$52
	.byte	$00
	.byte	$4F
	.byte	$52
	.byte	$41
	.byte	$4E
	.byte	$47
	.byte	$45
	.byte	$00
	.byte	$7C
	.byte	$7C
	.byte	$00
	.byte	$42
	.byte	$00
	.byte	$46
	.byte	$4F
	.byte	$52
	.byte	$00
	.byte	$42
	.byte	$4C
	.byte	$55
	.byte	$45
	.byte	$00
	.byte	$D0
	.byte	$D7
	.byte	$D7
	.byte	$D1
	.byte	$00
	.byte	$00
	.byte	$00
	.byte	$00
	.byte	$00
	.byte	$00
	.byte	$00
	.byte	$00
	.byte	$00
	.byte	$00
	.byte	$00
	.byte	$00
	.byte	$00
	.byte	$00
	.byte	$00
	.byte	$00
	.byte	$00
	.byte	$00
	.byte	$00
	.byte	$00
	.byte	$00
	.byte	$00
	.byte	$00
	.byte	$00
	.byte	$00
	.byte	$00
	.byte	$00
	.byte	$00
	.byte	$D0
	.byte	$D7
	.byte	$D7
	.byte	$D1
	.byte	$00
	.byte	$00
	.byte	$00
	.byte	$00
	.byte	$00
	.byte	$00
	.byte	$00
	.byte	$00
	.byte	$00
	.byte	$00
	.byte	$00
	.byte	$00
	.byte	$00
	.byte	$00
	.byte	$00
	.byte	$00
	.byte	$00
	.byte	$00
	.byte	$00
	.byte	$00
	.byte	$00
	.byte	$00
	.byte	$00
	.byte	$00
	.byte	$00
	.byte	$00
	.byte	$00
	.byte	$00
	.byte	$D0
	.byte	$D7
	.byte	$D7
	.byte	$D1
	.byte	$00
	.byte	$00
	.byte	$00
	.byte	$00
	.byte	$00
	.byte	$00
	.byte	$00
	.byte	$00
	.byte	$00
	.byte	$00
	.byte	$00
	.byte	$00
	.byte	$00
	.byte	$00
	.byte	$00
	.byte	$00
	.byte	$00
	.byte	$00
	.byte	$00
	.byte	$00
	.byte	$00
	.byte	$00
	.byte	$00
	.byte	$00
	.byte	$00
	.byte	$00
	.byte	$00
	.byte	$00
	.byte	$D0
	.byte	$D7
	.byte	$D7
	.byte	$D1
	.byte	$00
	.byte	$00
	.byte	$00
	.byte	$00
	.byte	$00
	.byte	$00
	.byte	$00
	.byte	$00
	.byte	$00
	.byte	$00
	.byte	$00
	.byte	$00
	.byte	$00
	.byte	$00
	.byte	$00
	.byte	$00
	.byte	$00
	.byte	$00
	.byte	$00
	.byte	$00
	.byte	$00
	.byte	$00
	.byte	$00
	.byte	$00
	.byte	$00
	.byte	$00
	.byte	$00
	.byte	$00
	.byte	$D0
	.byte	$D7
	.byte	$D7
	.byte	$D1
	.byte	$00
	.byte	$00
	.byte	$00
	.byte	$00
	.byte	$00
	.byte	$00
	.byte	$00
	.byte	$00
	.byte	$00
	.byte	$00
	.byte	$00
	.byte	$00
	.byte	$00
	.byte	$00
	.byte	$00
	.byte	$00
	.byte	$00
	.byte	$00
	.byte	$00
	.byte	$00
	.byte	$00
	.byte	$00
	.byte	$00
	.byte	$00
	.byte	$00
	.byte	$00
	.byte	$00
	.byte	$00
	.byte	$D0
	.byte	$D7
	.byte	$D7
	.byte	$D1
	.byte	$00
	.byte	$00
	.byte	$00
	.byte	$00
	.byte	$00
	.byte	$00
	.byte	$00
	.byte	$00
	.byte	$00
	.byte	$00
	.byte	$00
	.byte	$00
	.byte	$00
	.byte	$00
	.byte	$00
	.byte	$00
	.byte	$00
	.byte	$00
	.byte	$00
	.byte	$00
	.byte	$00
	.byte	$00
	.byte	$00
	.byte	$00
	.byte	$00
	.byte	$00
	.byte	$00
	.byte	$00
	.byte	$D0
	.byte	$D7
	.byte	$D7
	.byte	$D1
	.byte	$00
	.byte	$00
	.byte	$00
	.byte	$00
	.byte	$00
	.byte	$00
	.byte	$00
	.byte	$00
	.byte	$00
	.byte	$00
	.byte	$00
	.byte	$00
	.byte	$00
	.byte	$00
	.byte	$00
	.byte	$00
	.byte	$00
	.byte	$00
	.byte	$00
	.byte	$A0
	.byte	$AB
	.byte	$AB
	.byte	$AB
	.byte	$AB
	.byte	$AB
	.byte	$AB
	.byte	$AB
	.byte	$AB
	.byte	$E3
	.byte	$D7
	.byte	$D7
	.byte	$08
	.byte	$00
	.byte	$00
	.byte	$00
	.byte	$00
	.byte	$00
	.byte	$00
	.byte	$00
	.byte	$00
	.byte	$00
	.byte	$00
	.byte	$00
	.byte	$00
	.byte	$00
	.byte	$00
	.byte	$00
	.byte	$00
	.byte	$00
	.byte	$00
	.byte	$00
	.byte	$D3
	.byte	$00
	.byte	$00
	.byte	$00
	.byte	$00
	.byte	$00
	.byte	$00
	.byte	$00
	.byte	$00
	.byte	$02
	.byte	$D7
	.byte	$D7
	.byte	$08
	.byte	$00
	.byte	$00
	.byte	$00
	.byte	$00
	.byte	$00
	.byte	$00
	.byte	$00
	.byte	$00
	.byte	$00
	.byte	$00
	.byte	$00
	.byte	$00
	.byte	$00
	.byte	$00
	.byte	$00
	.byte	$00
	.byte	$00
	.byte	$00
	.byte	$00
	.byte	$D3
	.byte	$00
	.byte	$00
	.byte	$00
	.byte	$00
	.byte	$00
	.byte	$00
	.byte	$00
	.byte	$00
	.byte	$02
	.byte	$D7
	.byte	$D7
	.byte	$08
	.byte	$00
	.byte	$00
	.byte	$00
	.byte	$00
	.byte	$00
	.byte	$00
	.byte	$00
	.byte	$00
	.byte	$00
	.byte	$00
	.byte	$00
	.byte	$00
	.byte	$00
	.byte	$00
	.byte	$00
	.byte	$00
	.byte	$00
	.byte	$00
	.byte	$00
	.byte	$D3
	.byte	$00
	.byte	$00
	.byte	$00
	.byte	$00
	.byte	$00
	.byte	$00
	.byte	$00
	.byte	$00
	.byte	$02
	.byte	$D7
	.byte	$D7
	.byte	$08
	.byte	$00
	.byte	$00
	.byte	$00
	.byte	$00
	.byte	$00
	.byte	$00
	.byte	$00
	.byte	$00
	.byte	$00
	.byte	$00
	.byte	$00
	.byte	$00
	.byte	$00
	.byte	$00
	.byte	$00
	.byte	$00
	.byte	$00
	.byte	$00
	.byte	$00
	.byte	$D3
	.byte	$00
	.byte	$00
	.byte	$00
	.byte	$00
	.byte	$00
	.byte	$00
	.byte	$00
	.byte	$00
	.byte	$02
	.byte	$D7
	.byte	$D7
	.byte	$08
	.byte	$00
	.byte	$00
	.byte	$00
	.byte	$00
	.byte	$00
	.byte	$00
	.byte	$00
	.byte	$00
	.byte	$00
	.byte	$00
	.byte	$00
	.byte	$00
	.byte	$00
	.byte	$00
	.byte	$00
	.byte	$00
	.byte	$00
	.byte	$00
	.byte	$00
	.byte	$B6
	.byte	$00
	.byte	$00
	.byte	$00
	.byte	$00
	.byte	$00
	.byte	$00
	.byte	$00
	.byte	$00
	.byte	$02
	.byte	$D7
	.byte	$D7
	.byte	$08
	.byte	$00
	.byte	$00
	.byte	$00
	.byte	$00
	.byte	$00
	.byte	$00
	.byte	$00
	.byte	$00
	.byte	$00
	.byte	$00
	.byte	$00
	.byte	$00
	.byte	$00
	.byte	$00
	.byte	$00
	.byte	$00
	.byte	$00
	.byte	$00
	.byte	$00
	.byte	$00
	.byte	$00
	.byte	$00
	.byte	$00
	.byte	$00
	.byte	$E8
	.byte	$E9
	.byte	$00
	.byte	$00
	.byte	$02
	.byte	$D7
	.byte	$D7
	.byte	$08
	.byte	$00
	.byte	$00
	.byte	$00
	.byte	$00
	.byte	$00
	.byte	$00
	.byte	$00
	.byte	$00
	.byte	$00
	.byte	$00
	.byte	$00
	.byte	$00
	.byte	$00
	.byte	$00
	.byte	$00
	.byte	$00
	.byte	$00
	.byte	$00
	.byte	$00
	.byte	$A6
	.byte	$00
	.byte	$00
	.byte	$00
	.byte	$00
	.byte	$F8
	.byte	$F9
	.byte	$00
	.byte	$00
	.byte	$02
	.byte	$D7
	.byte	$D7
	.byte	$E5
	.byte	$AA
	.byte	$AA
	.byte	$AA
	.byte	$AA
	.byte	$AA
	.byte	$AA
	.byte	$AA
	.byte	$AA
	.byte	$AA
	.byte	$AA
	.byte	$AA
	.byte	$AA
	.byte	$AA
	.byte	$AA
	.byte	$AA
	.byte	$AA
	.byte	$AA
	.byte	$AA
	.byte	$AA
	.byte	$AA
	.byte	$AA
	.byte	$AA
	.byte	$AA
	.byte	$AA
	.byte	$AA
	.byte	$AA
	.byte	$AA
	.byte	$AA
	.byte	$E6
	.byte	$D7
	.byte	$D7
	.byte	$D7
	.byte	$D7
	.byte	$D7
	.byte	$D7
	.byte	$D7
	.byte	$D7
	.byte	$D7
	.byte	$D7
	.byte	$D7
	.byte	$D7
	.byte	$D7
	.byte	$D7
	.byte	$D7
	.byte	$D7
	.byte	$D7
	.byte	$D7
	.byte	$D7
	.byte	$D7
	.byte	$D7
	.byte	$D7
	.byte	$D7
	.byte	$D7
	.byte	$D7
	.byte	$D7
	.byte	$D7
	.byte	$D7
	.byte	$D7
	.byte	$D7
	.byte	$D7
	.byte	$D7
	.byte	$D7
	.byte	$AA
	.byte	$AA
	.byte	$AA
	.byte	$AA
	.byte	$AA
	.byte	$AA
	.byte	$AA
	.byte	$AA
	.byte	$AA
	.byte	$AA
	.byte	$AA
	.byte	$AA
	.byte	$AA
	.byte	$AA
	.byte	$AA
	.byte	$AA
	.byte	$AA
	.byte	$AA
	.byte	$AA
	.byte	$AA
	.byte	$AA
	.byte	$AA
	.byte	$AA
	.byte	$AA
	.byte	$AA
	.byte	$AA
	.byte	$AA
	.byte	$AA
	.byte	$AA
	.byte	$AA
	.byte	$AA
	.byte	$AA
	.byte	$AA
	.byte	$AA
	.byte	$AA
	.byte	$AA
	.byte	$AA
	.byte	$AA
	.byte	$AA
	.byte	$AA
	.byte	$AA
	.byte	$AA
	.byte	$AA
	.byte	$AA
	.byte	$AA
	.byte	$AA
	.byte	$AA
	.byte	$AA
	.byte	$AA
	.byte	$AA
	.byte	$AA
	.byte	$AA
	.byte	$AA
	.byte	$AA
	.byte	$EA
	.byte	$AA
	.byte	$0A
	.byte	$0A
	.byte	$0A
	.byte	$0A
	.byte	$0A
	.byte	$0A
	.byte	$0A
	.byte	$0A
_levelThreeData:
	.byte	$D7
	.byte	$D7
	.byte	$D7
	.byte	$D7
	.byte	$D7
	.byte	$D7
	.byte	$D7
	.byte	$D7
	.byte	$D7
	.byte	$D7
	.byte	$D7
	.byte	$D7
	.byte	$D7
	.byte	$D7
	.byte	$D7
	.byte	$D7
	.byte	$D7
	.byte	$D7
	.byte	$D7
	.byte	$D7
	.byte	$D7
	.byte	$D7
	.byte	$D7
	.byte	$D7
	.byte	$D7
	.byte	$D7
	.byte	$D7
	.byte	$D7
	.byte	$D7
	.byte	$D7
	.byte	$D7
	.byte	$D7
	.byte	$D7
	.byte	$E7
	.byte	$DB
	.byte	$DB
	.byte	$DB
	.byte	$DB
	.byte	$DB
	.byte	$DB
	.byte	$DB
	.byte	$DB
	.byte	$DB
	.byte	$DB
	.byte	$DB
	.byte	$DB
	.byte	$DB
	.byte	$DB
	.byte	$DB
	.byte	$DB
	.byte	$DB
	.byte	$DB
	.byte	$DB
	.byte	$DB
	.byte	$DB
	.byte	$DB
	.byte	$DB
	.byte	$DB
	.byte	$DB
	.byte	$DB
	.byte	$DB
	.byte	$DB
	.byte	$E4
	.byte	$D7
	.byte	$D7
	.byte	$D1
	.byte	$00
	.byte	$00
	.byte	$00
	.byte	$00
	.byte	$00
	.byte	$00
	.byte	$00
	.byte	$00
	.byte	$00
	.byte	$00
	.byte	$00
	.byte	$00
	.byte	$00
	.byte	$00
	.byte	$00
	.byte	$00
	.byte	$00
	.byte	$F3
	.byte	$F3
	.byte	$F3
	.byte	$F3
	.byte	$F3
	.byte	$F3
	.byte	$00
	.byte	$00
	.byte	$00
	.byte	$00
	.byte	$00
	.byte	$D0
	.byte	$D7
	.byte	$D7
	.byte	$D1
	.byte	$00
	.byte	$00
	.byte	$00
	.byte	$00
	.byte	$00
	.byte	$00
	.byte	$00
	.byte	$00
	.byte	$00
	.byte	$00
	.byte	$00
	.byte	$00
	.byte	$00
	.byte	$00
	.byte	$00
	.byte	$00
	.byte	$00
	.byte	$F3
	.byte	$F3
	.byte	$F2
	.byte	$F2
	.byte	$F3
	.byte	$F3
	.byte	$00
	.byte	$00
	.byte	$00
	.byte	$00
	.byte	$00
	.byte	$D0
	.byte	$D7
	.byte	$D7
	.byte	$D1
	.byte	$00
	.byte	$00
	.byte	$00
	.byte	$00
	.byte	$00
	.byte	$00
	.byte	$00
	.byte	$00
	.byte	$00
	.byte	$00
	.byte	$00
	.byte	$00
	.byte	$00
	.byte	$00
	.byte	$00
	.byte	$00
	.byte	$00
	.byte	$F3
	.byte	$F2
	.byte	$F3
	.byte	$F3
	.byte	$F2
	.byte	$F3
	.byte	$00
	.byte	$00
	.byte	$00
	.byte	$00
	.byte	$00
	.byte	$D0
	.byte	$D7
	.byte	$D7
	.byte	$D1
	.byte	$00
	.byte	$00
	.byte	$00
	.byte	$00
	.byte	$00
	.byte	$00
	.byte	$00
	.byte	$00
	.byte	$00
	.byte	$00
	.byte	$00
	.byte	$00
	.byte	$00
	.byte	$00
	.byte	$00
	.byte	$00
	.byte	$00
	.byte	$F3
	.byte	$F3
	.byte	$F3
	.byte	$F3
	.byte	$F2
	.byte	$F3
	.byte	$00
	.byte	$00
	.byte	$00
	.byte	$00
	.byte	$00
	.byte	$D0
	.byte	$D7
	.byte	$D7
	.byte	$D1
	.byte	$00
	.byte	$00
	.byte	$00
	.byte	$00
	.byte	$00
	.byte	$00
	.byte	$00
	.byte	$00
	.byte	$00
	.byte	$00
	.byte	$00
	.byte	$00
	.byte	$00
	.byte	$00
	.byte	$00
	.byte	$00
	.byte	$00
	.byte	$F3
	.byte	$F3
	.byte	$F2
	.byte	$F2
	.byte	$F3
	.byte	$F3
	.byte	$00
	.byte	$00
	.byte	$00
	.byte	$00
	.byte	$00
	.byte	$D0
	.byte	$D7
	.byte	$D7
	.byte	$D1
	.byte	$00
	.byte	$00
	.byte	$00
	.byte	$00
	.byte	$00
	.byte	$00
	.byte	$00
	.byte	$00
	.byte	$00
	.byte	$00
	.byte	$00
	.byte	$00
	.byte	$00
	.byte	$00
	.byte	$00
	.byte	$00
	.byte	$00
	.byte	$F3
	.byte	$F3
	.byte	$F3
	.byte	$F3
	.byte	$F2
	.byte	$F3
	.byte	$00
	.byte	$00
	.byte	$00
	.byte	$00
	.byte	$00
	.byte	$D0
	.byte	$D7
	.byte	$D7
	.byte	$D1
	.byte	$00
	.byte	$00
	.byte	$00
	.byte	$00
	.byte	$00
	.byte	$00
	.byte	$00
	.byte	$00
	.byte	$00
	.byte	$00
	.byte	$00
	.byte	$00
	.byte	$00
	.byte	$00
	.byte	$00
	.byte	$00
	.byte	$00
	.byte	$F3
	.byte	$F2
	.byte	$F3
	.byte	$F3
	.byte	$F2
	.byte	$F3
	.byte	$00
	.byte	$00
	.byte	$00
	.byte	$00
	.byte	$00
	.byte	$D0
	.byte	$D7
	.byte	$D7
	.byte	$D1
	.byte	$00
	.byte	$00
	.byte	$00
	.byte	$00
	.byte	$00
	.byte	$00
	.byte	$00
	.byte	$00
	.byte	$00
	.byte	$00
	.byte	$00
	.byte	$00
	.byte	$00
	.byte	$00
	.byte	$00
	.byte	$00
	.byte	$00
	.byte	$F3
	.byte	$F3
	.byte	$F2
	.byte	$F2
	.byte	$F3
	.byte	$F3
	.byte	$00
	.byte	$00
	.byte	$00
	.byte	$00
	.byte	$00
	.byte	$D0
	.byte	$D7
	.byte	$D7
	.byte	$D1
	.byte	$00
	.byte	$00
	.byte	$00
	.byte	$00
	.byte	$00
	.byte	$00
	.byte	$00
	.byte	$00
	.byte	$00
	.byte	$00
	.byte	$00
	.byte	$00
	.byte	$00
	.byte	$00
	.byte	$00
	.byte	$00
	.byte	$00
	.byte	$F3
	.byte	$F3
	.byte	$F3
	.byte	$F3
	.byte	$F3
	.byte	$F3
	.byte	$00
	.byte	$00
	.byte	$00
	.byte	$00
	.byte	$00
	.byte	$D0
	.byte	$D7
	.byte	$D7
	.byte	$D1
	.byte	$00
	.byte	$00
	.byte	$00
	.byte	$00
	.byte	$00
	.byte	$00
	.byte	$00
	.byte	$00
	.byte	$00
	.byte	$00
	.byte	$00
	.byte	$00
	.byte	$00
	.byte	$00
	.byte	$00
	.byte	$00
	.byte	$00
	.byte	$00
	.byte	$00
	.byte	$00
	.byte	$00
	.byte	$00
	.byte	$00
	.byte	$00
	.byte	$00
	.byte	$00
	.byte	$00
	.byte	$00
	.byte	$D0
	.byte	$D7
	.byte	$D7
	.byte	$D1
	.byte	$00
	.byte	$00
	.byte	$00
	.byte	$00
	.byte	$00
	.byte	$00
	.byte	$00
	.byte	$00
	.byte	$00
	.byte	$00
	.byte	$00
	.byte	$00
	.byte	$00
	.byte	$00
	.byte	$00
	.byte	$00
	.byte	$00
	.byte	$00
	.byte	$00
	.byte	$00
	.byte	$00
	.byte	$00
	.byte	$00
	.byte	$00
	.byte	$00
	.byte	$00
	.byte	$00
	.byte	$00
	.byte	$D0
	.byte	$D7
	.byte	$D7
	.byte	$D1
	.byte	$00
	.byte	$00
	.byte	$00
	.byte	$00
	.byte	$00
	.byte	$00
	.byte	$00
	.byte	$00
	.byte	$00
	.byte	$00
	.byte	$00
	.byte	$00
	.byte	$00
	.byte	$00
	.byte	$00
	.byte	$00
	.byte	$00
	.byte	$00
	.byte	$00
	.byte	$00
	.byte	$00
	.byte	$00
	.byte	$00
	.byte	$00
	.byte	$00
	.byte	$00
	.byte	$00
	.byte	$00
	.byte	$D0
	.byte	$D7
	.byte	$D7
	.byte	$D1
	.byte	$00
	.byte	$00
	.byte	$00
	.byte	$00
	.byte	$00
	.byte	$00
	.byte	$00
	.byte	$00
	.byte	$00
	.byte	$00
	.byte	$00
	.byte	$00
	.byte	$00
	.byte	$00
	.byte	$00
	.byte	$00
	.byte	$00
	.byte	$00
	.byte	$00
	.byte	$00
	.byte	$00
	.byte	$00
	.byte	$00
	.byte	$00
	.byte	$00
	.byte	$00
	.byte	$00
	.byte	$00
	.byte	$D0
	.byte	$D7
	.byte	$D7
	.byte	$D1
	.byte	$00
	.byte	$00
	.byte	$00
	.byte	$00
	.byte	$00
	.byte	$00
	.byte	$00
	.byte	$00
	.byte	$00
	.byte	$00
	.byte	$00
	.byte	$00
	.byte	$00
	.byte	$00
	.byte	$00
	.byte	$00
	.byte	$00
	.byte	$00
	.byte	$00
	.byte	$00
	.byte	$00
	.byte	$00
	.byte	$00
	.byte	$00
	.byte	$00
	.byte	$00
	.byte	$00
	.byte	$00
	.byte	$D0
	.byte	$D7
	.byte	$D7
	.byte	$D1
	.byte	$00
	.byte	$00
	.byte	$00
	.byte	$00
	.byte	$00
	.byte	$00
	.byte	$00
	.byte	$00
	.byte	$00
	.byte	$00
	.byte	$00
	.byte	$00
	.byte	$00
	.byte	$00
	.byte	$00
	.byte	$00
	.byte	$00
	.byte	$00
	.byte	$00
	.byte	$00
	.byte	$00
	.byte	$00
	.byte	$00
	.byte	$00
	.byte	$00
	.byte	$00
	.byte	$00
	.byte	$00
	.byte	$D0
	.byte	$D7
	.byte	$D7
	.byte	$D1
	.byte	$00
	.byte	$00
	.byte	$00
	.byte	$00
	.byte	$00
	.byte	$00
	.byte	$00
	.byte	$00
	.byte	$00
	.byte	$00
	.byte	$00
	.byte	$00
	.byte	$00
	.byte	$00
	.byte	$00
	.byte	$00
	.byte	$00
	.byte	$00
	.byte	$00
	.byte	$00
	.byte	$00
	.byte	$00
	.byte	$00
	.byte	$00
	.byte	$00
	.byte	$00
	.byte	$00
	.byte	$00
	.byte	$D0
	.byte	$D7
	.byte	$D7
	.byte	$D1
	.byte	$00
	.byte	$00
	.byte	$00
	.byte	$00
	.byte	$00
	.byte	$00
	.byte	$00
	.byte	$00
	.byte	$00
	.byte	$00
	.byte	$00
	.byte	$00
	.byte	$00
	.byte	$00
	.byte	$00
	.byte	$00
	.byte	$00
	.byte	$00
	.byte	$00
	.byte	$00
	.byte	$00
	.byte	$00
	.byte	$00
	.byte	$00
	.byte	$00
	.byte	$00
	.byte	$00
	.byte	$00
	.byte	$D0
	.byte	$D7
	.byte	$D7
	.byte	$D1
	.byte	$00
	.byte	$00
	.byte	$00
	.byte	$00
	.byte	$00
	.byte	$00
	.byte	$00
	.byte	$00
	.byte	$00
	.byte	$00
	.byte	$00
	.byte	$00
	.byte	$00
	.byte	$00
	.byte	$00
	.byte	$00
	.byte	$00
	.byte	$00
	.byte	$00
	.byte	$00
	.byte	$00
	.byte	$00
	.byte	$00
	.byte	$00
	.byte	$00
	.byte	$00
	.byte	$00
	.byte	$00
	.byte	$D0
	.byte	$D7
	.byte	$D7
	.byte	$D1
	.byte	$00
	.byte	$00
	.byte	$00
	.byte	$00
	.byte	$00
	.byte	$00
	.byte	$00
	.byte	$00
	.byte	$00
	.byte	$00
	.byte	$00
	.byte	$00
	.byte	$00
	.byte	$00
	.byte	$00
	.byte	$00
	.byte	$00
	.byte	$00
	.byte	$00
	.byte	$00
	.byte	$00
	.byte	$00
	.byte	$00
	.byte	$00
	.byte	$00
	.byte	$00
	.byte	$00
	.byte	$00
	.byte	$D0
	.byte	$D7
	.byte	$D7
	.byte	$C6
	.byte	$AB
	.byte	$AB
	.byte	$AB
	.byte	$AB
	.byte	$AB
	.byte	$AB
	.byte	$AB
	.byte	$AB
	.byte	$AB
	.byte	$AB
	.byte	$AB
	.byte	$AB
	.byte	$AB
	.byte	$AB
	.byte	$AB
	.byte	$AB
	.byte	$AB
	.byte	$AB
	.byte	$AB
	.byte	$AB
	.byte	$AB
	.byte	$AB
	.byte	$AB
	.byte	$AB
	.byte	$AB
	.byte	$AB
	.byte	$AB
	.byte	$AB
	.byte	$E3
	.byte	$D7
	.byte	$D7
	.byte	$08
	.byte	$00
	.byte	$00
	.byte	$00
	.byte	$00
	.byte	$00
	.byte	$80
	.byte	$00
	.byte	$00
	.byte	$00
	.byte	$00
	.byte	$00
	.byte	$00
	.byte	$00
	.byte	$00
	.byte	$00
	.byte	$00
	.byte	$00
	.byte	$00
	.byte	$00
	.byte	$00
	.byte	$00
	.byte	$00
	.byte	$00
	.byte	$00
	.byte	$00
	.byte	$00
	.byte	$00
	.byte	$00
	.byte	$02
	.byte	$D7
	.byte	$D7
	.byte	$08
	.byte	$00
	.byte	$00
	.byte	$00
	.byte	$00
	.byte	$00
	.byte	$80
	.byte	$00
	.byte	$00
	.byte	$00
	.byte	$00
	.byte	$00
	.byte	$00
	.byte	$00
	.byte	$00
	.byte	$00
	.byte	$00
	.byte	$00
	.byte	$00
	.byte	$00
	.byte	$00
	.byte	$00
	.byte	$00
	.byte	$00
	.byte	$00
	.byte	$00
	.byte	$00
	.byte	$00
	.byte	$00
	.byte	$02
	.byte	$D7
	.byte	$D7
	.byte	$08
	.byte	$00
	.byte	$00
	.byte	$00
	.byte	$00
	.byte	$00
	.byte	$80
	.byte	$00
	.byte	$00
	.byte	$00
	.byte	$00
	.byte	$00
	.byte	$00
	.byte	$00
	.byte	$00
	.byte	$00
	.byte	$00
	.byte	$00
	.byte	$00
	.byte	$00
	.byte	$00
	.byte	$00
	.byte	$00
	.byte	$00
	.byte	$00
	.byte	$00
	.byte	$00
	.byte	$00
	.byte	$00
	.byte	$02
	.byte	$D7
	.byte	$D7
	.byte	$08
	.byte	$00
	.byte	$00
	.byte	$00
	.byte	$00
	.byte	$00
	.byte	$80
	.byte	$00
	.byte	$00
	.byte	$00
	.byte	$00
	.byte	$00
	.byte	$00
	.byte	$00
	.byte	$00
	.byte	$00
	.byte	$00
	.byte	$00
	.byte	$00
	.byte	$00
	.byte	$00
	.byte	$00
	.byte	$00
	.byte	$00
	.byte	$00
	.byte	$00
	.byte	$00
	.byte	$00
	.byte	$00
	.byte	$02
	.byte	$D7
	.byte	$D7
	.byte	$08
	.byte	$00
	.byte	$00
	.byte	$00
	.byte	$00
	.byte	$00
	.byte	$80
	.byte	$00
	.byte	$00
	.byte	$00
	.byte	$00
	.byte	$00
	.byte	$00
	.byte	$00
	.byte	$00
	.byte	$00
	.byte	$00
	.byte	$00
	.byte	$00
	.byte	$00
	.byte	$00
	.byte	$00
	.byte	$E8
	.byte	$E9
	.byte	$00
	.byte	$00
	.byte	$00
	.byte	$00
	.byte	$00
	.byte	$02
	.byte	$D7
	.byte	$D7
	.byte	$08
	.byte	$00
	.byte	$00
	.byte	$00
	.byte	$00
	.byte	$00
	.byte	$80
	.byte	$00
	.byte	$00
	.byte	$00
	.byte	$00
	.byte	$00
	.byte	$00
	.byte	$00
	.byte	$00
	.byte	$00
	.byte	$00
	.byte	$00
	.byte	$00
	.byte	$00
	.byte	$00
	.byte	$00
	.byte	$F8
	.byte	$F9
	.byte	$00
	.byte	$00
	.byte	$00
	.byte	$00
	.byte	$00
	.byte	$02
	.byte	$D7
	.byte	$D7
	.byte	$E5
	.byte	$AA
	.byte	$AA
	.byte	$AA
	.byte	$AA
	.byte	$AA
	.byte	$AA
	.byte	$AA
	.byte	$AA
	.byte	$AA
	.byte	$AA
	.byte	$AA
	.byte	$AA
	.byte	$AA
	.byte	$AA
	.byte	$AA
	.byte	$AA
	.byte	$AA
	.byte	$AA
	.byte	$AA
	.byte	$AA
	.byte	$AA
	.byte	$AA
	.byte	$AA
	.byte	$AA
	.byte	$AA
	.byte	$AA
	.byte	$AA
	.byte	$AA
	.byte	$E6
	.byte	$D7
	.byte	$D7
	.byte	$D7
	.byte	$D7
	.byte	$D7
	.byte	$D7
	.byte	$D7
	.byte	$D7
	.byte	$D7
	.byte	$D7
	.byte	$D7
	.byte	$D7
	.byte	$D7
	.byte	$D7
	.byte	$D7
	.byte	$D7
	.byte	$D7
	.byte	$D7
	.byte	$D7
	.byte	$D7
	.byte	$D7
	.byte	$D7
	.byte	$D7
	.byte	$D7
	.byte	$D7
	.byte	$D7
	.byte	$D7
	.byte	$D7
	.byte	$D7
	.byte	$D7
	.byte	$D7
	.byte	$D7
	.byte	$D7
	.byte	$AA
	.byte	$AA
	.byte	$AA
	.byte	$AA
	.byte	$AA
	.byte	$AA
	.byte	$AA
	.byte	$AA
	.byte	$AA
	.byte	$AA
	.byte	$AA
	.byte	$AA
	.byte	$AA
	.byte	$AA
	.byte	$AA
	.byte	$AA
	.byte	$AA
	.byte	$AA
	.byte	$AA
	.byte	$AA
	.byte	$AA
	.byte	$AA
	.byte	$AA
	.byte	$AA
	.byte	$AA
	.byte	$AA
	.byte	$AA
	.byte	$AA
	.byte	$AA
	.byte	$AA
	.byte	$AA
	.byte	$AA
	.byte	$AA
	.byte	$AA
	.byte	$AA
	.byte	$AA
	.byte	$AA
	.byte	$AA
	.byte	$AA
	.byte	$AA
	.byte	$AA
	.byte	$2A
	.byte	$AA
	.byte	$AA
	.byte	$AA
	.byte	$AA
	.byte	$AA
	.byte	$AA
	.byte	$AA
	.byte	$22
	.byte	$AA
	.byte	$2A
	.byte	$AA
	.byte	$EA
	.byte	$BA
	.byte	$AA
	.byte	$0A
	.byte	$0A
	.byte	$0A
	.byte	$0A
	.byte	$0A
	.byte	$0A
	.byte	$0A
	.byte	$0A
_levelFourData:
	.byte	$D7
	.byte	$D7
	.byte	$D7
	.byte	$D7
	.byte	$D7
	.byte	$D7
	.byte	$D7
	.byte	$D7
	.byte	$D7
	.byte	$D7
	.byte	$D7
	.byte	$D7
	.byte	$D7
	.byte	$D7
	.byte	$D7
	.byte	$D7
	.byte	$D7
	.byte	$D7
	.byte	$D7
	.byte	$D7
	.byte	$D7
	.byte	$D7
	.byte	$D7
	.byte	$D7
	.byte	$D7
	.byte	$D7
	.byte	$D7
	.byte	$D7
	.byte	$D7
	.byte	$D7
	.byte	$D7
	.byte	$D7
	.byte	$D7
	.byte	$E7
	.byte	$03
	.byte	$03
	.byte	$03
	.byte	$03
	.byte	$03
	.byte	$DB
	.byte	$DB
	.byte	$DB
	.byte	$DB
	.byte	$DB
	.byte	$DB
	.byte	$DB
	.byte	$DB
	.byte	$DB
	.byte	$DB
	.byte	$DB
	.byte	$DB
	.byte	$DB
	.byte	$DB
	.byte	$DB
	.byte	$DB
	.byte	$DB
	.byte	$DB
	.byte	$DB
	.byte	$DB
	.byte	$DB
	.byte	$DB
	.byte	$DB
	.byte	$E4
	.byte	$D7
	.byte	$D7
	.byte	$D1
	.byte	$00
	.byte	$00
	.byte	$00
	.byte	$00
	.byte	$00
	.byte	$80
	.byte	$00
	.byte	$00
	.byte	$00
	.byte	$00
	.byte	$00
	.byte	$00
	.byte	$00
	.byte	$00
	.byte	$00
	.byte	$00
	.byte	$00
	.byte	$F3
	.byte	$F3
	.byte	$F3
	.byte	$F3
	.byte	$F3
	.byte	$F3
	.byte	$00
	.byte	$00
	.byte	$00
	.byte	$00
	.byte	$00
	.byte	$D0
	.byte	$D7
	.byte	$D7
	.byte	$D1
	.byte	$00
	.byte	$00
	.byte	$00
	.byte	$00
	.byte	$00
	.byte	$80
	.byte	$00
	.byte	$00
	.byte	$00
	.byte	$00
	.byte	$00
	.byte	$00
	.byte	$00
	.byte	$00
	.byte	$00
	.byte	$00
	.byte	$00
	.byte	$F3
	.byte	$F3
	.byte	$F3
	.byte	$F2
	.byte	$F3
	.byte	$F3
	.byte	$00
	.byte	$00
	.byte	$00
	.byte	$00
	.byte	$00
	.byte	$D0
	.byte	$D7
	.byte	$D7
	.byte	$D1
	.byte	$00
	.byte	$00
	.byte	$00
	.byte	$00
	.byte	$00
	.byte	$80
	.byte	$00
	.byte	$00
	.byte	$00
	.byte	$00
	.byte	$00
	.byte	$00
	.byte	$00
	.byte	$00
	.byte	$00
	.byte	$00
	.byte	$00
	.byte	$F3
	.byte	$F3
	.byte	$F2
	.byte	$F2
	.byte	$F3
	.byte	$F3
	.byte	$00
	.byte	$00
	.byte	$00
	.byte	$00
	.byte	$00
	.byte	$D0
	.byte	$D7
	.byte	$D7
	.byte	$D1
	.byte	$00
	.byte	$00
	.byte	$00
	.byte	$00
	.byte	$00
	.byte	$80
	.byte	$00
	.byte	$00
	.byte	$00
	.byte	$00
	.byte	$00
	.byte	$00
	.byte	$00
	.byte	$00
	.byte	$00
	.byte	$00
	.byte	$00
	.byte	$F3
	.byte	$F2
	.byte	$F3
	.byte	$F2
	.byte	$F3
	.byte	$F3
	.byte	$00
	.byte	$00
	.byte	$00
	.byte	$00
	.byte	$00
	.byte	$D0
	.byte	$D7
	.byte	$D7
	.byte	$D1
	.byte	$00
	.byte	$00
	.byte	$00
	.byte	$00
	.byte	$00
	.byte	$80
	.byte	$00
	.byte	$00
	.byte	$00
	.byte	$00
	.byte	$00
	.byte	$00
	.byte	$00
	.byte	$00
	.byte	$00
	.byte	$00
	.byte	$00
	.byte	$F3
	.byte	$F2
	.byte	$F2
	.byte	$F2
	.byte	$F2
	.byte	$F3
	.byte	$00
	.byte	$00
	.byte	$00
	.byte	$00
	.byte	$00
	.byte	$D0
	.byte	$D7
	.byte	$D7
	.byte	$D1
	.byte	$00
	.byte	$00
	.byte	$00
	.byte	$00
	.byte	$00
	.byte	$80
	.byte	$00
	.byte	$00
	.byte	$00
	.byte	$00
	.byte	$00
	.byte	$00
	.byte	$00
	.byte	$00
	.byte	$00
	.byte	$00
	.byte	$00
	.byte	$F3
	.byte	$F3
	.byte	$F3
	.byte	$F2
	.byte	$F3
	.byte	$F3
	.byte	$00
	.byte	$00
	.byte	$00
	.byte	$00
	.byte	$00
	.byte	$D0
	.byte	$D7
	.byte	$D7
	.byte	$D1
	.byte	$00
	.byte	$00
	.byte	$00
	.byte	$00
	.byte	$00
	.byte	$80
	.byte	$00
	.byte	$00
	.byte	$00
	.byte	$00
	.byte	$00
	.byte	$00
	.byte	$00
	.byte	$00
	.byte	$00
	.byte	$00
	.byte	$00
	.byte	$F3
	.byte	$F3
	.byte	$F3
	.byte	$F2
	.byte	$F3
	.byte	$F3
	.byte	$00
	.byte	$00
	.byte	$00
	.byte	$00
	.byte	$00
	.byte	$D0
	.byte	$D7
	.byte	$D7
	.byte	$D1
	.byte	$00
	.byte	$00
	.byte	$00
	.byte	$00
	.byte	$00
	.byte	$80
	.byte	$00
	.byte	$00
	.byte	$00
	.byte	$00
	.byte	$00
	.byte	$00
	.byte	$00
	.byte	$00
	.byte	$00
	.byte	$00
	.byte	$00
	.byte	$F3
	.byte	$F3
	.byte	$F3
	.byte	$F3
	.byte	$F3
	.byte	$F3
	.byte	$00
	.byte	$00
	.byte	$00
	.byte	$00
	.byte	$00
	.byte	$D0
	.byte	$D7
	.byte	$D7
	.byte	$D1
	.byte	$00
	.byte	$00
	.byte	$00
	.byte	$00
	.byte	$00
	.byte	$80
	.byte	$00
	.byte	$00
	.byte	$00
	.byte	$00
	.byte	$00
	.byte	$00
	.byte	$00
	.byte	$00
	.byte	$00
	.byte	$00
	.byte	$00
	.byte	$00
	.byte	$00
	.byte	$00
	.byte	$00
	.byte	$00
	.byte	$00
	.byte	$00
	.byte	$00
	.byte	$00
	.byte	$00
	.byte	$00
	.byte	$D0
	.byte	$D7
	.byte	$D7
	.byte	$D1
	.byte	$00
	.byte	$00
	.byte	$00
	.byte	$00
	.byte	$00
	.byte	$80
	.byte	$00
	.byte	$00
	.byte	$00
	.byte	$00
	.byte	$00
	.byte	$00
	.byte	$00
	.byte	$00
	.byte	$00
	.byte	$00
	.byte	$00
	.byte	$00
	.byte	$00
	.byte	$00
	.byte	$00
	.byte	$00
	.byte	$00
	.byte	$00
	.byte	$00
	.byte	$00
	.byte	$00
	.byte	$00
	.byte	$D0
	.byte	$D7
	.byte	$D7
	.byte	$D1
	.byte	$00
	.byte	$00
	.byte	$00
	.byte	$00
	.byte	$00
	.byte	$80
	.byte	$00
	.byte	$00
	.byte	$00
	.byte	$00
	.byte	$00
	.byte	$00
	.byte	$00
	.byte	$00
	.byte	$00
	.byte	$00
	.byte	$00
	.byte	$00
	.byte	$00
	.byte	$00
	.byte	$00
	.byte	$00
	.byte	$00
	.byte	$00
	.byte	$00
	.byte	$00
	.byte	$00
	.byte	$00
	.byte	$D0
	.byte	$D7
	.byte	$D7
	.byte	$D1
	.byte	$00
	.byte	$00
	.byte	$00
	.byte	$00
	.byte	$00
	.byte	$80
	.byte	$00
	.byte	$00
	.byte	$00
	.byte	$00
	.byte	$00
	.byte	$00
	.byte	$00
	.byte	$00
	.byte	$00
	.byte	$00
	.byte	$00
	.byte	$00
	.byte	$00
	.byte	$00
	.byte	$00
	.byte	$00
	.byte	$00
	.byte	$00
	.byte	$00
	.byte	$00
	.byte	$00
	.byte	$00
	.byte	$D0
	.byte	$D7
	.byte	$D7
	.byte	$D1
	.byte	$00
	.byte	$00
	.byte	$00
	.byte	$00
	.byte	$00
	.byte	$80
	.byte	$00
	.byte	$00
	.byte	$00
	.byte	$00
	.byte	$00
	.byte	$00
	.byte	$00
	.byte	$00
	.byte	$00
	.byte	$00
	.byte	$00
	.byte	$00
	.byte	$00
	.byte	$00
	.byte	$00
	.byte	$00
	.byte	$00
	.byte	$00
	.byte	$00
	.byte	$00
	.byte	$00
	.byte	$00
	.byte	$D0
	.byte	$D7
	.byte	$D7
	.byte	$D1
	.byte	$00
	.byte	$00
	.byte	$00
	.byte	$00
	.byte	$00
	.byte	$80
	.byte	$00
	.byte	$00
	.byte	$00
	.byte	$00
	.byte	$00
	.byte	$00
	.byte	$00
	.byte	$00
	.byte	$00
	.byte	$00
	.byte	$00
	.byte	$00
	.byte	$00
	.byte	$00
	.byte	$00
	.byte	$00
	.byte	$00
	.byte	$00
	.byte	$00
	.byte	$00
	.byte	$00
	.byte	$00
	.byte	$D0
	.byte	$D7
	.byte	$D7
	.byte	$D1
	.byte	$00
	.byte	$00
	.byte	$00
	.byte	$00
	.byte	$00
	.byte	$80
	.byte	$00
	.byte	$00
	.byte	$00
	.byte	$00
	.byte	$00
	.byte	$00
	.byte	$00
	.byte	$00
	.byte	$00
	.byte	$00
	.byte	$00
	.byte	$00
	.byte	$00
	.byte	$00
	.byte	$00
	.byte	$00
	.byte	$00
	.byte	$00
	.byte	$00
	.byte	$00
	.byte	$00
	.byte	$00
	.byte	$02
	.byte	$D7
	.byte	$D7
	.byte	$D1
	.byte	$00
	.byte	$00
	.byte	$00
	.byte	$00
	.byte	$00
	.byte	$80
	.byte	$00
	.byte	$00
	.byte	$00
	.byte	$00
	.byte	$00
	.byte	$00
	.byte	$00
	.byte	$00
	.byte	$00
	.byte	$00
	.byte	$00
	.byte	$00
	.byte	$00
	.byte	$00
	.byte	$00
	.byte	$00
	.byte	$00
	.byte	$00
	.byte	$00
	.byte	$00
	.byte	$00
	.byte	$00
	.byte	$02
	.byte	$D7
	.byte	$D7
	.byte	$D1
	.byte	$81
	.byte	$81
	.byte	$00
	.byte	$81
	.byte	$81
	.byte	$81
	.byte	$00
	.byte	$00
	.byte	$00
	.byte	$00
	.byte	$00
	.byte	$00
	.byte	$00
	.byte	$00
	.byte	$00
	.byte	$00
	.byte	$00
	.byte	$00
	.byte	$00
	.byte	$00
	.byte	$00
	.byte	$00
	.byte	$00
	.byte	$00
	.byte	$00
	.byte	$00
	.byte	$00
	.byte	$00
	.byte	$02
	.byte	$D7
	.byte	$D7
	.byte	$D1
	.byte	$00
	.byte	$00
	.byte	$00
	.byte	$00
	.byte	$00
	.byte	$81
	.byte	$00
	.byte	$00
	.byte	$00
	.byte	$00
	.byte	$00
	.byte	$00
	.byte	$00
	.byte	$00
	.byte	$00
	.byte	$00
	.byte	$00
	.byte	$00
	.byte	$00
	.byte	$00
	.byte	$00
	.byte	$00
	.byte	$00
	.byte	$00
	.byte	$00
	.byte	$00
	.byte	$00
	.byte	$00
	.byte	$02
	.byte	$D7
	.byte	$D7
	.byte	$D1
	.byte	$00
	.byte	$00
	.byte	$00
	.byte	$00
	.byte	$00
	.byte	$81
	.byte	$00
	.byte	$00
	.byte	$00
	.byte	$00
	.byte	$00
	.byte	$00
	.byte	$00
	.byte	$00
	.byte	$00
	.byte	$00
	.byte	$00
	.byte	$00
	.byte	$00
	.byte	$00
	.byte	$00
	.byte	$00
	.byte	$00
	.byte	$00
	.byte	$00
	.byte	$00
	.byte	$00
	.byte	$00
	.byte	$02
	.byte	$D7
	.byte	$D7
	.byte	$C6
	.byte	$AB
	.byte	$A8
	.byte	$00
	.byte	$B8
	.byte	$AB
	.byte	$AB
	.byte	$AB
	.byte	$AB
	.byte	$AB
	.byte	$AB
	.byte	$AB
	.byte	$AB
	.byte	$AB
	.byte	$AB
	.byte	$AB
	.byte	$AB
	.byte	$AB
	.byte	$AB
	.byte	$AB
	.byte	$AB
	.byte	$AB
	.byte	$AB
	.byte	$A8
	.byte	$80
	.byte	$80
	.byte	$80
	.byte	$B8
	.byte	$AB
	.byte	$E3
	.byte	$D7
	.byte	$D7
	.byte	$08
	.byte	$00
	.byte	$00
	.byte	$00
	.byte	$00
	.byte	$00
	.byte	$81
	.byte	$00
	.byte	$00
	.byte	$00
	.byte	$00
	.byte	$00
	.byte	$00
	.byte	$80
	.byte	$00
	.byte	$00
	.byte	$00
	.byte	$00
	.byte	$00
	.byte	$00
	.byte	$00
	.byte	$00
	.byte	$00
	.byte	$00
	.byte	$00
	.byte	$00
	.byte	$00
	.byte	$00
	.byte	$00
	.byte	$02
	.byte	$D7
	.byte	$D7
	.byte	$08
	.byte	$00
	.byte	$00
	.byte	$00
	.byte	$00
	.byte	$00
	.byte	$81
	.byte	$00
	.byte	$00
	.byte	$00
	.byte	$00
	.byte	$00
	.byte	$00
	.byte	$80
	.byte	$00
	.byte	$00
	.byte	$00
	.byte	$00
	.byte	$00
	.byte	$00
	.byte	$00
	.byte	$00
	.byte	$00
	.byte	$00
	.byte	$00
	.byte	$00
	.byte	$00
	.byte	$00
	.byte	$00
	.byte	$02
	.byte	$D7
	.byte	$D7
	.byte	$08
	.byte	$00
	.byte	$00
	.byte	$00
	.byte	$00
	.byte	$00
	.byte	$81
	.byte	$00
	.byte	$00
	.byte	$00
	.byte	$00
	.byte	$00
	.byte	$00
	.byte	$80
	.byte	$00
	.byte	$00
	.byte	$00
	.byte	$00
	.byte	$00
	.byte	$00
	.byte	$00
	.byte	$00
	.byte	$00
	.byte	$00
	.byte	$00
	.byte	$00
	.byte	$00
	.byte	$00
	.byte	$00
	.byte	$02
	.byte	$D7
	.byte	$D7
	.byte	$08
	.byte	$00
	.byte	$00
	.byte	$00
	.byte	$00
	.byte	$00
	.byte	$81
	.byte	$00
	.byte	$00
	.byte	$00
	.byte	$00
	.byte	$00
	.byte	$00
	.byte	$80
	.byte	$00
	.byte	$00
	.byte	$00
	.byte	$00
	.byte	$00
	.byte	$00
	.byte	$00
	.byte	$00
	.byte	$00
	.byte	$00
	.byte	$00
	.byte	$00
	.byte	$00
	.byte	$00
	.byte	$00
	.byte	$02
	.byte	$D7
	.byte	$D7
	.byte	$08
	.byte	$00
	.byte	$00
	.byte	$00
	.byte	$00
	.byte	$00
	.byte	$81
	.byte	$00
	.byte	$00
	.byte	$00
	.byte	$00
	.byte	$00
	.byte	$00
	.byte	$80
	.byte	$00
	.byte	$E8
	.byte	$E9
	.byte	$00
	.byte	$00
	.byte	$00
	.byte	$00
	.byte	$00
	.byte	$00
	.byte	$00
	.byte	$00
	.byte	$00
	.byte	$00
	.byte	$00
	.byte	$00
	.byte	$02
	.byte	$D7
	.byte	$D7
	.byte	$08
	.byte	$00
	.byte	$00
	.byte	$00
	.byte	$00
	.byte	$00
	.byte	$81
	.byte	$00
	.byte	$00
	.byte	$00
	.byte	$00
	.byte	$00
	.byte	$00
	.byte	$80
	.byte	$00
	.byte	$F8
	.byte	$F9
	.byte	$00
	.byte	$00
	.byte	$00
	.byte	$00
	.byte	$00
	.byte	$00
	.byte	$00
	.byte	$00
	.byte	$00
	.byte	$00
	.byte	$00
	.byte	$00
	.byte	$02
	.byte	$D7
	.byte	$D7
	.byte	$E5
	.byte	$AA
	.byte	$AA
	.byte	$AA
	.byte	$AA
	.byte	$AA
	.byte	$AA
	.byte	$AA
	.byte	$AA
	.byte	$AA
	.byte	$AA
	.byte	$AA
	.byte	$AA
	.byte	$AA
	.byte	$AA
	.byte	$AA
	.byte	$AA
	.byte	$AA
	.byte	$AA
	.byte	$AA
	.byte	$AA
	.byte	$AA
	.byte	$AA
	.byte	$AA
	.byte	$AA
	.byte	$AA
	.byte	$AA
	.byte	$AA
	.byte	$AA
	.byte	$E6
	.byte	$D7
	.byte	$D7
	.byte	$D7
	.byte	$D7
	.byte	$D7
	.byte	$D7
	.byte	$D7
	.byte	$D7
	.byte	$D7
	.byte	$D7
	.byte	$D7
	.byte	$D7
	.byte	$D7
	.byte	$D7
	.byte	$D7
	.byte	$D7
	.byte	$D7
	.byte	$D7
	.byte	$D7
	.byte	$D7
	.byte	$D7
	.byte	$D7
	.byte	$D7
	.byte	$D7
	.byte	$D7
	.byte	$D7
	.byte	$D7
	.byte	$D7
	.byte	$D7
	.byte	$D7
	.byte	$D7
	.byte	$D7
	.byte	$D7
	.byte	$AA
	.byte	$2A
	.byte	$AA
	.byte	$AA
	.byte	$AA
	.byte	$AA
	.byte	$AA
	.byte	$AA
	.byte	$AA
	.byte	$22
	.byte	$AA
	.byte	$AA
	.byte	$AA
	.byte	$AA
	.byte	$AA
	.byte	$AA
	.byte	$AA
	.byte	$22
	.byte	$AA
	.byte	$AA
	.byte	$AA
	.byte	$AA
	.byte	$AA
	.byte	$AA
	.byte	$AA
	.byte	$22
	.byte	$AA
	.byte	$AA
	.byte	$AA
	.byte	$AA
	.byte	$AA
	.byte	$AA
	.byte	$6A
	.byte	$52
	.byte	$AA
	.byte	$AA
	.byte	$AA
	.byte	$AA
	.byte	$AA
	.byte	$AA
	.byte	$AA
	.byte	$66
	.byte	$AA
	.byte	$2A
	.byte	$AA
	.byte	$AA
	.byte	$A0
	.byte	$AA
	.byte	$AA
	.byte	$66
	.byte	$AA
	.byte	$22
	.byte	$BA
	.byte	$AA
	.byte	$AA
	.byte	$AA
	.byte	$0A
	.byte	$0A
	.byte	$0A
	.byte	$0A
	.byte	$0A
	.byte	$0A
	.byte	$0A
	.byte	$0A
_levelFiveData:
	.byte	$D7
	.byte	$D7
	.byte	$D7
	.byte	$D7
	.byte	$D7
	.byte	$D7
	.byte	$D7
	.byte	$D7
	.byte	$D7
	.byte	$D7
	.byte	$D7
	.byte	$D7
	.byte	$D7
	.byte	$D7
	.byte	$D7
	.byte	$D7
	.byte	$D7
	.byte	$D7
	.byte	$D7
	.byte	$D7
	.byte	$D7
	.byte	$D7
	.byte	$D7
	.byte	$D7
	.byte	$D7
	.byte	$D7
	.byte	$D7
	.byte	$D7
	.byte	$D7
	.byte	$D7
	.byte	$D7
	.byte	$D7
	.byte	$D7
	.byte	$05
	.byte	$03
	.byte	$03
	.byte	$03
	.byte	$03
	.byte	$03
	.byte	$03
	.byte	$03
	.byte	$03
	.byte	$03
	.byte	$03
	.byte	$DB
	.byte	$DB
	.byte	$DB
	.byte	$DB
	.byte	$DB
	.byte	$DB
	.byte	$DB
	.byte	$DB
	.byte	$DB
	.byte	$DB
	.byte	$DB
	.byte	$DB
	.byte	$DB
	.byte	$DB
	.byte	$DB
	.byte	$DB
	.byte	$DB
	.byte	$DB
	.byte	$E4
	.byte	$D7
	.byte	$D7
	.byte	$08
	.byte	$00
	.byte	$00
	.byte	$00
	.byte	$00
	.byte	$00
	.byte	$00
	.byte	$00
	.byte	$00
	.byte	$00
	.byte	$00
	.byte	$00
	.byte	$00
	.byte	$00
	.byte	$00
	.byte	$00
	.byte	$00
	.byte	$00
	.byte	$F3
	.byte	$F3
	.byte	$F3
	.byte	$F3
	.byte	$F3
	.byte	$F3
	.byte	$00
	.byte	$00
	.byte	$00
	.byte	$00
	.byte	$00
	.byte	$D0
	.byte	$D7
	.byte	$D7
	.byte	$08
	.byte	$00
	.byte	$00
	.byte	$00
	.byte	$00
	.byte	$00
	.byte	$00
	.byte	$00
	.byte	$00
	.byte	$00
	.byte	$00
	.byte	$00
	.byte	$00
	.byte	$00
	.byte	$00
	.byte	$00
	.byte	$00
	.byte	$00
	.byte	$F3
	.byte	$F2
	.byte	$F2
	.byte	$F2
	.byte	$F2
	.byte	$F3
	.byte	$00
	.byte	$00
	.byte	$00
	.byte	$00
	.byte	$00
	.byte	$D0
	.byte	$D7
	.byte	$D7
	.byte	$08
	.byte	$00
	.byte	$00
	.byte	$00
	.byte	$00
	.byte	$00
	.byte	$00
	.byte	$00
	.byte	$00
	.byte	$00
	.byte	$00
	.byte	$00
	.byte	$00
	.byte	$00
	.byte	$00
	.byte	$00
	.byte	$00
	.byte	$00
	.byte	$F3
	.byte	$F2
	.byte	$F3
	.byte	$F3
	.byte	$F3
	.byte	$F3
	.byte	$00
	.byte	$00
	.byte	$00
	.byte	$00
	.byte	$00
	.byte	$D0
	.byte	$D7
	.byte	$D7
	.byte	$08
	.byte	$00
	.byte	$00
	.byte	$00
	.byte	$00
	.byte	$00
	.byte	$00
	.byte	$00
	.byte	$00
	.byte	$00
	.byte	$00
	.byte	$00
	.byte	$00
	.byte	$00
	.byte	$00
	.byte	$00
	.byte	$00
	.byte	$00
	.byte	$F3
	.byte	$F2
	.byte	$F2
	.byte	$F2
	.byte	$F2
	.byte	$F3
	.byte	$00
	.byte	$00
	.byte	$00
	.byte	$00
	.byte	$00
	.byte	$D0
	.byte	$D7
	.byte	$D7
	.byte	$08
	.byte	$00
	.byte	$00
	.byte	$00
	.byte	$00
	.byte	$00
	.byte	$00
	.byte	$00
	.byte	$00
	.byte	$00
	.byte	$00
	.byte	$00
	.byte	$00
	.byte	$00
	.byte	$00
	.byte	$00
	.byte	$00
	.byte	$00
	.byte	$F3
	.byte	$F3
	.byte	$F3
	.byte	$F3
	.byte	$F2
	.byte	$F3
	.byte	$00
	.byte	$00
	.byte	$00
	.byte	$00
	.byte	$00
	.byte	$02
	.byte	$D7
	.byte	$D7
	.byte	$08
	.byte	$00
	.byte	$00
	.byte	$00
	.byte	$00
	.byte	$00
	.byte	$00
	.byte	$00
	.byte	$00
	.byte	$00
	.byte	$00
	.byte	$00
	.byte	$00
	.byte	$00
	.byte	$00
	.byte	$00
	.byte	$00
	.byte	$00
	.byte	$F3
	.byte	$F3
	.byte	$F3
	.byte	$F3
	.byte	$F2
	.byte	$F3
	.byte	$00
	.byte	$00
	.byte	$00
	.byte	$00
	.byte	$00
	.byte	$02
	.byte	$D7
	.byte	$D7
	.byte	$08
	.byte	$00
	.byte	$00
	.byte	$00
	.byte	$00
	.byte	$00
	.byte	$00
	.byte	$00
	.byte	$00
	.byte	$00
	.byte	$00
	.byte	$00
	.byte	$00
	.byte	$00
	.byte	$00
	.byte	$00
	.byte	$00
	.byte	$00
	.byte	$F3
	.byte	$F2
	.byte	$F2
	.byte	$F2
	.byte	$F3
	.byte	$F3
	.byte	$00
	.byte	$00
	.byte	$00
	.byte	$00
	.byte	$00
	.byte	$02
	.byte	$D7
	.byte	$D7
	.byte	$08
	.byte	$00
	.byte	$00
	.byte	$00
	.byte	$00
	.byte	$00
	.byte	$00
	.byte	$00
	.byte	$00
	.byte	$00
	.byte	$00
	.byte	$00
	.byte	$00
	.byte	$00
	.byte	$00
	.byte	$00
	.byte	$00
	.byte	$00
	.byte	$F3
	.byte	$F3
	.byte	$F3
	.byte	$F3
	.byte	$F3
	.byte	$F3
	.byte	$00
	.byte	$00
	.byte	$00
	.byte	$00
	.byte	$00
	.byte	$02
	.byte	$D7
	.byte	$D7
	.byte	$08
	.byte	$00
	.byte	$00
	.byte	$00
	.byte	$00
	.byte	$00
	.byte	$00
	.byte	$00
	.byte	$00
	.byte	$00
	.byte	$00
	.byte	$00
	.byte	$00
	.byte	$00
	.byte	$00
	.byte	$00
	.byte	$00
	.byte	$00
	.byte	$00
	.byte	$00
	.byte	$00
	.byte	$00
	.byte	$00
	.byte	$EA
	.byte	$EB
	.byte	$00
	.byte	$00
	.byte	$00
	.byte	$00
	.byte	$02
	.byte	$D7
	.byte	$D7
	.byte	$08
	.byte	$00
	.byte	$00
	.byte	$00
	.byte	$00
	.byte	$00
	.byte	$00
	.byte	$00
	.byte	$00
	.byte	$00
	.byte	$00
	.byte	$00
	.byte	$00
	.byte	$00
	.byte	$00
	.byte	$00
	.byte	$00
	.byte	$00
	.byte	$00
	.byte	$00
	.byte	$00
	.byte	$00
	.byte	$00
	.byte	$FA
	.byte	$FB
	.byte	$00
	.byte	$00
	.byte	$00
	.byte	$00
	.byte	$02
	.byte	$D7
	.byte	$D7
	.byte	$C6
	.byte	$AB
	.byte	$AB
	.byte	$AB
	.byte	$AB
	.byte	$AB
	.byte	$AB
	.byte	$00
	.byte	$00
	.byte	$00
	.byte	$00
	.byte	$00
	.byte	$00
	.byte	$00
	.byte	$00
	.byte	$00
	.byte	$00
	.byte	$00
	.byte	$00
	.byte	$00
	.byte	$00
	.byte	$00
	.byte	$B8
	.byte	$AB
	.byte	$AB
	.byte	$AB
	.byte	$AB
	.byte	$AB
	.byte	$AB
	.byte	$E3
	.byte	$D7
	.byte	$D7
	.byte	$D1
	.byte	$00
	.byte	$00
	.byte	$00
	.byte	$00
	.byte	$00
	.byte	$00
	.byte	$00
	.byte	$00
	.byte	$00
	.byte	$00
	.byte	$00
	.byte	$00
	.byte	$00
	.byte	$00
	.byte	$00
	.byte	$00
	.byte	$00
	.byte	$00
	.byte	$00
	.byte	$00
	.byte	$00
	.byte	$00
	.byte	$00
	.byte	$00
	.byte	$00
	.byte	$00
	.byte	$00
	.byte	$00
	.byte	$D0
	.byte	$D7
	.byte	$D7
	.byte	$D1
	.byte	$00
	.byte	$00
	.byte	$00
	.byte	$00
	.byte	$00
	.byte	$00
	.byte	$00
	.byte	$00
	.byte	$00
	.byte	$00
	.byte	$00
	.byte	$00
	.byte	$00
	.byte	$00
	.byte	$00
	.byte	$00
	.byte	$00
	.byte	$00
	.byte	$00
	.byte	$00
	.byte	$00
	.byte	$00
	.byte	$00
	.byte	$00
	.byte	$00
	.byte	$00
	.byte	$00
	.byte	$00
	.byte	$D0
	.byte	$D7
	.byte	$D7
	.byte	$D1
	.byte	$00
	.byte	$00
	.byte	$00
	.byte	$00
	.byte	$00
	.byte	$00
	.byte	$00
	.byte	$00
	.byte	$00
	.byte	$00
	.byte	$00
	.byte	$00
	.byte	$00
	.byte	$00
	.byte	$00
	.byte	$00
	.byte	$00
	.byte	$00
	.byte	$00
	.byte	$00
	.byte	$00
	.byte	$00
	.byte	$00
	.byte	$00
	.byte	$00
	.byte	$00
	.byte	$00
	.byte	$00
	.byte	$D0
	.byte	$D7
	.byte	$D7
	.byte	$D1
	.byte	$00
	.byte	$00
	.byte	$00
	.byte	$00
	.byte	$00
	.byte	$00
	.byte	$00
	.byte	$00
	.byte	$00
	.byte	$00
	.byte	$00
	.byte	$00
	.byte	$00
	.byte	$00
	.byte	$00
	.byte	$00
	.byte	$00
	.byte	$00
	.byte	$00
	.byte	$00
	.byte	$00
	.byte	$00
	.byte	$00
	.byte	$00
	.byte	$00
	.byte	$00
	.byte	$00
	.byte	$00
	.byte	$D0
	.byte	$D7
	.byte	$D7
	.byte	$D1
	.byte	$00
	.byte	$00
	.byte	$00
	.byte	$00
	.byte	$00
	.byte	$00
	.byte	$00
	.byte	$00
	.byte	$00
	.byte	$00
	.byte	$00
	.byte	$00
	.byte	$00
	.byte	$00
	.byte	$00
	.byte	$00
	.byte	$00
	.byte	$00
	.byte	$00
	.byte	$00
	.byte	$00
	.byte	$00
	.byte	$00
	.byte	$00
	.byte	$00
	.byte	$00
	.byte	$00
	.byte	$00
	.byte	$D0
	.byte	$D7
	.byte	$D7
	.byte	$D1
	.byte	$00
	.byte	$00
	.byte	$00
	.byte	$00
	.byte	$00
	.byte	$00
	.byte	$00
	.byte	$00
	.byte	$00
	.byte	$00
	.byte	$00
	.byte	$00
	.byte	$00
	.byte	$00
	.byte	$00
	.byte	$00
	.byte	$00
	.byte	$00
	.byte	$00
	.byte	$00
	.byte	$00
	.byte	$00
	.byte	$00
	.byte	$00
	.byte	$00
	.byte	$00
	.byte	$00
	.byte	$00
	.byte	$D0
	.byte	$D7
	.byte	$D7
	.byte	$D1
	.byte	$00
	.byte	$00
	.byte	$00
	.byte	$00
	.byte	$00
	.byte	$00
	.byte	$00
	.byte	$00
	.byte	$00
	.byte	$00
	.byte	$00
	.byte	$00
	.byte	$00
	.byte	$00
	.byte	$00
	.byte	$00
	.byte	$00
	.byte	$00
	.byte	$00
	.byte	$00
	.byte	$00
	.byte	$00
	.byte	$00
	.byte	$00
	.byte	$00
	.byte	$00
	.byte	$00
	.byte	$00
	.byte	$D0
	.byte	$D7
	.byte	$D7
	.byte	$D1
	.byte	$00
	.byte	$00
	.byte	$00
	.byte	$00
	.byte	$00
	.byte	$00
	.byte	$00
	.byte	$00
	.byte	$00
	.byte	$00
	.byte	$00
	.byte	$00
	.byte	$00
	.byte	$00
	.byte	$00
	.byte	$00
	.byte	$00
	.byte	$00
	.byte	$00
	.byte	$00
	.byte	$00
	.byte	$00
	.byte	$00
	.byte	$00
	.byte	$00
	.byte	$00
	.byte	$00
	.byte	$00
	.byte	$D0
	.byte	$D7
	.byte	$D7
	.byte	$D1
	.byte	$00
	.byte	$00
	.byte	$00
	.byte	$00
	.byte	$00
	.byte	$00
	.byte	$00
	.byte	$00
	.byte	$00
	.byte	$00
	.byte	$00
	.byte	$00
	.byte	$00
	.byte	$00
	.byte	$00
	.byte	$00
	.byte	$00
	.byte	$00
	.byte	$00
	.byte	$00
	.byte	$00
	.byte	$00
	.byte	$00
	.byte	$00
	.byte	$00
	.byte	$00
	.byte	$00
	.byte	$00
	.byte	$D0
	.byte	$D7
	.byte	$D7
	.byte	$D1
	.byte	$00
	.byte	$00
	.byte	$00
	.byte	$00
	.byte	$00
	.byte	$00
	.byte	$00
	.byte	$00
	.byte	$00
	.byte	$00
	.byte	$00
	.byte	$00
	.byte	$00
	.byte	$00
	.byte	$00
	.byte	$00
	.byte	$00
	.byte	$00
	.byte	$00
	.byte	$00
	.byte	$00
	.byte	$00
	.byte	$00
	.byte	$00
	.byte	$00
	.byte	$00
	.byte	$00
	.byte	$00
	.byte	$D0
	.byte	$D7
	.byte	$D7
	.byte	$D1
	.byte	$00
	.byte	$00
	.byte	$00
	.byte	$00
	.byte	$00
	.byte	$00
	.byte	$00
	.byte	$00
	.byte	$00
	.byte	$00
	.byte	$00
	.byte	$00
	.byte	$00
	.byte	$00
	.byte	$00
	.byte	$00
	.byte	$00
	.byte	$00
	.byte	$00
	.byte	$00
	.byte	$00
	.byte	$80
	.byte	$80
	.byte	$80
	.byte	$80
	.byte	$80
	.byte	$80
	.byte	$80
	.byte	$D0
	.byte	$D7
	.byte	$D7
	.byte	$08
	.byte	$00
	.byte	$00
	.byte	$00
	.byte	$00
	.byte	$00
	.byte	$00
	.byte	$00
	.byte	$00
	.byte	$00
	.byte	$00
	.byte	$00
	.byte	$00
	.byte	$00
	.byte	$00
	.byte	$00
	.byte	$00
	.byte	$00
	.byte	$00
	.byte	$00
	.byte	$00
	.byte	$00
	.byte	$80
	.byte	$00
	.byte	$00
	.byte	$00
	.byte	$00
	.byte	$00
	.byte	$00
	.byte	$02
	.byte	$D7
	.byte	$D7
	.byte	$08
	.byte	$00
	.byte	$00
	.byte	$00
	.byte	$00
	.byte	$00
	.byte	$00
	.byte	$00
	.byte	$00
	.byte	$00
	.byte	$00
	.byte	$00
	.byte	$00
	.byte	$00
	.byte	$00
	.byte	$00
	.byte	$00
	.byte	$00
	.byte	$00
	.byte	$00
	.byte	$00
	.byte	$00
	.byte	$80
	.byte	$00
	.byte	$00
	.byte	$00
	.byte	$00
	.byte	$00
	.byte	$00
	.byte	$02
	.byte	$D7
	.byte	$D7
	.byte	$08
	.byte	$00
	.byte	$00
	.byte	$00
	.byte	$00
	.byte	$00
	.byte	$00
	.byte	$00
	.byte	$00
	.byte	$00
	.byte	$00
	.byte	$00
	.byte	$00
	.byte	$00
	.byte	$00
	.byte	$00
	.byte	$00
	.byte	$00
	.byte	$00
	.byte	$00
	.byte	$00
	.byte	$00
	.byte	$80
	.byte	$00
	.byte	$00
	.byte	$00
	.byte	$00
	.byte	$00
	.byte	$00
	.byte	$02
	.byte	$D7
	.byte	$D7
	.byte	$08
	.byte	$00
	.byte	$00
	.byte	$00
	.byte	$00
	.byte	$00
	.byte	$00
	.byte	$00
	.byte	$00
	.byte	$00
	.byte	$00
	.byte	$00
	.byte	$00
	.byte	$00
	.byte	$00
	.byte	$00
	.byte	$00
	.byte	$00
	.byte	$00
	.byte	$00
	.byte	$00
	.byte	$00
	.byte	$80
	.byte	$00
	.byte	$00
	.byte	$FC
	.byte	$FD
	.byte	$00
	.byte	$00
	.byte	$02
	.byte	$D7
	.byte	$D7
	.byte	$E5
	.byte	$AA
	.byte	$AA
	.byte	$AA
	.byte	$AA
	.byte	$AA
	.byte	$AA
	.byte	$AA
	.byte	$AA
	.byte	$AA
	.byte	$AA
	.byte	$AA
	.byte	$AA
	.byte	$AA
	.byte	$AA
	.byte	$AA
	.byte	$AA
	.byte	$AA
	.byte	$AA
	.byte	$AA
	.byte	$AA
	.byte	$AA
	.byte	$AA
	.byte	$AA
	.byte	$AA
	.byte	$AA
	.byte	$AA
	.byte	$AA
	.byte	$AA
	.byte	$E6
	.byte	$D7
	.byte	$D7
	.byte	$D7
	.byte	$D7
	.byte	$D7
	.byte	$D7
	.byte	$D7
	.byte	$D7
	.byte	$D7
	.byte	$D7
	.byte	$D7
	.byte	$D7
	.byte	$D7
	.byte	$D7
	.byte	$D7
	.byte	$D7
	.byte	$D7
	.byte	$D7
	.byte	$D7
	.byte	$D7
	.byte	$D7
	.byte	$D7
	.byte	$D7
	.byte	$D7
	.byte	$D7
	.byte	$D7
	.byte	$D7
	.byte	$D7
	.byte	$D7
	.byte	$D7
	.byte	$D7
	.byte	$D7
	.byte	$D7
	.byte	$AA
	.byte	$AA
	.byte	$AA
	.byte	$AA
	.byte	$AA
	.byte	$AA
	.byte	$AA
	.byte	$AA
	.byte	$AA
	.byte	$2A
	.byte	$8A
	.byte	$AA
	.byte	$AA
	.byte	$AA
	.byte	$AE
	.byte	$AA
	.byte	$AA
	.byte	$AA
	.byte	$AA
	.byte	$AA
	.byte	$AA
	.byte	$AA
	.byte	$FE
	.byte	$BB
	.byte	$AA
	.byte	$AA
	.byte	$AA
	.byte	$AA
	.byte	$AA
	.byte	$AA
	.byte	$AA
	.byte	$AA
	.byte	$AA
	.byte	$AA
	.byte	$AA
	.byte	$AA
	.byte	$AA
	.byte	$AA
	.byte	$AA
	.byte	$AA
	.byte	$AA
	.byte	$AA
	.byte	$AA
	.byte	$AA
	.byte	$AA
	.byte	$2A
	.byte	$0A
	.byte	$8A
	.byte	$AA
	.byte	$AA
	.byte	$AA
	.byte	$AA
	.byte	$AA
	.byte	$22
	.byte	$20
	.byte	$88
	.byte	$0A
	.byte	$0A
	.byte	$0A
	.byte	$0A
	.byte	$0A
	.byte	$0A
	.byte	$0A
	.byte	$0A
_levelSixData:
	.byte	$D7
	.byte	$D7
	.byte	$D7
	.byte	$D7
	.byte	$D7
	.byte	$D7
	.byte	$D7
	.byte	$D7
	.byte	$D7
	.byte	$D7
	.byte	$D7
	.byte	$D7
	.byte	$D7
	.byte	$D7
	.byte	$D7
	.byte	$D7
	.byte	$D7
	.byte	$D7
	.byte	$D7
	.byte	$D7
	.byte	$D7
	.byte	$D7
	.byte	$D7
	.byte	$D7
	.byte	$D7
	.byte	$D7
	.byte	$D7
	.byte	$D7
	.byte	$D7
	.byte	$D7
	.byte	$D7
	.byte	$D7
	.byte	$D7
	.byte	$05
	.byte	$03
	.byte	$03
	.byte	$03
	.byte	$03
	.byte	$03
	.byte	$03
	.byte	$03
	.byte	$03
	.byte	$03
	.byte	$03
	.byte	$03
	.byte	$03
	.byte	$DB
	.byte	$DB
	.byte	$DB
	.byte	$DB
	.byte	$03
	.byte	$03
	.byte	$03
	.byte	$03
	.byte	$03
	.byte	$03
	.byte	$03
	.byte	$03
	.byte	$03
	.byte	$03
	.byte	$03
	.byte	$03
	.byte	$07
	.byte	$D7
	.byte	$D7
	.byte	$08
	.byte	$00
	.byte	$00
	.byte	$00
	.byte	$00
	.byte	$00
	.byte	$00
	.byte	$00
	.byte	$00
	.byte	$00
	.byte	$00
	.byte	$00
	.byte	$00
	.byte	$81
	.byte	$81
	.byte	$81
	.byte	$81
	.byte	$00
	.byte	$F3
	.byte	$F3
	.byte	$F3
	.byte	$F3
	.byte	$F3
	.byte	$F3
	.byte	$00
	.byte	$00
	.byte	$00
	.byte	$00
	.byte	$00
	.byte	$02
	.byte	$D7
	.byte	$D7
	.byte	$08
	.byte	$00
	.byte	$00
	.byte	$00
	.byte	$00
	.byte	$00
	.byte	$00
	.byte	$00
	.byte	$00
	.byte	$00
	.byte	$00
	.byte	$00
	.byte	$00
	.byte	$81
	.byte	$81
	.byte	$81
	.byte	$81
	.byte	$00
	.byte	$F3
	.byte	$F3
	.byte	$F2
	.byte	$F2
	.byte	$F3
	.byte	$F3
	.byte	$00
	.byte	$00
	.byte	$00
	.byte	$00
	.byte	$00
	.byte	$02
	.byte	$D7
	.byte	$D7
	.byte	$08
	.byte	$00
	.byte	$00
	.byte	$00
	.byte	$00
	.byte	$00
	.byte	$00
	.byte	$00
	.byte	$00
	.byte	$00
	.byte	$00
	.byte	$00
	.byte	$00
	.byte	$81
	.byte	$81
	.byte	$81
	.byte	$81
	.byte	$00
	.byte	$F3
	.byte	$F2
	.byte	$F3
	.byte	$F3
	.byte	$F3
	.byte	$F3
	.byte	$00
	.byte	$00
	.byte	$00
	.byte	$00
	.byte	$00
	.byte	$02
	.byte	$D7
	.byte	$D7
	.byte	$08
	.byte	$00
	.byte	$00
	.byte	$00
	.byte	$00
	.byte	$00
	.byte	$00
	.byte	$00
	.byte	$00
	.byte	$00
	.byte	$00
	.byte	$00
	.byte	$00
	.byte	$81
	.byte	$81
	.byte	$81
	.byte	$81
	.byte	$00
	.byte	$F3
	.byte	$F2
	.byte	$F2
	.byte	$F2
	.byte	$F3
	.byte	$F3
	.byte	$00
	.byte	$00
	.byte	$00
	.byte	$00
	.byte	$00
	.byte	$02
	.byte	$D7
	.byte	$D7
	.byte	$08
	.byte	$00
	.byte	$00
	.byte	$00
	.byte	$00
	.byte	$00
	.byte	$00
	.byte	$00
	.byte	$00
	.byte	$00
	.byte	$00
	.byte	$00
	.byte	$00
	.byte	$81
	.byte	$81
	.byte	$81
	.byte	$81
	.byte	$00
	.byte	$F3
	.byte	$F2
	.byte	$F3
	.byte	$F3
	.byte	$F2
	.byte	$F3
	.byte	$00
	.byte	$00
	.byte	$00
	.byte	$00
	.byte	$00
	.byte	$02
	.byte	$D7
	.byte	$D7
	.byte	$08
	.byte	$00
	.byte	$00
	.byte	$00
	.byte	$00
	.byte	$00
	.byte	$00
	.byte	$00
	.byte	$00
	.byte	$00
	.byte	$00
	.byte	$00
	.byte	$00
	.byte	$81
	.byte	$81
	.byte	$81
	.byte	$81
	.byte	$00
	.byte	$F3
	.byte	$F2
	.byte	$F3
	.byte	$F3
	.byte	$F2
	.byte	$F3
	.byte	$00
	.byte	$00
	.byte	$00
	.byte	$00
	.byte	$00
	.byte	$02
	.byte	$D7
	.byte	$D7
	.byte	$08
	.byte	$00
	.byte	$00
	.byte	$EA
	.byte	$EB
	.byte	$00
	.byte	$00
	.byte	$00
	.byte	$00
	.byte	$00
	.byte	$00
	.byte	$00
	.byte	$00
	.byte	$81
	.byte	$81
	.byte	$81
	.byte	$81
	.byte	$00
	.byte	$F3
	.byte	$F3
	.byte	$F2
	.byte	$F2
	.byte	$F3
	.byte	$F3
	.byte	$00
	.byte	$00
	.byte	$00
	.byte	$00
	.byte	$00
	.byte	$02
	.byte	$D7
	.byte	$D7
	.byte	$08
	.byte	$00
	.byte	$00
	.byte	$FA
	.byte	$FB
	.byte	$00
	.byte	$00
	.byte	$00
	.byte	$00
	.byte	$00
	.byte	$00
	.byte	$00
	.byte	$00
	.byte	$81
	.byte	$81
	.byte	$81
	.byte	$81
	.byte	$00
	.byte	$F3
	.byte	$F3
	.byte	$F3
	.byte	$F3
	.byte	$F3
	.byte	$F3
	.byte	$00
	.byte	$00
	.byte	$00
	.byte	$00
	.byte	$00
	.byte	$02
	.byte	$D7
	.byte	$D7
	.byte	$C6
	.byte	$AB
	.byte	$AB
	.byte	$AB
	.byte	$AB
	.byte	$A8
	.byte	$00
	.byte	$00
	.byte	$00
	.byte	$00
	.byte	$00
	.byte	$00
	.byte	$00
	.byte	$80
	.byte	$80
	.byte	$81
	.byte	$81
	.byte	$00
	.byte	$00
	.byte	$00
	.byte	$00
	.byte	$00
	.byte	$00
	.byte	$00
	.byte	$B8
	.byte	$AB
	.byte	$AB
	.byte	$AB
	.byte	$AB
	.byte	$E3
	.byte	$D7
	.byte	$D7
	.byte	$D1
	.byte	$00
	.byte	$00
	.byte	$00
	.byte	$00
	.byte	$00
	.byte	$00
	.byte	$00
	.byte	$00
	.byte	$00
	.byte	$00
	.byte	$00
	.byte	$00
	.byte	$80
	.byte	$80
	.byte	$81
	.byte	$81
	.byte	$00
	.byte	$00
	.byte	$00
	.byte	$00
	.byte	$00
	.byte	$00
	.byte	$00
	.byte	$00
	.byte	$00
	.byte	$00
	.byte	$00
	.byte	$00
	.byte	$D0
	.byte	$D7
	.byte	$D7
	.byte	$D1
	.byte	$00
	.byte	$00
	.byte	$00
	.byte	$00
	.byte	$00
	.byte	$00
	.byte	$00
	.byte	$00
	.byte	$00
	.byte	$00
	.byte	$00
	.byte	$00
	.byte	$80
	.byte	$80
	.byte	$81
	.byte	$81
	.byte	$00
	.byte	$00
	.byte	$00
	.byte	$00
	.byte	$00
	.byte	$00
	.byte	$00
	.byte	$00
	.byte	$00
	.byte	$00
	.byte	$00
	.byte	$00
	.byte	$D0
	.byte	$D7
	.byte	$D7
	.byte	$D1
	.byte	$00
	.byte	$00
	.byte	$00
	.byte	$00
	.byte	$00
	.byte	$00
	.byte	$00
	.byte	$00
	.byte	$00
	.byte	$00
	.byte	$00
	.byte	$00
	.byte	$80
	.byte	$80
	.byte	$81
	.byte	$81
	.byte	$00
	.byte	$00
	.byte	$00
	.byte	$00
	.byte	$00
	.byte	$00
	.byte	$00
	.byte	$00
	.byte	$00
	.byte	$00
	.byte	$00
	.byte	$00
	.byte	$D0
	.byte	$D7
	.byte	$D7
	.byte	$D1
	.byte	$00
	.byte	$00
	.byte	$00
	.byte	$00
	.byte	$00
	.byte	$00
	.byte	$00
	.byte	$00
	.byte	$00
	.byte	$00
	.byte	$00
	.byte	$00
	.byte	$80
	.byte	$80
	.byte	$81
	.byte	$81
	.byte	$00
	.byte	$00
	.byte	$00
	.byte	$00
	.byte	$00
	.byte	$00
	.byte	$00
	.byte	$00
	.byte	$00
	.byte	$00
	.byte	$00
	.byte	$00
	.byte	$D0
	.byte	$D7
	.byte	$D7
	.byte	$D1
	.byte	$00
	.byte	$00
	.byte	$00
	.byte	$00
	.byte	$00
	.byte	$00
	.byte	$00
	.byte	$00
	.byte	$00
	.byte	$00
	.byte	$00
	.byte	$00
	.byte	$80
	.byte	$80
	.byte	$81
	.byte	$81
	.byte	$00
	.byte	$00
	.byte	$00
	.byte	$00
	.byte	$00
	.byte	$00
	.byte	$00
	.byte	$00
	.byte	$00
	.byte	$00
	.byte	$00
	.byte	$00
	.byte	$D0
	.byte	$D7
	.byte	$D7
	.byte	$D1
	.byte	$00
	.byte	$00
	.byte	$00
	.byte	$00
	.byte	$00
	.byte	$00
	.byte	$00
	.byte	$00
	.byte	$00
	.byte	$00
	.byte	$00
	.byte	$00
	.byte	$80
	.byte	$80
	.byte	$81
	.byte	$81
	.byte	$00
	.byte	$00
	.byte	$00
	.byte	$00
	.byte	$00
	.byte	$00
	.byte	$00
	.byte	$00
	.byte	$00
	.byte	$00
	.byte	$00
	.byte	$00
	.byte	$D0
	.byte	$D7
	.byte	$D7
	.byte	$D1
	.byte	$00
	.byte	$00
	.byte	$00
	.byte	$00
	.byte	$00
	.byte	$00
	.byte	$00
	.byte	$00
	.byte	$00
	.byte	$00
	.byte	$00
	.byte	$00
	.byte	$80
	.byte	$80
	.byte	$81
	.byte	$81
	.byte	$00
	.byte	$00
	.byte	$00
	.byte	$00
	.byte	$00
	.byte	$00
	.byte	$00
	.byte	$00
	.byte	$00
	.byte	$00
	.byte	$00
	.byte	$00
	.byte	$D0
	.byte	$D7
	.byte	$D7
	.byte	$D1
	.byte	$00
	.byte	$00
	.byte	$00
	.byte	$00
	.byte	$00
	.byte	$00
	.byte	$00
	.byte	$00
	.byte	$00
	.byte	$00
	.byte	$00
	.byte	$00
	.byte	$80
	.byte	$80
	.byte	$81
	.byte	$81
	.byte	$00
	.byte	$00
	.byte	$00
	.byte	$00
	.byte	$00
	.byte	$00
	.byte	$00
	.byte	$00
	.byte	$00
	.byte	$00
	.byte	$00
	.byte	$00
	.byte	$D0
	.byte	$D7
	.byte	$D7
	.byte	$D1
	.byte	$AB
	.byte	$AB
	.byte	$AB
	.byte	$AB
	.byte	$A8
	.byte	$00
	.byte	$00
	.byte	$00
	.byte	$00
	.byte	$00
	.byte	$00
	.byte	$00
	.byte	$80
	.byte	$80
	.byte	$81
	.byte	$81
	.byte	$00
	.byte	$00
	.byte	$00
	.byte	$00
	.byte	$00
	.byte	$00
	.byte	$00
	.byte	$B8
	.byte	$AB
	.byte	$AB
	.byte	$AB
	.byte	$AB
	.byte	$E3
	.byte	$D7
	.byte	$D7
	.byte	$08
	.byte	$00
	.byte	$00
	.byte	$00
	.byte	$00
	.byte	$00
	.byte	$00
	.byte	$00
	.byte	$00
	.byte	$00
	.byte	$00
	.byte	$00
	.byte	$00
	.byte	$81
	.byte	$81
	.byte	$81
	.byte	$81
	.byte	$00
	.byte	$00
	.byte	$00
	.byte	$00
	.byte	$00
	.byte	$00
	.byte	$00
	.byte	$00
	.byte	$00
	.byte	$00
	.byte	$00
	.byte	$00
	.byte	$02
	.byte	$D7
	.byte	$D7
	.byte	$08
	.byte	$00
	.byte	$00
	.byte	$00
	.byte	$00
	.byte	$00
	.byte	$00
	.byte	$00
	.byte	$00
	.byte	$00
	.byte	$00
	.byte	$00
	.byte	$00
	.byte	$81
	.byte	$81
	.byte	$81
	.byte	$81
	.byte	$00
	.byte	$00
	.byte	$00
	.byte	$00
	.byte	$00
	.byte	$00
	.byte	$00
	.byte	$00
	.byte	$00
	.byte	$00
	.byte	$00
	.byte	$00
	.byte	$02
	.byte	$D7
	.byte	$D7
	.byte	$08
	.byte	$00
	.byte	$00
	.byte	$00
	.byte	$00
	.byte	$00
	.byte	$00
	.byte	$00
	.byte	$00
	.byte	$00
	.byte	$00
	.byte	$00
	.byte	$00
	.byte	$81
	.byte	$81
	.byte	$81
	.byte	$81
	.byte	$00
	.byte	$00
	.byte	$00
	.byte	$00
	.byte	$00
	.byte	$00
	.byte	$00
	.byte	$00
	.byte	$00
	.byte	$00
	.byte	$00
	.byte	$00
	.byte	$02
	.byte	$D7
	.byte	$D7
	.byte	$08
	.byte	$00
	.byte	$00
	.byte	$00
	.byte	$00
	.byte	$00
	.byte	$00
	.byte	$00
	.byte	$00
	.byte	$00
	.byte	$00
	.byte	$00
	.byte	$00
	.byte	$81
	.byte	$81
	.byte	$81
	.byte	$81
	.byte	$00
	.byte	$00
	.byte	$00
	.byte	$00
	.byte	$00
	.byte	$00
	.byte	$00
	.byte	$00
	.byte	$00
	.byte	$00
	.byte	$00
	.byte	$00
	.byte	$02
	.byte	$D7
	.byte	$D7
	.byte	$08
	.byte	$00
	.byte	$00
	.byte	$00
	.byte	$00
	.byte	$00
	.byte	$00
	.byte	$00
	.byte	$00
	.byte	$00
	.byte	$00
	.byte	$00
	.byte	$00
	.byte	$81
	.byte	$81
	.byte	$81
	.byte	$81
	.byte	$00
	.byte	$00
	.byte	$00
	.byte	$00
	.byte	$00
	.byte	$00
	.byte	$00
	.byte	$00
	.byte	$00
	.byte	$00
	.byte	$00
	.byte	$00
	.byte	$02
	.byte	$D7
	.byte	$D7
	.byte	$08
	.byte	$00
	.byte	$00
	.byte	$00
	.byte	$00
	.byte	$00
	.byte	$00
	.byte	$00
	.byte	$00
	.byte	$00
	.byte	$00
	.byte	$00
	.byte	$00
	.byte	$81
	.byte	$81
	.byte	$81
	.byte	$81
	.byte	$00
	.byte	$00
	.byte	$00
	.byte	$00
	.byte	$00
	.byte	$00
	.byte	$00
	.byte	$00
	.byte	$00
	.byte	$00
	.byte	$00
	.byte	$00
	.byte	$02
	.byte	$D7
	.byte	$D7
	.byte	$08
	.byte	$00
	.byte	$00
	.byte	$00
	.byte	$00
	.byte	$00
	.byte	$00
	.byte	$00
	.byte	$00
	.byte	$00
	.byte	$00
	.byte	$00
	.byte	$00
	.byte	$81
	.byte	$81
	.byte	$81
	.byte	$81
	.byte	$00
	.byte	$00
	.byte	$00
	.byte	$00
	.byte	$00
	.byte	$00
	.byte	$00
	.byte	$00
	.byte	$00
	.byte	$00
	.byte	$00
	.byte	$00
	.byte	$02
	.byte	$D7
	.byte	$D7
	.byte	$08
	.byte	$00
	.byte	$00
	.byte	$00
	.byte	$00
	.byte	$00
	.byte	$00
	.byte	$00
	.byte	$00
	.byte	$00
	.byte	$00
	.byte	$00
	.byte	$00
	.byte	$81
	.byte	$81
	.byte	$81
	.byte	$81
	.byte	$00
	.byte	$00
	.byte	$00
	.byte	$00
	.byte	$00
	.byte	$00
	.byte	$FC
	.byte	$FD
	.byte	$00
	.byte	$00
	.byte	$00
	.byte	$00
	.byte	$02
	.byte	$D7
	.byte	$D7
	.byte	$04
	.byte	$09
	.byte	$09
	.byte	$09
	.byte	$09
	.byte	$09
	.byte	$09
	.byte	$09
	.byte	$09
	.byte	$09
	.byte	$09
	.byte	$09
	.byte	$09
	.byte	$AA
	.byte	$AA
	.byte	$AA
	.byte	$AA
	.byte	$09
	.byte	$09
	.byte	$09
	.byte	$09
	.byte	$09
	.byte	$09
	.byte	$09
	.byte	$09
	.byte	$09
	.byte	$09
	.byte	$09
	.byte	$09
	.byte	$06
	.byte	$D7
	.byte	$D7
	.byte	$D7
	.byte	$D7
	.byte	$D7
	.byte	$D7
	.byte	$D7
	.byte	$D7
	.byte	$D7
	.byte	$D7
	.byte	$D7
	.byte	$D7
	.byte	$D7
	.byte	$D7
	.byte	$D7
	.byte	$D7
	.byte	$D7
	.byte	$D7
	.byte	$D7
	.byte	$D7
	.byte	$D7
	.byte	$D7
	.byte	$D7
	.byte	$D7
	.byte	$D7
	.byte	$D7
	.byte	$D7
	.byte	$D7
	.byte	$D7
	.byte	$D7
	.byte	$D7
	.byte	$D7
	.byte	$D7
	.byte	$AA
	.byte	$AA
	.byte	$AA
	.byte	$6A
	.byte	$9A
	.byte	$AA
	.byte	$AA
	.byte	$AA
	.byte	$AA
	.byte	$2A
	.byte	$8A
	.byte	$66
	.byte	$99
	.byte	$AA
	.byte	$AA
	.byte	$AA
	.byte	$5A
	.byte	$5B
	.byte	$AA
	.byte	$26
	.byte	$89
	.byte	$AA
	.byte	$5A
	.byte	$5A
	.byte	$AA
	.byte	$AA
	.byte	$AA
	.byte	$22
	.byte	$88
	.byte	$AA
	.byte	$AA
	.byte	$AA
	.byte	$6A
	.byte	$5A
	.byte	$AA
	.byte	$22
	.byte	$88
	.byte	$AA
	.byte	$5A
	.byte	$5A
	.byte	$AA
	.byte	$AA
	.byte	$AA
	.byte	$66
	.byte	$99
	.byte	$AA
	.byte	$AA
	.byte	$AA
	.byte	$AA
	.byte	$AA
	.byte	$AA
	.byte	$66
	.byte	$99
	.byte	$AA
	.byte	$8A
	.byte	$AA
	.byte	$0A
	.byte	$0A
	.byte	$0A
	.byte	$0A
	.byte	$0A
	.byte	$0A
	.byte	$0A
	.byte	$0A
_levelOneCollision:
	.byte	$01
	.byte	$01
	.byte	$01
	.byte	$01
	.byte	$01
	.byte	$01
	.byte	$01
	.byte	$01
	.byte	$01
	.byte	$01
	.byte	$01
	.byte	$01
	.byte	$01
	.byte	$01
	.byte	$01
	.byte	$01
	.byte	$01
	.byte	$01
	.byte	$01
	.byte	$01
	.byte	$01
	.byte	$01
	.byte	$01
	.byte	$01
	.byte	$01
	.byte	$01
	.byte	$01
	.byte	$01
	.byte	$01
	.byte	$01
	.byte	$01
	.byte	$01
	.byte	$01
	.byte	$01
	.byte	$01
	.byte	$01
	.byte	$01
	.byte	$01
	.byte	$01
	.byte	$01
	.byte	$01
	.byte	$01
	.byte	$01
	.byte	$01
	.byte	$01
	.byte	$01
	.byte	$01
	.byte	$01
	.byte	$01
	.byte	$01
	.byte	$01
	.byte	$01
	.byte	$01
	.byte	$01
	.byte	$01
	.byte	$01
	.byte	$01
	.byte	$01
	.byte	$01
	.byte	$01
	.byte	$01
	.byte	$01
	.byte	$01
	.byte	$01
	.byte	$01
	.byte	$01
	.byte	$00
	.byte	$00
	.byte	$00
	.byte	$00
	.byte	$00
	.byte	$00
	.byte	$00
	.byte	$00
	.byte	$00
	.byte	$00
	.byte	$00
	.byte	$00
	.byte	$00
	.byte	$00
	.byte	$00
	.byte	$00
	.byte	$00
	.byte	$00
	.byte	$00
	.byte	$00
	.byte	$00
	.byte	$00
	.byte	$00
	.byte	$00
	.byte	$00
	.byte	$00
	.byte	$00
	.byte	$00
	.byte	$01
	.byte	$01
	.byte	$01
	.byte	$01
	.byte	$00
	.byte	$00
	.byte	$00
	.byte	$00
	.byte	$00
	.byte	$00
	.byte	$00
	.byte	$00
	.byte	$00
	.byte	$00
	.byte	$00
	.byte	$00
	.byte	$00
	.byte	$00
	.byte	$00
	.byte	$00
	.byte	$00
	.byte	$00
	.byte	$00
	.byte	$00
	.byte	$00
	.byte	$00
	.byte	$00
	.byte	$00
	.byte	$00
	.byte	$00
	.byte	$00
	.byte	$00
	.byte	$01
	.byte	$01
	.byte	$01
	.byte	$01
	.byte	$00
	.byte	$00
	.byte	$00
	.byte	$00
	.byte	$00
	.byte	$00
	.byte	$00
	.byte	$00
	.byte	$00
	.byte	$00
	.byte	$00
	.byte	$00
	.byte	$00
	.byte	$00
	.byte	$00
	.byte	$00
	.byte	$00
	.byte	$00
	.byte	$00
	.byte	$00
	.byte	$00
	.byte	$00
	.byte	$00
	.byte	$00
	.byte	$00
	.byte	$00
	.byte	$00
	.byte	$00
	.byte	$01
	.byte	$01
	.byte	$01
	.byte	$01
	.byte	$00
	.byte	$00
	.byte	$00
	.byte	$00
	.byte	$00
	.byte	$00
	.byte	$00
	.byte	$00
	.byte	$00
	.byte	$00
	.byte	$00
	.byte	$00
	.byte	$00
	.byte	$00
	.byte	$00
	.byte	$00
	.byte	$00
	.byte	$00
	.byte	$00
	.byte	$00
	.byte	$00
	.byte	$00
	.byte	$00
	.byte	$00
	.byte	$00
	.byte	$00
	.byte	$00
	.byte	$00
	.byte	$01
	.byte	$01
	.byte	$01
	.byte	$01
	.byte	$00
	.byte	$00
	.byte	$00
	.byte	$00
	.byte	$00
	.byte	$00
	.byte	$00
	.byte	$00
	.byte	$00
	.byte	$00
	.byte	$00
	.byte	$00
	.byte	$00
	.byte	$00
	.byte	$00
	.byte	$00
	.byte	$00
	.byte	$00
	.byte	$00
	.byte	$00
	.byte	$00
	.byte	$00
	.byte	$00
	.byte	$00
	.byte	$00
	.byte	$00
	.byte	$00
	.byte	$00
	.byte	$01
	.byte	$01
	.byte	$01
	.byte	$01
	.byte	$00
	.byte	$00
	.byte	$00
	.byte	$00
	.byte	$00
	.byte	$00
	.byte	$00
	.byte	$00
	.byte	$01
	.byte	$01
	.byte	$01
	.byte	$01
	.byte	$00
	.byte	$01
	.byte	$01
	.byte	$00
	.byte	$01
	.byte	$01
	.byte	$01
	.byte	$01
	.byte	$01
	.byte	$00
	.byte	$00
	.byte	$00
	.byte	$00
	.byte	$00
	.byte	$00
	.byte	$00
	.byte	$01
	.byte	$01
	.byte	$01
	.byte	$01
	.byte	$00
	.byte	$00
	.byte	$00
	.byte	$00
	.byte	$00
	.byte	$00
	.byte	$00
	.byte	$00
	.byte	$00
	.byte	$00
	.byte	$00
	.byte	$00
	.byte	$00
	.byte	$00
	.byte	$00
	.byte	$00
	.byte	$00
	.byte	$00
	.byte	$00
	.byte	$00
	.byte	$00
	.byte	$00
	.byte	$00
	.byte	$00
	.byte	$00
	.byte	$00
	.byte	$00
	.byte	$00
	.byte	$01
	.byte	$01
	.byte	$01
	.byte	$01
	.byte	$00
	.byte	$00
	.byte	$00
	.byte	$00
	.byte	$00
	.byte	$00
	.byte	$00
	.byte	$00
	.byte	$00
	.byte	$00
	.byte	$00
	.byte	$00
	.byte	$00
	.byte	$00
	.byte	$00
	.byte	$00
	.byte	$00
	.byte	$00
	.byte	$00
	.byte	$00
	.byte	$00
	.byte	$00
	.byte	$00
	.byte	$00
	.byte	$00
	.byte	$00
	.byte	$00
	.byte	$00
	.byte	$01
	.byte	$01
	.byte	$01
	.byte	$01
	.byte	$00
	.byte	$00
	.byte	$00
	.byte	$00
	.byte	$00
	.byte	$00
	.byte	$00
	.byte	$00
	.byte	$00
	.byte	$00
	.byte	$00
	.byte	$00
	.byte	$00
	.byte	$00
	.byte	$00
	.byte	$00
	.byte	$00
	.byte	$00
	.byte	$00
	.byte	$00
	.byte	$00
	.byte	$00
	.byte	$00
	.byte	$00
	.byte	$00
	.byte	$00
	.byte	$00
	.byte	$00
	.byte	$01
	.byte	$01
	.byte	$01
	.byte	$01
	.byte	$00
	.byte	$00
	.byte	$00
	.byte	$00
	.byte	$00
	.byte	$00
	.byte	$00
	.byte	$00
	.byte	$00
	.byte	$00
	.byte	$00
	.byte	$00
	.byte	$00
	.byte	$00
	.byte	$00
	.byte	$00
	.byte	$00
	.byte	$00
	.byte	$00
	.byte	$00
	.byte	$00
	.byte	$00
	.byte	$00
	.byte	$00
	.byte	$00
	.byte	$00
	.byte	$00
	.byte	$00
	.byte	$01
	.byte	$01
	.byte	$01
	.byte	$01
	.byte	$00
	.byte	$00
	.byte	$00
	.byte	$00
	.byte	$00
	.byte	$00
	.byte	$00
	.byte	$00
	.byte	$00
	.byte	$00
	.byte	$00
	.byte	$00
	.byte	$00
	.byte	$00
	.byte	$00
	.byte	$00
	.byte	$00
	.byte	$00
	.byte	$00
	.byte	$00
	.byte	$00
	.byte	$00
	.byte	$00
	.byte	$00
	.byte	$00
	.byte	$00
	.byte	$00
	.byte	$00
	.byte	$01
	.byte	$01
	.byte	$01
	.byte	$01
	.byte	$00
	.byte	$00
	.byte	$00
	.byte	$00
	.byte	$00
	.byte	$00
	.byte	$00
	.byte	$00
	.byte	$00
	.byte	$00
	.byte	$00
	.byte	$00
	.byte	$00
	.byte	$00
	.byte	$00
	.byte	$00
	.byte	$00
	.byte	$00
	.byte	$00
	.byte	$00
	.byte	$00
	.byte	$00
	.byte	$00
	.byte	$00
	.byte	$00
	.byte	$00
	.byte	$00
	.byte	$00
	.byte	$01
	.byte	$01
	.byte	$01
	.byte	$01
	.byte	$00
	.byte	$00
	.byte	$00
	.byte	$00
	.byte	$00
	.byte	$00
	.byte	$00
	.byte	$00
	.byte	$00
	.byte	$00
	.byte	$00
	.byte	$00
	.byte	$00
	.byte	$00
	.byte	$00
	.byte	$00
	.byte	$00
	.byte	$00
	.byte	$00
	.byte	$00
	.byte	$00
	.byte	$00
	.byte	$00
	.byte	$00
	.byte	$00
	.byte	$00
	.byte	$00
	.byte	$00
	.byte	$01
	.byte	$01
	.byte	$01
	.byte	$01
	.byte	$00
	.byte	$00
	.byte	$00
	.byte	$00
	.byte	$00
	.byte	$00
	.byte	$00
	.byte	$00
	.byte	$00
	.byte	$00
	.byte	$00
	.byte	$00
	.byte	$00
	.byte	$00
	.byte	$00
	.byte	$00
	.byte	$00
	.byte	$00
	.byte	$00
	.byte	$00
	.byte	$00
	.byte	$00
	.byte	$00
	.byte	$00
	.byte	$00
	.byte	$00
	.byte	$00
	.byte	$00
	.byte	$01
	.byte	$01
	.byte	$01
	.byte	$01
	.byte	$00
	.byte	$00
	.byte	$00
	.byte	$00
	.byte	$00
	.byte	$00
	.byte	$00
	.byte	$00
	.byte	$00
	.byte	$00
	.byte	$00
	.byte	$00
	.byte	$00
	.byte	$00
	.byte	$00
	.byte	$00
	.byte	$00
	.byte	$00
	.byte	$00
	.byte	$00
	.byte	$00
	.byte	$00
	.byte	$00
	.byte	$00
	.byte	$00
	.byte	$00
	.byte	$00
	.byte	$00
	.byte	$01
	.byte	$01
	.byte	$01
	.byte	$01
	.byte	$00
	.byte	$00
	.byte	$00
	.byte	$00
	.byte	$00
	.byte	$00
	.byte	$00
	.byte	$00
	.byte	$00
	.byte	$00
	.byte	$00
	.byte	$00
	.byte	$00
	.byte	$00
	.byte	$00
	.byte	$00
	.byte	$00
	.byte	$00
	.byte	$00
	.byte	$00
	.byte	$00
	.byte	$00
	.byte	$00
	.byte	$00
	.byte	$00
	.byte	$00
	.byte	$00
	.byte	$00
	.byte	$01
	.byte	$01
	.byte	$01
	.byte	$01
	.byte	$00
	.byte	$00
	.byte	$00
	.byte	$00
	.byte	$00
	.byte	$00
	.byte	$00
	.byte	$00
	.byte	$00
	.byte	$00
	.byte	$00
	.byte	$00
	.byte	$00
	.byte	$00
	.byte	$00
	.byte	$00
	.byte	$00
	.byte	$00
	.byte	$00
	.byte	$00
	.byte	$00
	.byte	$00
	.byte	$00
	.byte	$00
	.byte	$00
	.byte	$00
	.byte	$00
	.byte	$00
	.byte	$01
	.byte	$01
	.byte	$01
	.byte	$01
	.byte	$00
	.byte	$00
	.byte	$00
	.byte	$00
	.byte	$00
	.byte	$00
	.byte	$00
	.byte	$00
	.byte	$00
	.byte	$00
	.byte	$00
	.byte	$00
	.byte	$00
	.byte	$00
	.byte	$00
	.byte	$00
	.byte	$00
	.byte	$00
	.byte	$00
	.byte	$00
	.byte	$00
	.byte	$00
	.byte	$00
	.byte	$00
	.byte	$00
	.byte	$00
	.byte	$00
	.byte	$00
	.byte	$01
	.byte	$01
	.byte	$01
	.byte	$01
	.byte	$00
	.byte	$00
	.byte	$00
	.byte	$00
	.byte	$00
	.byte	$00
	.byte	$00
	.byte	$00
	.byte	$00
	.byte	$00
	.byte	$00
	.byte	$00
	.byte	$00
	.byte	$00
	.byte	$00
	.byte	$00
	.byte	$00
	.byte	$00
	.byte	$00
	.byte	$00
	.byte	$00
	.byte	$00
	.byte	$00
	.byte	$00
	.byte	$00
	.byte	$00
	.byte	$00
	.byte	$00
	.byte	$01
	.byte	$01
	.byte	$01
	.byte	$01
	.byte	$00
	.byte	$00
	.byte	$00
	.byte	$00
	.byte	$00
	.byte	$00
	.byte	$00
	.byte	$00
	.byte	$00
	.byte	$00
	.byte	$00
	.byte	$00
	.byte	$00
	.byte	$00
	.byte	$00
	.byte	$00
	.byte	$00
	.byte	$00
	.byte	$00
	.byte	$00
	.byte	$00
	.byte	$00
	.byte	$00
	.byte	$00
	.byte	$00
	.byte	$00
	.byte	$00
	.byte	$00
	.byte	$01
	.byte	$01
	.byte	$01
	.byte	$01
	.byte	$00
	.byte	$00
	.byte	$00
	.byte	$00
	.byte	$00
	.byte	$00
	.byte	$00
	.byte	$00
	.byte	$00
	.byte	$00
	.byte	$00
	.byte	$00
	.byte	$00
	.byte	$00
	.byte	$00
	.byte	$00
	.byte	$00
	.byte	$00
	.byte	$00
	.byte	$00
	.byte	$00
	.byte	$00
	.byte	$00
	.byte	$00
	.byte	$00
	.byte	$00
	.byte	$00
	.byte	$00
	.byte	$01
	.byte	$01
	.byte	$01
	.byte	$01
	.byte	$00
	.byte	$00
	.byte	$00
	.byte	$00
	.byte	$00
	.byte	$00
	.byte	$00
	.byte	$00
	.byte	$00
	.byte	$00
	.byte	$00
	.byte	$00
	.byte	$00
	.byte	$00
	.byte	$00
	.byte	$00
	.byte	$00
	.byte	$00
	.byte	$00
	.byte	$00
	.byte	$00
	.byte	$00
	.byte	$00
	.byte	$00
	.byte	$00
	.byte	$00
	.byte	$00
	.byte	$00
	.byte	$01
	.byte	$01
	.byte	$01
	.byte	$01
	.byte	$00
	.byte	$00
	.byte	$00
	.byte	$00
	.byte	$00
	.byte	$00
	.byte	$00
	.byte	$00
	.byte	$00
	.byte	$00
	.byte	$00
	.byte	$00
	.byte	$00
	.byte	$00
	.byte	$00
	.byte	$00
	.byte	$00
	.byte	$00
	.byte	$00
	.byte	$00
	.byte	$00
	.byte	$00
	.byte	$00
	.byte	$00
	.byte	$00
	.byte	$00
	.byte	$00
	.byte	$00
	.byte	$01
	.byte	$01
	.byte	$01
	.byte	$01
	.byte	$00
	.byte	$00
	.byte	$00
	.byte	$00
	.byte	$00
	.byte	$00
	.byte	$00
	.byte	$00
	.byte	$00
	.byte	$00
	.byte	$00
	.byte	$00
	.byte	$00
	.byte	$00
	.byte	$00
	.byte	$00
	.byte	$00
	.byte	$00
	.byte	$00
	.byte	$00
	.byte	$00
	.byte	$00
	.byte	$00
	.byte	$00
	.byte	$00
	.byte	$00
	.byte	$00
	.byte	$00
	.byte	$01
	.byte	$01
	.byte	$01
	.byte	$01
	.byte	$00
	.byte	$00
	.byte	$00
	.byte	$00
	.byte	$00
	.byte	$00
	.byte	$00
	.byte	$00
	.byte	$00
	.byte	$00
	.byte	$00
	.byte	$00
	.byte	$00
	.byte	$00
	.byte	$00
	.byte	$00
	.byte	$00
	.byte	$00
	.byte	$00
	.byte	$00
	.byte	$00
	.byte	$00
	.byte	$00
	.byte	$00
	.byte	$00
	.byte	$00
	.byte	$00
	.byte	$00
	.byte	$01
	.byte	$01
	.byte	$01
	.byte	$01
	.byte	$00
	.byte	$00
	.byte	$00
	.byte	$00
	.byte	$00
	.byte	$00
	.byte	$00
	.byte	$00
	.byte	$00
	.byte	$00
	.byte	$00
	.byte	$00
	.byte	$00
	.byte	$00
	.byte	$00
	.byte	$00
	.byte	$00
	.byte	$06
	.byte	$06
	.byte	$00
	.byte	$00
	.byte	$00
	.byte	$00
	.byte	$00
	.byte	$00
	.byte	$00
	.byte	$00
	.byte	$00
	.byte	$01
	.byte	$01
	.byte	$01
	.byte	$01
	.byte	$01
	.byte	$01
	.byte	$01
	.byte	$01
	.byte	$01
	.byte	$01
	.byte	$01
	.byte	$01
	.byte	$01
	.byte	$01
	.byte	$01
	.byte	$01
	.byte	$01
	.byte	$01
	.byte	$01
	.byte	$01
	.byte	$01
	.byte	$01
	.byte	$01
	.byte	$01
	.byte	$01
	.byte	$01
	.byte	$01
	.byte	$01
	.byte	$01
	.byte	$01
	.byte	$01
	.byte	$01
	.byte	$01
	.byte	$01
	.byte	$01
	.byte	$01
	.byte	$01
	.byte	$01
	.byte	$01
	.byte	$01
	.byte	$01
	.byte	$01
	.byte	$01
	.byte	$01
	.byte	$01
	.byte	$01
	.byte	$01
	.byte	$01
	.byte	$01
	.byte	$01
	.byte	$01
	.byte	$01
	.byte	$01
	.byte	$01
	.byte	$01
	.byte	$01
	.byte	$01
	.byte	$01
	.byte	$01
	.byte	$01
	.byte	$01
	.byte	$01
	.byte	$01
	.byte	$01
	.byte	$01
	.byte	$01
	.byte	$01
	.byte	$01
	.byte	$01
	.byte	$01
	.byte	$01
	.byte	$01
	.byte	$01
	.byte	$01
	.byte	$01
	.byte	$01
	.byte	$01
	.byte	$01
	.byte	$01
	.byte	$01
	.byte	$01
	.byte	$01
	.byte	$01
	.byte	$01
	.byte	$01
	.byte	$01
	.byte	$01
	.byte	$01
	.byte	$01
	.byte	$01
	.byte	$01
	.byte	$01
	.byte	$01
	.byte	$01
	.byte	$01
	.byte	$01
	.byte	$01
	.byte	$01
	.byte	$01
	.byte	$01
	.byte	$01
	.byte	$01
	.byte	$01
	.byte	$01
	.byte	$01
	.byte	$01
	.byte	$01
	.byte	$01
	.byte	$01
	.byte	$01
	.byte	$01
	.byte	$01
	.byte	$01
	.byte	$01
	.byte	$01
	.byte	$01
	.byte	$01
	.byte	$01
	.byte	$01
	.byte	$01
	.byte	$00
	.byte	$01
	.byte	$01
	.byte	$01
	.byte	$01
	.byte	$01
	.byte	$01
	.byte	$01
	.byte	$01
	.byte	$01
_levelTwoCollision:
	.byte	$01
	.byte	$01
	.byte	$01
	.byte	$01
	.byte	$01
	.byte	$01
	.byte	$01
	.byte	$01
	.byte	$01
	.byte	$01
	.byte	$01
	.byte	$01
	.byte	$01
	.byte	$01
	.byte	$01
	.byte	$01
	.byte	$01
	.byte	$01
	.byte	$01
	.byte	$01
	.byte	$01
	.byte	$01
	.byte	$01
	.byte	$01
	.byte	$01
	.byte	$01
	.byte	$01
	.byte	$01
	.byte	$01
	.byte	$01
	.byte	$01
	.byte	$01
	.byte	$01
	.byte	$01
	.byte	$01
	.byte	$01
	.byte	$01
	.byte	$01
	.byte	$01
	.byte	$01
	.byte	$01
	.byte	$01
	.byte	$01
	.byte	$01
	.byte	$01
	.byte	$01
	.byte	$01
	.byte	$01
	.byte	$01
	.byte	$01
	.byte	$01
	.byte	$01
	.byte	$01
	.byte	$01
	.byte	$01
	.byte	$01
	.byte	$01
	.byte	$01
	.byte	$01
	.byte	$01
	.byte	$01
	.byte	$01
	.byte	$01
	.byte	$01
	.byte	$01
	.byte	$01
	.byte	$00
	.byte	$00
	.byte	$00
	.byte	$00
	.byte	$00
	.byte	$00
	.byte	$00
	.byte	$00
	.byte	$00
	.byte	$00
	.byte	$00
	.byte	$00
	.byte	$00
	.byte	$00
	.byte	$00
	.byte	$00
	.byte	$00
	.byte	$00
	.byte	$00
	.byte	$00
	.byte	$00
	.byte	$00
	.byte	$00
	.byte	$00
	.byte	$00
	.byte	$00
	.byte	$00
	.byte	$00
	.byte	$01
	.byte	$01
	.byte	$01
	.byte	$01
	.byte	$00
	.byte	$00
	.byte	$00
	.byte	$00
	.byte	$00
	.byte	$00
	.byte	$00
	.byte	$00
	.byte	$00
	.byte	$00
	.byte	$00
	.byte	$00
	.byte	$00
	.byte	$00
	.byte	$00
	.byte	$00
	.byte	$00
	.byte	$00
	.byte	$00
	.byte	$00
	.byte	$00
	.byte	$00
	.byte	$00
	.byte	$00
	.byte	$00
	.byte	$00
	.byte	$00
	.byte	$00
	.byte	$01
	.byte	$01
	.byte	$01
	.byte	$01
	.byte	$00
	.byte	$00
	.byte	$00
	.byte	$00
	.byte	$00
	.byte	$00
	.byte	$00
	.byte	$00
	.byte	$00
	.byte	$00
	.byte	$00
	.byte	$00
	.byte	$00
	.byte	$00
	.byte	$00
	.byte	$00
	.byte	$00
	.byte	$00
	.byte	$00
	.byte	$00
	.byte	$00
	.byte	$00
	.byte	$00
	.byte	$00
	.byte	$00
	.byte	$00
	.byte	$00
	.byte	$00
	.byte	$01
	.byte	$01
	.byte	$01
	.byte	$01
	.byte	$00
	.byte	$00
	.byte	$00
	.byte	$00
	.byte	$00
	.byte	$00
	.byte	$00
	.byte	$00
	.byte	$00
	.byte	$00
	.byte	$00
	.byte	$00
	.byte	$00
	.byte	$00
	.byte	$00
	.byte	$00
	.byte	$00
	.byte	$00
	.byte	$00
	.byte	$00
	.byte	$00
	.byte	$00
	.byte	$00
	.byte	$00
	.byte	$00
	.byte	$00
	.byte	$00
	.byte	$00
	.byte	$01
	.byte	$01
	.byte	$01
	.byte	$01
	.byte	$01
	.byte	$01
	.byte	$01
	.byte	$01
	.byte	$01
	.byte	$01
	.byte	$00
	.byte	$01
	.byte	$01
	.byte	$00
	.byte	$01
	.byte	$01
	.byte	$01
	.byte	$01
	.byte	$01
	.byte	$01
	.byte	$00
	.byte	$01
	.byte	$01
	.byte	$01
	.byte	$01
	.byte	$01
	.byte	$01
	.byte	$00
	.byte	$01
	.byte	$01
	.byte	$01
	.byte	$01
	.byte	$01
	.byte	$01
	.byte	$01
	.byte	$01
	.byte	$00
	.byte	$00
	.byte	$00
	.byte	$00
	.byte	$00
	.byte	$00
	.byte	$00
	.byte	$00
	.byte	$00
	.byte	$00
	.byte	$00
	.byte	$00
	.byte	$00
	.byte	$00
	.byte	$00
	.byte	$00
	.byte	$00
	.byte	$00
	.byte	$00
	.byte	$00
	.byte	$00
	.byte	$00
	.byte	$00
	.byte	$00
	.byte	$00
	.byte	$00
	.byte	$00
	.byte	$00
	.byte	$01
	.byte	$01
	.byte	$01
	.byte	$01
	.byte	$00
	.byte	$01
	.byte	$00
	.byte	$01
	.byte	$01
	.byte	$01
	.byte	$00
	.byte	$01
	.byte	$01
	.byte	$01
	.byte	$01
	.byte	$01
	.byte	$01
	.byte	$00
	.byte	$01
	.byte	$01
	.byte	$00
	.byte	$01
	.byte	$00
	.byte	$01
	.byte	$01
	.byte	$01
	.byte	$00
	.byte	$01
	.byte	$01
	.byte	$01
	.byte	$01
	.byte	$00
	.byte	$01
	.byte	$01
	.byte	$01
	.byte	$01
	.byte	$00
	.byte	$00
	.byte	$00
	.byte	$00
	.byte	$00
	.byte	$00
	.byte	$00
	.byte	$00
	.byte	$00
	.byte	$00
	.byte	$00
	.byte	$00
	.byte	$00
	.byte	$00
	.byte	$00
	.byte	$00
	.byte	$00
	.byte	$00
	.byte	$00
	.byte	$00
	.byte	$00
	.byte	$00
	.byte	$00
	.byte	$00
	.byte	$00
	.byte	$00
	.byte	$00
	.byte	$00
	.byte	$01
	.byte	$01
	.byte	$01
	.byte	$01
	.byte	$00
	.byte	$00
	.byte	$00
	.byte	$00
	.byte	$00
	.byte	$00
	.byte	$00
	.byte	$00
	.byte	$00
	.byte	$00
	.byte	$00
	.byte	$00
	.byte	$00
	.byte	$00
	.byte	$00
	.byte	$00
	.byte	$00
	.byte	$00
	.byte	$00
	.byte	$00
	.byte	$00
	.byte	$00
	.byte	$00
	.byte	$00
	.byte	$00
	.byte	$00
	.byte	$00
	.byte	$00
	.byte	$01
	.byte	$01
	.byte	$01
	.byte	$01
	.byte	$00
	.byte	$00
	.byte	$00
	.byte	$00
	.byte	$00
	.byte	$00
	.byte	$00
	.byte	$00
	.byte	$00
	.byte	$00
	.byte	$00
	.byte	$00
	.byte	$00
	.byte	$00
	.byte	$00
	.byte	$00
	.byte	$00
	.byte	$00
	.byte	$00
	.byte	$00
	.byte	$00
	.byte	$00
	.byte	$00
	.byte	$00
	.byte	$00
	.byte	$00
	.byte	$00
	.byte	$00
	.byte	$01
	.byte	$01
	.byte	$01
	.byte	$01
	.byte	$00
	.byte	$00
	.byte	$00
	.byte	$00
	.byte	$00
	.byte	$00
	.byte	$00
	.byte	$00
	.byte	$00
	.byte	$00
	.byte	$00
	.byte	$00
	.byte	$00
	.byte	$00
	.byte	$00
	.byte	$00
	.byte	$00
	.byte	$00
	.byte	$00
	.byte	$00
	.byte	$00
	.byte	$00
	.byte	$00
	.byte	$00
	.byte	$00
	.byte	$00
	.byte	$00
	.byte	$00
	.byte	$01
	.byte	$01
	.byte	$01
	.byte	$01
	.byte	$00
	.byte	$00
	.byte	$00
	.byte	$00
	.byte	$00
	.byte	$00
	.byte	$00
	.byte	$00
	.byte	$00
	.byte	$00
	.byte	$00
	.byte	$00
	.byte	$00
	.byte	$00
	.byte	$00
	.byte	$00
	.byte	$00
	.byte	$00
	.byte	$00
	.byte	$00
	.byte	$00
	.byte	$00
	.byte	$00
	.byte	$00
	.byte	$00
	.byte	$00
	.byte	$00
	.byte	$00
	.byte	$01
	.byte	$01
	.byte	$01
	.byte	$01
	.byte	$00
	.byte	$00
	.byte	$00
	.byte	$00
	.byte	$00
	.byte	$00
	.byte	$00
	.byte	$00
	.byte	$00
	.byte	$00
	.byte	$00
	.byte	$00
	.byte	$00
	.byte	$00
	.byte	$00
	.byte	$00
	.byte	$00
	.byte	$00
	.byte	$00
	.byte	$00
	.byte	$00
	.byte	$00
	.byte	$00
	.byte	$00
	.byte	$00
	.byte	$00
	.byte	$00
	.byte	$00
	.byte	$01
	.byte	$01
	.byte	$01
	.byte	$01
	.byte	$00
	.byte	$00
	.byte	$00
	.byte	$00
	.byte	$00
	.byte	$00
	.byte	$00
	.byte	$00
	.byte	$00
	.byte	$00
	.byte	$00
	.byte	$00
	.byte	$00
	.byte	$00
	.byte	$00
	.byte	$00
	.byte	$00
	.byte	$00
	.byte	$00
	.byte	$00
	.byte	$00
	.byte	$00
	.byte	$00
	.byte	$00
	.byte	$00
	.byte	$00
	.byte	$00
	.byte	$00
	.byte	$01
	.byte	$01
	.byte	$01
	.byte	$01
	.byte	$00
	.byte	$00
	.byte	$00
	.byte	$00
	.byte	$00
	.byte	$00
	.byte	$00
	.byte	$00
	.byte	$00
	.byte	$00
	.byte	$00
	.byte	$00
	.byte	$00
	.byte	$00
	.byte	$00
	.byte	$00
	.byte	$00
	.byte	$00
	.byte	$00
	.byte	$00
	.byte	$00
	.byte	$00
	.byte	$00
	.byte	$00
	.byte	$00
	.byte	$00
	.byte	$00
	.byte	$00
	.byte	$01
	.byte	$01
	.byte	$01
	.byte	$01
	.byte	$00
	.byte	$00
	.byte	$00
	.byte	$00
	.byte	$00
	.byte	$00
	.byte	$00
	.byte	$00
	.byte	$00
	.byte	$00
	.byte	$00
	.byte	$00
	.byte	$00
	.byte	$00
	.byte	$00
	.byte	$00
	.byte	$00
	.byte	$00
	.byte	$00
	.byte	$00
	.byte	$00
	.byte	$00
	.byte	$00
	.byte	$00
	.byte	$00
	.byte	$00
	.byte	$00
	.byte	$00
	.byte	$01
	.byte	$01
	.byte	$01
	.byte	$01
	.byte	$00
	.byte	$00
	.byte	$00
	.byte	$00
	.byte	$00
	.byte	$00
	.byte	$00
	.byte	$00
	.byte	$00
	.byte	$00
	.byte	$00
	.byte	$00
	.byte	$00
	.byte	$00
	.byte	$00
	.byte	$00
	.byte	$00
	.byte	$00
	.byte	$00
	.byte	$00
	.byte	$00
	.byte	$00
	.byte	$00
	.byte	$00
	.byte	$00
	.byte	$00
	.byte	$00
	.byte	$00
	.byte	$01
	.byte	$01
	.byte	$01
	.byte	$01
	.byte	$00
	.byte	$00
	.byte	$00
	.byte	$00
	.byte	$00
	.byte	$00
	.byte	$00
	.byte	$00
	.byte	$00
	.byte	$00
	.byte	$00
	.byte	$00
	.byte	$00
	.byte	$00
	.byte	$00
	.byte	$00
	.byte	$00
	.byte	$00
	.byte	$00
	.byte	$00
	.byte	$00
	.byte	$00
	.byte	$00
	.byte	$00
	.byte	$00
	.byte	$00
	.byte	$00
	.byte	$00
	.byte	$01
	.byte	$01
	.byte	$01
	.byte	$01
	.byte	$00
	.byte	$00
	.byte	$00
	.byte	$00
	.byte	$00
	.byte	$00
	.byte	$00
	.byte	$00
	.byte	$00
	.byte	$00
	.byte	$00
	.byte	$00
	.byte	$00
	.byte	$00
	.byte	$00
	.byte	$00
	.byte	$00
	.byte	$00
	.byte	$00
	.byte	$01
	.byte	$01
	.byte	$01
	.byte	$01
	.byte	$01
	.byte	$01
	.byte	$01
	.byte	$01
	.byte	$01
	.byte	$01
	.byte	$01
	.byte	$01
	.byte	$02
	.byte	$00
	.byte	$00
	.byte	$00
	.byte	$00
	.byte	$00
	.byte	$00
	.byte	$00
	.byte	$00
	.byte	$00
	.byte	$00
	.byte	$00
	.byte	$00
	.byte	$00
	.byte	$00
	.byte	$00
	.byte	$00
	.byte	$00
	.byte	$00
	.byte	$00
	.byte	$01
	.byte	$00
	.byte	$00
	.byte	$00
	.byte	$00
	.byte	$00
	.byte	$00
	.byte	$00
	.byte	$00
	.byte	$02
	.byte	$01
	.byte	$01
	.byte	$02
	.byte	$00
	.byte	$00
	.byte	$00
	.byte	$00
	.byte	$00
	.byte	$00
	.byte	$00
	.byte	$00
	.byte	$00
	.byte	$00
	.byte	$00
	.byte	$00
	.byte	$00
	.byte	$00
	.byte	$00
	.byte	$00
	.byte	$00
	.byte	$00
	.byte	$00
	.byte	$01
	.byte	$00
	.byte	$00
	.byte	$00
	.byte	$00
	.byte	$00
	.byte	$00
	.byte	$00
	.byte	$00
	.byte	$02
	.byte	$01
	.byte	$01
	.byte	$02
	.byte	$00
	.byte	$00
	.byte	$00
	.byte	$00
	.byte	$00
	.byte	$00
	.byte	$00
	.byte	$00
	.byte	$00
	.byte	$00
	.byte	$00
	.byte	$00
	.byte	$00
	.byte	$00
	.byte	$00
	.byte	$00
	.byte	$00
	.byte	$00
	.byte	$00
	.byte	$01
	.byte	$00
	.byte	$00
	.byte	$00
	.byte	$00
	.byte	$00
	.byte	$00
	.byte	$00
	.byte	$00
	.byte	$02
	.byte	$01
	.byte	$01
	.byte	$02
	.byte	$00
	.byte	$00
	.byte	$00
	.byte	$00
	.byte	$00
	.byte	$00
	.byte	$00
	.byte	$00
	.byte	$00
	.byte	$00
	.byte	$00
	.byte	$00
	.byte	$00
	.byte	$00
	.byte	$00
	.byte	$00
	.byte	$00
	.byte	$00
	.byte	$00
	.byte	$01
	.byte	$00
	.byte	$00
	.byte	$00
	.byte	$00
	.byte	$00
	.byte	$00
	.byte	$00
	.byte	$00
	.byte	$02
	.byte	$01
	.byte	$01
	.byte	$02
	.byte	$00
	.byte	$00
	.byte	$00
	.byte	$00
	.byte	$00
	.byte	$00
	.byte	$00
	.byte	$00
	.byte	$00
	.byte	$00
	.byte	$00
	.byte	$00
	.byte	$00
	.byte	$00
	.byte	$00
	.byte	$00
	.byte	$00
	.byte	$00
	.byte	$00
	.byte	$01
	.byte	$00
	.byte	$00
	.byte	$00
	.byte	$00
	.byte	$00
	.byte	$00
	.byte	$00
	.byte	$00
	.byte	$02
	.byte	$01
	.byte	$01
	.byte	$02
	.byte	$00
	.byte	$00
	.byte	$00
	.byte	$00
	.byte	$00
	.byte	$00
	.byte	$00
	.byte	$00
	.byte	$00
	.byte	$00
	.byte	$00
	.byte	$00
	.byte	$00
	.byte	$00
	.byte	$00
	.byte	$00
	.byte	$00
	.byte	$00
	.byte	$00
	.byte	$00
	.byte	$00
	.byte	$00
	.byte	$00
	.byte	$00
	.byte	$05
	.byte	$05
	.byte	$00
	.byte	$00
	.byte	$02
	.byte	$01
	.byte	$01
	.byte	$02
	.byte	$00
	.byte	$00
	.byte	$00
	.byte	$00
	.byte	$00
	.byte	$00
	.byte	$00
	.byte	$00
	.byte	$00
	.byte	$00
	.byte	$00
	.byte	$00
	.byte	$00
	.byte	$00
	.byte	$00
	.byte	$00
	.byte	$00
	.byte	$00
	.byte	$00
	.byte	$01
	.byte	$00
	.byte	$00
	.byte	$00
	.byte	$00
	.byte	$05
	.byte	$05
	.byte	$00
	.byte	$00
	.byte	$02
	.byte	$01
	.byte	$01
	.byte	$01
	.byte	$01
	.byte	$01
	.byte	$01
	.byte	$01
	.byte	$01
	.byte	$01
	.byte	$01
	.byte	$01
	.byte	$01
	.byte	$01
	.byte	$01
	.byte	$01
	.byte	$01
	.byte	$01
	.byte	$01
	.byte	$01
	.byte	$01
	.byte	$01
	.byte	$01
	.byte	$01
	.byte	$01
	.byte	$01
	.byte	$01
	.byte	$01
	.byte	$01
	.byte	$01
	.byte	$01
	.byte	$01
	.byte	$01
	.byte	$01
	.byte	$01
	.byte	$01
	.byte	$01
	.byte	$01
	.byte	$01
	.byte	$01
	.byte	$01
	.byte	$01
	.byte	$01
	.byte	$01
	.byte	$01
	.byte	$01
	.byte	$01
	.byte	$01
	.byte	$01
	.byte	$01
	.byte	$01
	.byte	$01
	.byte	$01
	.byte	$01
	.byte	$01
	.byte	$01
	.byte	$01
	.byte	$01
	.byte	$01
	.byte	$01
	.byte	$01
	.byte	$01
	.byte	$01
	.byte	$01
	.byte	$01
	.byte	$01
	.byte	$01
	.byte	$01
	.byte	$01
	.byte	$01
	.byte	$01
	.byte	$01
	.byte	$01
	.byte	$01
	.byte	$01
	.byte	$01
	.byte	$01
	.byte	$01
	.byte	$01
	.byte	$01
	.byte	$01
	.byte	$01
	.byte	$01
	.byte	$01
	.byte	$01
	.byte	$01
	.byte	$01
	.byte	$01
	.byte	$01
	.byte	$01
	.byte	$01
	.byte	$01
	.byte	$01
	.byte	$01
	.byte	$01
	.byte	$01
	.byte	$01
	.byte	$01
	.byte	$01
	.byte	$01
	.byte	$01
	.byte	$01
	.byte	$01
	.byte	$01
	.byte	$01
	.byte	$01
	.byte	$01
	.byte	$01
	.byte	$01
	.byte	$01
	.byte	$01
	.byte	$01
	.byte	$01
	.byte	$01
	.byte	$01
	.byte	$01
	.byte	$01
	.byte	$01
	.byte	$01
	.byte	$01
	.byte	$01
	.byte	$01
	.byte	$01
	.byte	$01
	.byte	$01
	.byte	$01
	.byte	$01
	.byte	$01
	.byte	$01
	.byte	$01
_levelThreeCollision:
	.byte	$01
	.byte	$01
	.byte	$01
	.byte	$01
	.byte	$01
	.byte	$01
	.byte	$01
	.byte	$01
	.byte	$01
	.byte	$01
	.byte	$01
	.byte	$01
	.byte	$01
	.byte	$01
	.byte	$01
	.byte	$01
	.byte	$01
	.byte	$01
	.byte	$01
	.byte	$01
	.byte	$01
	.byte	$01
	.byte	$01
	.byte	$01
	.byte	$01
	.byte	$01
	.byte	$01
	.byte	$01
	.byte	$01
	.byte	$01
	.byte	$01
	.byte	$01
	.byte	$01
	.byte	$01
	.byte	$01
	.byte	$01
	.byte	$01
	.byte	$01
	.byte	$01
	.byte	$01
	.byte	$01
	.byte	$01
	.byte	$01
	.byte	$01
	.byte	$01
	.byte	$01
	.byte	$01
	.byte	$01
	.byte	$01
	.byte	$01
	.byte	$01
	.byte	$01
	.byte	$01
	.byte	$01
	.byte	$01
	.byte	$01
	.byte	$01
	.byte	$01
	.byte	$01
	.byte	$01
	.byte	$01
	.byte	$01
	.byte	$01
	.byte	$01
	.byte	$01
	.byte	$01
	.byte	$00
	.byte	$00
	.byte	$00
	.byte	$00
	.byte	$00
	.byte	$00
	.byte	$00
	.byte	$00
	.byte	$00
	.byte	$00
	.byte	$00
	.byte	$00
	.byte	$00
	.byte	$00
	.byte	$00
	.byte	$00
	.byte	$00
	.byte	$00
	.byte	$00
	.byte	$00
	.byte	$00
	.byte	$00
	.byte	$00
	.byte	$00
	.byte	$00
	.byte	$00
	.byte	$00
	.byte	$00
	.byte	$01
	.byte	$01
	.byte	$01
	.byte	$01
	.byte	$00
	.byte	$00
	.byte	$00
	.byte	$00
	.byte	$00
	.byte	$00
	.byte	$00
	.byte	$00
	.byte	$00
	.byte	$00
	.byte	$00
	.byte	$00
	.byte	$00
	.byte	$00
	.byte	$00
	.byte	$00
	.byte	$00
	.byte	$00
	.byte	$00
	.byte	$00
	.byte	$00
	.byte	$00
	.byte	$00
	.byte	$00
	.byte	$00
	.byte	$00
	.byte	$00
	.byte	$00
	.byte	$01
	.byte	$01
	.byte	$01
	.byte	$01
	.byte	$00
	.byte	$00
	.byte	$00
	.byte	$00
	.byte	$00
	.byte	$00
	.byte	$00
	.byte	$00
	.byte	$00
	.byte	$00
	.byte	$00
	.byte	$00
	.byte	$00
	.byte	$00
	.byte	$00
	.byte	$00
	.byte	$00
	.byte	$00
	.byte	$00
	.byte	$00
	.byte	$00
	.byte	$00
	.byte	$00
	.byte	$00
	.byte	$00
	.byte	$00
	.byte	$00
	.byte	$00
	.byte	$01
	.byte	$01
	.byte	$01
	.byte	$01
	.byte	$00
	.byte	$00
	.byte	$00
	.byte	$00
	.byte	$00
	.byte	$00
	.byte	$00
	.byte	$00
	.byte	$00
	.byte	$00
	.byte	$00
	.byte	$00
	.byte	$00
	.byte	$00
	.byte	$00
	.byte	$00
	.byte	$00
	.byte	$00
	.byte	$00
	.byte	$00
	.byte	$00
	.byte	$00
	.byte	$00
	.byte	$00
	.byte	$00
	.byte	$00
	.byte	$00
	.byte	$00
	.byte	$01
	.byte	$01
	.byte	$01
	.byte	$01
	.byte	$00
	.byte	$00
	.byte	$00
	.byte	$00
	.byte	$00
	.byte	$00
	.byte	$00
	.byte	$00
	.byte	$00
	.byte	$00
	.byte	$00
	.byte	$00
	.byte	$00
	.byte	$00
	.byte	$00
	.byte	$00
	.byte	$00
	.byte	$00
	.byte	$00
	.byte	$00
	.byte	$00
	.byte	$00
	.byte	$00
	.byte	$00
	.byte	$00
	.byte	$00
	.byte	$00
	.byte	$00
	.byte	$01
	.byte	$01
	.byte	$01
	.byte	$01
	.byte	$00
	.byte	$00
	.byte	$00
	.byte	$00
	.byte	$00
	.byte	$00
	.byte	$00
	.byte	$00
	.byte	$00
	.byte	$00
	.byte	$00
	.byte	$00
	.byte	$00
	.byte	$00
	.byte	$00
	.byte	$00
	.byte	$00
	.byte	$00
	.byte	$00
	.byte	$00
	.byte	$00
	.byte	$00
	.byte	$00
	.byte	$00
	.byte	$00
	.byte	$00
	.byte	$00
	.byte	$00
	.byte	$01
	.byte	$01
	.byte	$01
	.byte	$01
	.byte	$00
	.byte	$00
	.byte	$00
	.byte	$00
	.byte	$00
	.byte	$00
	.byte	$00
	.byte	$00
	.byte	$00
	.byte	$00
	.byte	$00
	.byte	$00
	.byte	$00
	.byte	$00
	.byte	$00
	.byte	$00
	.byte	$00
	.byte	$00
	.byte	$00
	.byte	$00
	.byte	$00
	.byte	$00
	.byte	$00
	.byte	$00
	.byte	$00
	.byte	$00
	.byte	$00
	.byte	$00
	.byte	$01
	.byte	$01
	.byte	$01
	.byte	$01
	.byte	$00
	.byte	$00
	.byte	$00
	.byte	$00
	.byte	$00
	.byte	$00
	.byte	$00
	.byte	$00
	.byte	$00
	.byte	$00
	.byte	$00
	.byte	$00
	.byte	$00
	.byte	$00
	.byte	$00
	.byte	$00
	.byte	$00
	.byte	$00
	.byte	$00
	.byte	$00
	.byte	$00
	.byte	$00
	.byte	$00
	.byte	$00
	.byte	$00
	.byte	$00
	.byte	$00
	.byte	$00
	.byte	$01
	.byte	$01
	.byte	$01
	.byte	$01
	.byte	$00
	.byte	$00
	.byte	$00
	.byte	$00
	.byte	$00
	.byte	$00
	.byte	$00
	.byte	$00
	.byte	$00
	.byte	$00
	.byte	$00
	.byte	$00
	.byte	$00
	.byte	$00
	.byte	$00
	.byte	$00
	.byte	$00
	.byte	$00
	.byte	$00
	.byte	$00
	.byte	$00
	.byte	$00
	.byte	$00
	.byte	$00
	.byte	$00
	.byte	$00
	.byte	$00
	.byte	$00
	.byte	$01
	.byte	$01
	.byte	$01
	.byte	$01
	.byte	$00
	.byte	$00
	.byte	$00
	.byte	$00
	.byte	$00
	.byte	$00
	.byte	$00
	.byte	$00
	.byte	$00
	.byte	$00
	.byte	$00
	.byte	$00
	.byte	$00
	.byte	$00
	.byte	$00
	.byte	$00
	.byte	$00
	.byte	$00
	.byte	$00
	.byte	$00
	.byte	$00
	.byte	$00
	.byte	$00
	.byte	$00
	.byte	$00
	.byte	$00
	.byte	$00
	.byte	$00
	.byte	$01
	.byte	$01
	.byte	$01
	.byte	$01
	.byte	$00
	.byte	$00
	.byte	$00
	.byte	$00
	.byte	$00
	.byte	$00
	.byte	$00
	.byte	$00
	.byte	$00
	.byte	$00
	.byte	$00
	.byte	$00
	.byte	$00
	.byte	$00
	.byte	$00
	.byte	$00
	.byte	$00
	.byte	$00
	.byte	$00
	.byte	$00
	.byte	$00
	.byte	$00
	.byte	$00
	.byte	$00
	.byte	$00
	.byte	$00
	.byte	$00
	.byte	$00
	.byte	$01
	.byte	$01
	.byte	$01
	.byte	$01
	.byte	$00
	.byte	$00
	.byte	$00
	.byte	$00
	.byte	$00
	.byte	$00
	.byte	$00
	.byte	$00
	.byte	$00
	.byte	$00
	.byte	$00
	.byte	$00
	.byte	$00
	.byte	$00
	.byte	$00
	.byte	$00
	.byte	$00
	.byte	$00
	.byte	$00
	.byte	$00
	.byte	$00
	.byte	$00
	.byte	$00
	.byte	$00
	.byte	$00
	.byte	$00
	.byte	$00
	.byte	$00
	.byte	$01
	.byte	$01
	.byte	$01
	.byte	$01
	.byte	$00
	.byte	$00
	.byte	$00
	.byte	$00
	.byte	$00
	.byte	$00
	.byte	$00
	.byte	$00
	.byte	$00
	.byte	$00
	.byte	$00
	.byte	$00
	.byte	$00
	.byte	$00
	.byte	$00
	.byte	$00
	.byte	$00
	.byte	$00
	.byte	$00
	.byte	$00
	.byte	$00
	.byte	$00
	.byte	$00
	.byte	$00
	.byte	$00
	.byte	$00
	.byte	$00
	.byte	$00
	.byte	$01
	.byte	$01
	.byte	$01
	.byte	$01
	.byte	$00
	.byte	$00
	.byte	$00
	.byte	$00
	.byte	$00
	.byte	$00
	.byte	$00
	.byte	$00
	.byte	$00
	.byte	$00
	.byte	$00
	.byte	$00
	.byte	$00
	.byte	$00
	.byte	$00
	.byte	$00
	.byte	$00
	.byte	$00
	.byte	$00
	.byte	$00
	.byte	$00
	.byte	$00
	.byte	$00
	.byte	$00
	.byte	$00
	.byte	$00
	.byte	$00
	.byte	$00
	.byte	$01
	.byte	$01
	.byte	$01
	.byte	$01
	.byte	$00
	.byte	$00
	.byte	$00
	.byte	$00
	.byte	$00
	.byte	$00
	.byte	$00
	.byte	$00
	.byte	$00
	.byte	$00
	.byte	$00
	.byte	$00
	.byte	$00
	.byte	$00
	.byte	$00
	.byte	$00
	.byte	$00
	.byte	$00
	.byte	$00
	.byte	$00
	.byte	$00
	.byte	$00
	.byte	$00
	.byte	$00
	.byte	$00
	.byte	$00
	.byte	$00
	.byte	$00
	.byte	$01
	.byte	$01
	.byte	$01
	.byte	$01
	.byte	$00
	.byte	$00
	.byte	$00
	.byte	$00
	.byte	$00
	.byte	$00
	.byte	$00
	.byte	$00
	.byte	$00
	.byte	$00
	.byte	$00
	.byte	$00
	.byte	$00
	.byte	$00
	.byte	$00
	.byte	$00
	.byte	$00
	.byte	$00
	.byte	$00
	.byte	$00
	.byte	$00
	.byte	$00
	.byte	$00
	.byte	$00
	.byte	$00
	.byte	$00
	.byte	$00
	.byte	$00
	.byte	$01
	.byte	$01
	.byte	$01
	.byte	$01
	.byte	$00
	.byte	$00
	.byte	$00
	.byte	$00
	.byte	$00
	.byte	$00
	.byte	$00
	.byte	$00
	.byte	$00
	.byte	$00
	.byte	$00
	.byte	$00
	.byte	$00
	.byte	$00
	.byte	$00
	.byte	$00
	.byte	$00
	.byte	$00
	.byte	$00
	.byte	$00
	.byte	$00
	.byte	$00
	.byte	$00
	.byte	$00
	.byte	$00
	.byte	$00
	.byte	$00
	.byte	$00
	.byte	$01
	.byte	$01
	.byte	$01
	.byte	$01
	.byte	$00
	.byte	$00
	.byte	$00
	.byte	$00
	.byte	$00
	.byte	$00
	.byte	$00
	.byte	$00
	.byte	$00
	.byte	$00
	.byte	$00
	.byte	$00
	.byte	$00
	.byte	$00
	.byte	$00
	.byte	$00
	.byte	$00
	.byte	$00
	.byte	$00
	.byte	$00
	.byte	$00
	.byte	$00
	.byte	$00
	.byte	$00
	.byte	$00
	.byte	$00
	.byte	$00
	.byte	$00
	.byte	$01
	.byte	$01
	.byte	$01
	.byte	$01
	.byte	$00
	.byte	$00
	.byte	$00
	.byte	$00
	.byte	$00
	.byte	$00
	.byte	$00
	.byte	$00
	.byte	$00
	.byte	$00
	.byte	$00
	.byte	$00
	.byte	$00
	.byte	$00
	.byte	$00
	.byte	$00
	.byte	$00
	.byte	$00
	.byte	$00
	.byte	$00
	.byte	$00
	.byte	$00
	.byte	$00
	.byte	$00
	.byte	$00
	.byte	$00
	.byte	$00
	.byte	$00
	.byte	$01
	.byte	$01
	.byte	$01
	.byte	$01
	.byte	$01
	.byte	$01
	.byte	$01
	.byte	$01
	.byte	$01
	.byte	$01
	.byte	$01
	.byte	$01
	.byte	$01
	.byte	$01
	.byte	$01
	.byte	$01
	.byte	$01
	.byte	$01
	.byte	$01
	.byte	$01
	.byte	$01
	.byte	$01
	.byte	$01
	.byte	$01
	.byte	$01
	.byte	$01
	.byte	$01
	.byte	$01
	.byte	$01
	.byte	$01
	.byte	$01
	.byte	$01
	.byte	$01
	.byte	$01
	.byte	$01
	.byte	$02
	.byte	$00
	.byte	$00
	.byte	$00
	.byte	$00
	.byte	$00
	.byte	$03
	.byte	$00
	.byte	$00
	.byte	$00
	.byte	$00
	.byte	$00
	.byte	$00
	.byte	$00
	.byte	$00
	.byte	$00
	.byte	$00
	.byte	$00
	.byte	$00
	.byte	$00
	.byte	$00
	.byte	$00
	.byte	$00
	.byte	$00
	.byte	$00
	.byte	$00
	.byte	$00
	.byte	$00
	.byte	$00
	.byte	$02
	.byte	$01
	.byte	$01
	.byte	$02
	.byte	$00
	.byte	$00
	.byte	$00
	.byte	$00
	.byte	$00
	.byte	$03
	.byte	$00
	.byte	$00
	.byte	$00
	.byte	$00
	.byte	$00
	.byte	$00
	.byte	$00
	.byte	$00
	.byte	$00
	.byte	$00
	.byte	$00
	.byte	$00
	.byte	$00
	.byte	$00
	.byte	$00
	.byte	$00
	.byte	$00
	.byte	$00
	.byte	$00
	.byte	$00
	.byte	$00
	.byte	$00
	.byte	$02
	.byte	$01
	.byte	$01
	.byte	$02
	.byte	$00
	.byte	$00
	.byte	$00
	.byte	$00
	.byte	$00
	.byte	$03
	.byte	$00
	.byte	$00
	.byte	$00
	.byte	$00
	.byte	$00
	.byte	$00
	.byte	$00
	.byte	$00
	.byte	$00
	.byte	$00
	.byte	$00
	.byte	$00
	.byte	$00
	.byte	$00
	.byte	$00
	.byte	$00
	.byte	$00
	.byte	$00
	.byte	$00
	.byte	$00
	.byte	$00
	.byte	$00
	.byte	$02
	.byte	$01
	.byte	$01
	.byte	$02
	.byte	$00
	.byte	$00
	.byte	$00
	.byte	$00
	.byte	$00
	.byte	$03
	.byte	$00
	.byte	$00
	.byte	$00
	.byte	$00
	.byte	$00
	.byte	$00
	.byte	$00
	.byte	$00
	.byte	$00
	.byte	$00
	.byte	$00
	.byte	$00
	.byte	$00
	.byte	$00
	.byte	$00
	.byte	$00
	.byte	$00
	.byte	$00
	.byte	$00
	.byte	$00
	.byte	$00
	.byte	$00
	.byte	$02
	.byte	$01
	.byte	$01
	.byte	$02
	.byte	$00
	.byte	$00
	.byte	$00
	.byte	$00
	.byte	$00
	.byte	$03
	.byte	$00
	.byte	$00
	.byte	$00
	.byte	$00
	.byte	$00
	.byte	$00
	.byte	$00
	.byte	$00
	.byte	$00
	.byte	$00
	.byte	$00
	.byte	$00
	.byte	$00
	.byte	$00
	.byte	$00
	.byte	$05
	.byte	$05
	.byte	$00
	.byte	$00
	.byte	$00
	.byte	$00
	.byte	$00
	.byte	$02
	.byte	$01
	.byte	$01
	.byte	$02
	.byte	$00
	.byte	$00
	.byte	$00
	.byte	$00
	.byte	$00
	.byte	$03
	.byte	$00
	.byte	$00
	.byte	$00
	.byte	$00
	.byte	$00
	.byte	$00
	.byte	$00
	.byte	$00
	.byte	$00
	.byte	$00
	.byte	$00
	.byte	$00
	.byte	$00
	.byte	$00
	.byte	$00
	.byte	$05
	.byte	$05
	.byte	$00
	.byte	$00
	.byte	$00
	.byte	$00
	.byte	$00
	.byte	$02
	.byte	$01
	.byte	$01
	.byte	$01
	.byte	$01
	.byte	$01
	.byte	$01
	.byte	$01
	.byte	$01
	.byte	$01
	.byte	$01
	.byte	$01
	.byte	$01
	.byte	$01
	.byte	$01
	.byte	$01
	.byte	$01
	.byte	$01
	.byte	$01
	.byte	$01
	.byte	$01
	.byte	$01
	.byte	$01
	.byte	$01
	.byte	$01
	.byte	$01
	.byte	$01
	.byte	$01
	.byte	$01
	.byte	$01
	.byte	$01
	.byte	$01
	.byte	$01
	.byte	$01
	.byte	$01
	.byte	$01
	.byte	$01
	.byte	$01
	.byte	$01
	.byte	$01
	.byte	$01
	.byte	$01
	.byte	$01
	.byte	$01
	.byte	$01
	.byte	$01
	.byte	$01
	.byte	$01
	.byte	$01
	.byte	$01
	.byte	$01
	.byte	$01
	.byte	$01
	.byte	$01
	.byte	$01
	.byte	$01
	.byte	$01
	.byte	$01
	.byte	$01
	.byte	$01
	.byte	$01
	.byte	$01
	.byte	$01
	.byte	$01
	.byte	$01
	.byte	$01
	.byte	$01
	.byte	$01
	.byte	$01
	.byte	$01
	.byte	$01
	.byte	$01
	.byte	$01
	.byte	$01
	.byte	$01
	.byte	$01
	.byte	$01
	.byte	$01
	.byte	$01
	.byte	$01
	.byte	$01
	.byte	$01
	.byte	$01
	.byte	$01
	.byte	$01
	.byte	$01
	.byte	$01
	.byte	$01
	.byte	$01
	.byte	$01
	.byte	$01
	.byte	$01
	.byte	$01
	.byte	$01
	.byte	$01
	.byte	$01
	.byte	$01
	.byte	$01
	.byte	$01
	.byte	$01
	.byte	$01
	.byte	$01
	.byte	$01
	.byte	$01
	.byte	$01
	.byte	$01
	.byte	$01
	.byte	$01
	.byte	$01
	.byte	$01
	.byte	$01
	.byte	$01
	.byte	$01
	.byte	$01
	.byte	$01
	.byte	$01
	.byte	$01
	.byte	$01
	.byte	$01
	.byte	$01
	.byte	$01
	.byte	$01
	.byte	$01
	.byte	$01
	.byte	$01
	.byte	$01
	.byte	$01
	.byte	$01
	.byte	$01
	.byte	$01
_levelFourCollision:
	.byte	$01
	.byte	$01
	.byte	$01
	.byte	$01
	.byte	$01
	.byte	$01
	.byte	$01
	.byte	$01
	.byte	$01
	.byte	$01
	.byte	$01
	.byte	$01
	.byte	$01
	.byte	$01
	.byte	$01
	.byte	$01
	.byte	$01
	.byte	$01
	.byte	$01
	.byte	$01
	.byte	$01
	.byte	$01
	.byte	$01
	.byte	$01
	.byte	$01
	.byte	$01
	.byte	$01
	.byte	$01
	.byte	$01
	.byte	$01
	.byte	$01
	.byte	$01
	.byte	$01
	.byte	$01
	.byte	$02
	.byte	$02
	.byte	$02
	.byte	$02
	.byte	$02
	.byte	$01
	.byte	$01
	.byte	$01
	.byte	$01
	.byte	$01
	.byte	$01
	.byte	$01
	.byte	$01
	.byte	$01
	.byte	$01
	.byte	$01
	.byte	$01
	.byte	$01
	.byte	$01
	.byte	$01
	.byte	$01
	.byte	$01
	.byte	$01
	.byte	$01
	.byte	$01
	.byte	$01
	.byte	$01
	.byte	$01
	.byte	$01
	.byte	$01
	.byte	$01
	.byte	$01
	.byte	$00
	.byte	$00
	.byte	$00
	.byte	$00
	.byte	$00
	.byte	$03
	.byte	$00
	.byte	$00
	.byte	$00
	.byte	$00
	.byte	$00
	.byte	$00
	.byte	$00
	.byte	$00
	.byte	$00
	.byte	$00
	.byte	$00
	.byte	$00
	.byte	$00
	.byte	$00
	.byte	$00
	.byte	$00
	.byte	$00
	.byte	$00
	.byte	$00
	.byte	$00
	.byte	$00
	.byte	$00
	.byte	$01
	.byte	$01
	.byte	$01
	.byte	$01
	.byte	$00
	.byte	$00
	.byte	$00
	.byte	$00
	.byte	$00
	.byte	$03
	.byte	$00
	.byte	$00
	.byte	$00
	.byte	$00
	.byte	$00
	.byte	$00
	.byte	$00
	.byte	$00
	.byte	$00
	.byte	$00
	.byte	$00
	.byte	$00
	.byte	$00
	.byte	$00
	.byte	$00
	.byte	$00
	.byte	$00
	.byte	$00
	.byte	$00
	.byte	$00
	.byte	$00
	.byte	$00
	.byte	$01
	.byte	$01
	.byte	$01
	.byte	$01
	.byte	$00
	.byte	$00
	.byte	$00
	.byte	$00
	.byte	$00
	.byte	$03
	.byte	$00
	.byte	$00
	.byte	$00
	.byte	$00
	.byte	$00
	.byte	$00
	.byte	$00
	.byte	$00
	.byte	$00
	.byte	$00
	.byte	$00
	.byte	$00
	.byte	$00
	.byte	$00
	.byte	$00
	.byte	$00
	.byte	$00
	.byte	$00
	.byte	$00
	.byte	$00
	.byte	$00
	.byte	$00
	.byte	$01
	.byte	$01
	.byte	$01
	.byte	$01
	.byte	$00
	.byte	$00
	.byte	$00
	.byte	$00
	.byte	$00
	.byte	$03
	.byte	$00
	.byte	$00
	.byte	$00
	.byte	$00
	.byte	$00
	.byte	$00
	.byte	$00
	.byte	$00
	.byte	$00
	.byte	$00
	.byte	$00
	.byte	$00
	.byte	$00
	.byte	$00
	.byte	$00
	.byte	$00
	.byte	$00
	.byte	$00
	.byte	$00
	.byte	$00
	.byte	$00
	.byte	$00
	.byte	$01
	.byte	$01
	.byte	$01
	.byte	$01
	.byte	$00
	.byte	$00
	.byte	$00
	.byte	$00
	.byte	$00
	.byte	$03
	.byte	$00
	.byte	$00
	.byte	$00
	.byte	$00
	.byte	$00
	.byte	$00
	.byte	$00
	.byte	$00
	.byte	$00
	.byte	$00
	.byte	$00
	.byte	$00
	.byte	$00
	.byte	$00
	.byte	$00
	.byte	$00
	.byte	$00
	.byte	$00
	.byte	$00
	.byte	$00
	.byte	$00
	.byte	$00
	.byte	$01
	.byte	$01
	.byte	$01
	.byte	$01
	.byte	$00
	.byte	$00
	.byte	$00
	.byte	$00
	.byte	$00
	.byte	$03
	.byte	$00
	.byte	$00
	.byte	$00
	.byte	$00
	.byte	$00
	.byte	$00
	.byte	$00
	.byte	$00
	.byte	$00
	.byte	$00
	.byte	$00
	.byte	$00
	.byte	$00
	.byte	$00
	.byte	$00
	.byte	$00
	.byte	$00
	.byte	$00
	.byte	$00
	.byte	$00
	.byte	$00
	.byte	$00
	.byte	$01
	.byte	$01
	.byte	$01
	.byte	$01
	.byte	$00
	.byte	$00
	.byte	$00
	.byte	$00
	.byte	$00
	.byte	$03
	.byte	$00
	.byte	$00
	.byte	$00
	.byte	$00
	.byte	$00
	.byte	$00
	.byte	$00
	.byte	$00
	.byte	$00
	.byte	$00
	.byte	$00
	.byte	$00
	.byte	$00
	.byte	$00
	.byte	$00
	.byte	$00
	.byte	$00
	.byte	$00
	.byte	$00
	.byte	$00
	.byte	$00
	.byte	$00
	.byte	$01
	.byte	$01
	.byte	$01
	.byte	$01
	.byte	$00
	.byte	$00
	.byte	$00
	.byte	$00
	.byte	$00
	.byte	$03
	.byte	$00
	.byte	$00
	.byte	$00
	.byte	$00
	.byte	$00
	.byte	$00
	.byte	$00
	.byte	$00
	.byte	$00
	.byte	$00
	.byte	$00
	.byte	$00
	.byte	$00
	.byte	$00
	.byte	$00
	.byte	$00
	.byte	$00
	.byte	$00
	.byte	$00
	.byte	$00
	.byte	$00
	.byte	$00
	.byte	$01
	.byte	$01
	.byte	$01
	.byte	$01
	.byte	$00
	.byte	$00
	.byte	$00
	.byte	$00
	.byte	$00
	.byte	$03
	.byte	$00
	.byte	$00
	.byte	$00
	.byte	$00
	.byte	$00
	.byte	$00
	.byte	$00
	.byte	$00
	.byte	$00
	.byte	$00
	.byte	$00
	.byte	$00
	.byte	$00
	.byte	$00
	.byte	$00
	.byte	$00
	.byte	$00
	.byte	$00
	.byte	$00
	.byte	$00
	.byte	$00
	.byte	$00
	.byte	$01
	.byte	$01
	.byte	$01
	.byte	$01
	.byte	$00
	.byte	$00
	.byte	$00
	.byte	$00
	.byte	$00
	.byte	$03
	.byte	$00
	.byte	$00
	.byte	$00
	.byte	$00
	.byte	$00
	.byte	$00
	.byte	$00
	.byte	$00
	.byte	$00
	.byte	$00
	.byte	$00
	.byte	$00
	.byte	$00
	.byte	$00
	.byte	$00
	.byte	$00
	.byte	$00
	.byte	$00
	.byte	$00
	.byte	$00
	.byte	$00
	.byte	$00
	.byte	$01
	.byte	$01
	.byte	$01
	.byte	$01
	.byte	$00
	.byte	$00
	.byte	$00
	.byte	$00
	.byte	$00
	.byte	$03
	.byte	$00
	.byte	$00
	.byte	$00
	.byte	$00
	.byte	$00
	.byte	$00
	.byte	$00
	.byte	$00
	.byte	$00
	.byte	$00
	.byte	$00
	.byte	$00
	.byte	$00
	.byte	$00
	.byte	$00
	.byte	$00
	.byte	$00
	.byte	$00
	.byte	$00
	.byte	$00
	.byte	$00
	.byte	$00
	.byte	$01
	.byte	$01
	.byte	$01
	.byte	$01
	.byte	$00
	.byte	$00
	.byte	$00
	.byte	$00
	.byte	$00
	.byte	$03
	.byte	$00
	.byte	$00
	.byte	$00
	.byte	$00
	.byte	$00
	.byte	$00
	.byte	$00
	.byte	$00
	.byte	$00
	.byte	$00
	.byte	$00
	.byte	$00
	.byte	$00
	.byte	$00
	.byte	$00
	.byte	$00
	.byte	$00
	.byte	$00
	.byte	$00
	.byte	$00
	.byte	$00
	.byte	$00
	.byte	$01
	.byte	$01
	.byte	$01
	.byte	$01
	.byte	$00
	.byte	$00
	.byte	$00
	.byte	$00
	.byte	$00
	.byte	$03
	.byte	$00
	.byte	$00
	.byte	$00
	.byte	$00
	.byte	$00
	.byte	$00
	.byte	$00
	.byte	$00
	.byte	$00
	.byte	$00
	.byte	$00
	.byte	$00
	.byte	$00
	.byte	$00
	.byte	$00
	.byte	$00
	.byte	$00
	.byte	$00
	.byte	$00
	.byte	$00
	.byte	$00
	.byte	$00
	.byte	$01
	.byte	$01
	.byte	$01
	.byte	$01
	.byte	$00
	.byte	$00
	.byte	$00
	.byte	$00
	.byte	$00
	.byte	$03
	.byte	$00
	.byte	$00
	.byte	$00
	.byte	$00
	.byte	$00
	.byte	$00
	.byte	$00
	.byte	$00
	.byte	$00
	.byte	$00
	.byte	$00
	.byte	$00
	.byte	$00
	.byte	$00
	.byte	$00
	.byte	$00
	.byte	$00
	.byte	$00
	.byte	$00
	.byte	$00
	.byte	$00
	.byte	$00
	.byte	$01
	.byte	$01
	.byte	$01
	.byte	$01
	.byte	$00
	.byte	$00
	.byte	$00
	.byte	$00
	.byte	$00
	.byte	$03
	.byte	$00
	.byte	$00
	.byte	$00
	.byte	$00
	.byte	$00
	.byte	$00
	.byte	$00
	.byte	$00
	.byte	$00
	.byte	$00
	.byte	$00
	.byte	$00
	.byte	$00
	.byte	$00
	.byte	$00
	.byte	$00
	.byte	$00
	.byte	$00
	.byte	$00
	.byte	$00
	.byte	$00
	.byte	$00
	.byte	$02
	.byte	$01
	.byte	$01
	.byte	$01
	.byte	$00
	.byte	$00
	.byte	$00
	.byte	$00
	.byte	$00
	.byte	$03
	.byte	$00
	.byte	$00
	.byte	$00
	.byte	$00
	.byte	$00
	.byte	$00
	.byte	$00
	.byte	$00
	.byte	$00
	.byte	$00
	.byte	$00
	.byte	$00
	.byte	$00
	.byte	$00
	.byte	$00
	.byte	$00
	.byte	$00
	.byte	$00
	.byte	$00
	.byte	$00
	.byte	$00
	.byte	$00
	.byte	$02
	.byte	$01
	.byte	$01
	.byte	$01
	.byte	$04
	.byte	$04
	.byte	$00
	.byte	$04
	.byte	$04
	.byte	$04
	.byte	$00
	.byte	$00
	.byte	$00
	.byte	$00
	.byte	$00
	.byte	$00
	.byte	$00
	.byte	$00
	.byte	$00
	.byte	$00
	.byte	$00
	.byte	$00
	.byte	$00
	.byte	$00
	.byte	$00
	.byte	$00
	.byte	$00
	.byte	$00
	.byte	$00
	.byte	$00
	.byte	$00
	.byte	$00
	.byte	$02
	.byte	$01
	.byte	$01
	.byte	$01
	.byte	$00
	.byte	$00
	.byte	$00
	.byte	$00
	.byte	$00
	.byte	$04
	.byte	$00
	.byte	$00
	.byte	$00
	.byte	$00
	.byte	$00
	.byte	$00
	.byte	$00
	.byte	$00
	.byte	$00
	.byte	$00
	.byte	$00
	.byte	$00
	.byte	$00
	.byte	$00
	.byte	$00
	.byte	$00
	.byte	$00
	.byte	$00
	.byte	$00
	.byte	$00
	.byte	$00
	.byte	$00
	.byte	$02
	.byte	$01
	.byte	$01
	.byte	$01
	.byte	$00
	.byte	$00
	.byte	$00
	.byte	$00
	.byte	$00
	.byte	$04
	.byte	$00
	.byte	$00
	.byte	$00
	.byte	$00
	.byte	$00
	.byte	$00
	.byte	$00
	.byte	$00
	.byte	$00
	.byte	$00
	.byte	$00
	.byte	$00
	.byte	$00
	.byte	$00
	.byte	$00
	.byte	$00
	.byte	$00
	.byte	$00
	.byte	$00
	.byte	$00
	.byte	$00
	.byte	$00
	.byte	$02
	.byte	$01
	.byte	$01
	.byte	$01
	.byte	$01
	.byte	$01
	.byte	$00
	.byte	$01
	.byte	$01
	.byte	$01
	.byte	$01
	.byte	$01
	.byte	$01
	.byte	$01
	.byte	$01
	.byte	$01
	.byte	$01
	.byte	$01
	.byte	$01
	.byte	$01
	.byte	$01
	.byte	$01
	.byte	$01
	.byte	$01
	.byte	$01
	.byte	$01
	.byte	$01
	.byte	$03
	.byte	$03
	.byte	$03
	.byte	$01
	.byte	$01
	.byte	$01
	.byte	$01
	.byte	$01
	.byte	$02
	.byte	$00
	.byte	$00
	.byte	$00
	.byte	$00
	.byte	$00
	.byte	$04
	.byte	$00
	.byte	$00
	.byte	$00
	.byte	$00
	.byte	$00
	.byte	$00
	.byte	$03
	.byte	$00
	.byte	$00
	.byte	$00
	.byte	$00
	.byte	$00
	.byte	$00
	.byte	$00
	.byte	$00
	.byte	$00
	.byte	$00
	.byte	$00
	.byte	$00
	.byte	$00
	.byte	$00
	.byte	$00
	.byte	$02
	.byte	$01
	.byte	$01
	.byte	$02
	.byte	$00
	.byte	$00
	.byte	$00
	.byte	$00
	.byte	$00
	.byte	$04
	.byte	$00
	.byte	$00
	.byte	$00
	.byte	$00
	.byte	$00
	.byte	$00
	.byte	$03
	.byte	$00
	.byte	$00
	.byte	$00
	.byte	$00
	.byte	$00
	.byte	$00
	.byte	$00
	.byte	$00
	.byte	$00
	.byte	$00
	.byte	$00
	.byte	$00
	.byte	$00
	.byte	$00
	.byte	$00
	.byte	$02
	.byte	$01
	.byte	$01
	.byte	$02
	.byte	$00
	.byte	$00
	.byte	$00
	.byte	$00
	.byte	$00
	.byte	$04
	.byte	$00
	.byte	$00
	.byte	$00
	.byte	$00
	.byte	$00
	.byte	$00
	.byte	$03
	.byte	$00
	.byte	$00
	.byte	$00
	.byte	$00
	.byte	$00
	.byte	$00
	.byte	$00
	.byte	$00
	.byte	$00
	.byte	$00
	.byte	$00
	.byte	$00
	.byte	$00
	.byte	$00
	.byte	$00
	.byte	$02
	.byte	$01
	.byte	$01
	.byte	$02
	.byte	$00
	.byte	$00
	.byte	$00
	.byte	$00
	.byte	$00
	.byte	$04
	.byte	$00
	.byte	$00
	.byte	$00
	.byte	$00
	.byte	$00
	.byte	$00
	.byte	$03
	.byte	$00
	.byte	$00
	.byte	$00
	.byte	$00
	.byte	$00
	.byte	$00
	.byte	$00
	.byte	$00
	.byte	$00
	.byte	$00
	.byte	$00
	.byte	$00
	.byte	$00
	.byte	$00
	.byte	$00
	.byte	$02
	.byte	$01
	.byte	$01
	.byte	$02
	.byte	$00
	.byte	$00
	.byte	$00
	.byte	$00
	.byte	$00
	.byte	$04
	.byte	$00
	.byte	$00
	.byte	$00
	.byte	$00
	.byte	$00
	.byte	$00
	.byte	$03
	.byte	$00
	.byte	$05
	.byte	$05
	.byte	$00
	.byte	$00
	.byte	$00
	.byte	$00
	.byte	$00
	.byte	$00
	.byte	$00
	.byte	$00
	.byte	$00
	.byte	$00
	.byte	$00
	.byte	$00
	.byte	$02
	.byte	$01
	.byte	$01
	.byte	$02
	.byte	$00
	.byte	$00
	.byte	$00
	.byte	$00
	.byte	$00
	.byte	$04
	.byte	$00
	.byte	$00
	.byte	$00
	.byte	$00
	.byte	$00
	.byte	$00
	.byte	$03
	.byte	$00
	.byte	$05
	.byte	$05
	.byte	$00
	.byte	$00
	.byte	$00
	.byte	$00
	.byte	$00
	.byte	$00
	.byte	$00
	.byte	$00
	.byte	$00
	.byte	$00
	.byte	$00
	.byte	$00
	.byte	$02
	.byte	$01
	.byte	$01
	.byte	$01
	.byte	$01
	.byte	$01
	.byte	$01
	.byte	$01
	.byte	$01
	.byte	$01
	.byte	$01
	.byte	$01
	.byte	$01
	.byte	$01
	.byte	$01
	.byte	$01
	.byte	$01
	.byte	$01
	.byte	$01
	.byte	$01
	.byte	$01
	.byte	$01
	.byte	$01
	.byte	$01
	.byte	$01
	.byte	$01
	.byte	$01
	.byte	$01
	.byte	$01
	.byte	$01
	.byte	$01
	.byte	$01
	.byte	$01
	.byte	$01
	.byte	$01
	.byte	$01
	.byte	$01
	.byte	$01
	.byte	$01
	.byte	$01
	.byte	$01
	.byte	$01
	.byte	$01
	.byte	$01
	.byte	$01
	.byte	$01
	.byte	$01
	.byte	$01
	.byte	$01
	.byte	$01
	.byte	$01
	.byte	$01
	.byte	$01
	.byte	$01
	.byte	$01
	.byte	$01
	.byte	$01
	.byte	$01
	.byte	$01
	.byte	$01
	.byte	$01
	.byte	$01
	.byte	$01
	.byte	$01
	.byte	$01
	.byte	$01
	.byte	$01
	.byte	$01
	.byte	$01
	.byte	$01
	.byte	$01
	.byte	$01
	.byte	$01
	.byte	$01
	.byte	$01
	.byte	$01
	.byte	$01
	.byte	$01
	.byte	$01
	.byte	$01
	.byte	$01
	.byte	$01
	.byte	$01
	.byte	$01
	.byte	$01
	.byte	$01
	.byte	$01
	.byte	$01
	.byte	$01
	.byte	$01
	.byte	$01
	.byte	$01
	.byte	$01
	.byte	$01
	.byte	$01
	.byte	$01
	.byte	$01
	.byte	$01
	.byte	$01
	.byte	$01
	.byte	$01
	.byte	$01
	.byte	$01
	.byte	$01
	.byte	$01
	.byte	$01
	.byte	$01
	.byte	$01
	.byte	$01
	.byte	$01
	.byte	$01
	.byte	$01
	.byte	$01
	.byte	$01
	.byte	$01
	.byte	$01
	.byte	$01
	.byte	$01
	.byte	$01
	.byte	$01
	.byte	$01
	.byte	$01
	.byte	$01
	.byte	$01
	.byte	$01
	.byte	$01
	.byte	$01
	.byte	$01
	.byte	$01
	.byte	$01
_levelFiveCollision:
	.byte	$01
	.byte	$01
	.byte	$01
	.byte	$01
	.byte	$01
	.byte	$01
	.byte	$01
	.byte	$01
	.byte	$01
	.byte	$01
	.byte	$01
	.byte	$01
	.byte	$01
	.byte	$01
	.byte	$01
	.byte	$01
	.byte	$01
	.byte	$01
	.byte	$01
	.byte	$01
	.byte	$01
	.byte	$01
	.byte	$01
	.byte	$01
	.byte	$01
	.byte	$01
	.byte	$01
	.byte	$01
	.byte	$01
	.byte	$01
	.byte	$01
	.byte	$01
	.byte	$01
	.byte	$02
	.byte	$02
	.byte	$02
	.byte	$02
	.byte	$02
	.byte	$02
	.byte	$02
	.byte	$02
	.byte	$02
	.byte	$02
	.byte	$02
	.byte	$01
	.byte	$01
	.byte	$01
	.byte	$01
	.byte	$01
	.byte	$01
	.byte	$01
	.byte	$01
	.byte	$01
	.byte	$01
	.byte	$01
	.byte	$01
	.byte	$01
	.byte	$01
	.byte	$01
	.byte	$01
	.byte	$01
	.byte	$01
	.byte	$01
	.byte	$01
	.byte	$01
	.byte	$02
	.byte	$00
	.byte	$00
	.byte	$00
	.byte	$00
	.byte	$00
	.byte	$00
	.byte	$00
	.byte	$00
	.byte	$00
	.byte	$00
	.byte	$00
	.byte	$00
	.byte	$00
	.byte	$00
	.byte	$00
	.byte	$00
	.byte	$00
	.byte	$00
	.byte	$00
	.byte	$00
	.byte	$00
	.byte	$00
	.byte	$00
	.byte	$00
	.byte	$00
	.byte	$00
	.byte	$00
	.byte	$00
	.byte	$01
	.byte	$01
	.byte	$01
	.byte	$02
	.byte	$00
	.byte	$00
	.byte	$00
	.byte	$00
	.byte	$00
	.byte	$00
	.byte	$00
	.byte	$00
	.byte	$00
	.byte	$00
	.byte	$00
	.byte	$00
	.byte	$00
	.byte	$00
	.byte	$00
	.byte	$00
	.byte	$00
	.byte	$00
	.byte	$00
	.byte	$00
	.byte	$00
	.byte	$00
	.byte	$00
	.byte	$00
	.byte	$00
	.byte	$00
	.byte	$00
	.byte	$00
	.byte	$01
	.byte	$01
	.byte	$01
	.byte	$02
	.byte	$00
	.byte	$00
	.byte	$00
	.byte	$00
	.byte	$00
	.byte	$00
	.byte	$00
	.byte	$00
	.byte	$00
	.byte	$00
	.byte	$00
	.byte	$00
	.byte	$00
	.byte	$00
	.byte	$00
	.byte	$00
	.byte	$00
	.byte	$00
	.byte	$00
	.byte	$00
	.byte	$00
	.byte	$00
	.byte	$00
	.byte	$00
	.byte	$00
	.byte	$00
	.byte	$00
	.byte	$00
	.byte	$01
	.byte	$01
	.byte	$01
	.byte	$02
	.byte	$00
	.byte	$00
	.byte	$00
	.byte	$00
	.byte	$00
	.byte	$00
	.byte	$00
	.byte	$00
	.byte	$00
	.byte	$00
	.byte	$00
	.byte	$00
	.byte	$00
	.byte	$00
	.byte	$00
	.byte	$00
	.byte	$00
	.byte	$00
	.byte	$00
	.byte	$00
	.byte	$00
	.byte	$00
	.byte	$00
	.byte	$00
	.byte	$00
	.byte	$00
	.byte	$00
	.byte	$00
	.byte	$01
	.byte	$01
	.byte	$01
	.byte	$02
	.byte	$00
	.byte	$00
	.byte	$00
	.byte	$00
	.byte	$00
	.byte	$00
	.byte	$00
	.byte	$00
	.byte	$00
	.byte	$00
	.byte	$00
	.byte	$00
	.byte	$00
	.byte	$00
	.byte	$00
	.byte	$00
	.byte	$00
	.byte	$00
	.byte	$00
	.byte	$00
	.byte	$00
	.byte	$00
	.byte	$00
	.byte	$00
	.byte	$00
	.byte	$00
	.byte	$00
	.byte	$00
	.byte	$02
	.byte	$01
	.byte	$01
	.byte	$02
	.byte	$00
	.byte	$00
	.byte	$00
	.byte	$00
	.byte	$00
	.byte	$00
	.byte	$00
	.byte	$00
	.byte	$00
	.byte	$00
	.byte	$00
	.byte	$00
	.byte	$00
	.byte	$00
	.byte	$00
	.byte	$00
	.byte	$00
	.byte	$00
	.byte	$00
	.byte	$00
	.byte	$00
	.byte	$00
	.byte	$00
	.byte	$00
	.byte	$00
	.byte	$00
	.byte	$00
	.byte	$00
	.byte	$02
	.byte	$01
	.byte	$01
	.byte	$02
	.byte	$00
	.byte	$00
	.byte	$00
	.byte	$00
	.byte	$00
	.byte	$00
	.byte	$00
	.byte	$00
	.byte	$00
	.byte	$00
	.byte	$00
	.byte	$00
	.byte	$00
	.byte	$00
	.byte	$00
	.byte	$00
	.byte	$00
	.byte	$00
	.byte	$00
	.byte	$00
	.byte	$00
	.byte	$00
	.byte	$00
	.byte	$00
	.byte	$00
	.byte	$00
	.byte	$00
	.byte	$00
	.byte	$02
	.byte	$01
	.byte	$01
	.byte	$02
	.byte	$00
	.byte	$00
	.byte	$00
	.byte	$00
	.byte	$00
	.byte	$00
	.byte	$00
	.byte	$00
	.byte	$00
	.byte	$00
	.byte	$00
	.byte	$00
	.byte	$00
	.byte	$00
	.byte	$00
	.byte	$00
	.byte	$00
	.byte	$00
	.byte	$00
	.byte	$00
	.byte	$00
	.byte	$00
	.byte	$00
	.byte	$00
	.byte	$00
	.byte	$00
	.byte	$00
	.byte	$00
	.byte	$02
	.byte	$01
	.byte	$01
	.byte	$02
	.byte	$00
	.byte	$00
	.byte	$00
	.byte	$00
	.byte	$00
	.byte	$00
	.byte	$00
	.byte	$00
	.byte	$00
	.byte	$00
	.byte	$00
	.byte	$00
	.byte	$00
	.byte	$00
	.byte	$00
	.byte	$00
	.byte	$00
	.byte	$00
	.byte	$00
	.byte	$00
	.byte	$00
	.byte	$00
	.byte	$00
	.byte	$00
	.byte	$00
	.byte	$00
	.byte	$00
	.byte	$00
	.byte	$02
	.byte	$01
	.byte	$01
	.byte	$02
	.byte	$00
	.byte	$00
	.byte	$00
	.byte	$00
	.byte	$00
	.byte	$00
	.byte	$00
	.byte	$00
	.byte	$00
	.byte	$00
	.byte	$00
	.byte	$00
	.byte	$00
	.byte	$00
	.byte	$00
	.byte	$00
	.byte	$00
	.byte	$00
	.byte	$00
	.byte	$00
	.byte	$00
	.byte	$00
	.byte	$00
	.byte	$00
	.byte	$00
	.byte	$00
	.byte	$00
	.byte	$00
	.byte	$02
	.byte	$01
	.byte	$01
	.byte	$01
	.byte	$01
	.byte	$01
	.byte	$01
	.byte	$01
	.byte	$01
	.byte	$01
	.byte	$00
	.byte	$00
	.byte	$00
	.byte	$00
	.byte	$00
	.byte	$00
	.byte	$00
	.byte	$00
	.byte	$00
	.byte	$00
	.byte	$00
	.byte	$00
	.byte	$00
	.byte	$00
	.byte	$00
	.byte	$01
	.byte	$01
	.byte	$01
	.byte	$01
	.byte	$01
	.byte	$01
	.byte	$01
	.byte	$01
	.byte	$01
	.byte	$01
	.byte	$01
	.byte	$00
	.byte	$00
	.byte	$00
	.byte	$00
	.byte	$00
	.byte	$00
	.byte	$00
	.byte	$00
	.byte	$00
	.byte	$00
	.byte	$00
	.byte	$00
	.byte	$00
	.byte	$00
	.byte	$00
	.byte	$00
	.byte	$00
	.byte	$00
	.byte	$00
	.byte	$00
	.byte	$00
	.byte	$00
	.byte	$00
	.byte	$00
	.byte	$00
	.byte	$00
	.byte	$00
	.byte	$00
	.byte	$01
	.byte	$01
	.byte	$01
	.byte	$01
	.byte	$00
	.byte	$00
	.byte	$00
	.byte	$00
	.byte	$00
	.byte	$00
	.byte	$00
	.byte	$00
	.byte	$00
	.byte	$00
	.byte	$00
	.byte	$00
	.byte	$00
	.byte	$00
	.byte	$00
	.byte	$00
	.byte	$00
	.byte	$00
	.byte	$00
	.byte	$00
	.byte	$00
	.byte	$00
	.byte	$00
	.byte	$00
	.byte	$00
	.byte	$00
	.byte	$00
	.byte	$00
	.byte	$01
	.byte	$01
	.byte	$01
	.byte	$01
	.byte	$00
	.byte	$00
	.byte	$00
	.byte	$00
	.byte	$00
	.byte	$00
	.byte	$00
	.byte	$00
	.byte	$00
	.byte	$00
	.byte	$00
	.byte	$00
	.byte	$00
	.byte	$00
	.byte	$00
	.byte	$00
	.byte	$00
	.byte	$00
	.byte	$00
	.byte	$00
	.byte	$00
	.byte	$00
	.byte	$00
	.byte	$00
	.byte	$00
	.byte	$00
	.byte	$00
	.byte	$00
	.byte	$01
	.byte	$01
	.byte	$01
	.byte	$01
	.byte	$00
	.byte	$00
	.byte	$00
	.byte	$00
	.byte	$00
	.byte	$00
	.byte	$00
	.byte	$00
	.byte	$00
	.byte	$00
	.byte	$00
	.byte	$00
	.byte	$00
	.byte	$00
	.byte	$00
	.byte	$00
	.byte	$00
	.byte	$00
	.byte	$00
	.byte	$00
	.byte	$00
	.byte	$00
	.byte	$00
	.byte	$00
	.byte	$00
	.byte	$00
	.byte	$00
	.byte	$00
	.byte	$01
	.byte	$01
	.byte	$01
	.byte	$01
	.byte	$00
	.byte	$00
	.byte	$00
	.byte	$00
	.byte	$00
	.byte	$00
	.byte	$00
	.byte	$00
	.byte	$00
	.byte	$00
	.byte	$00
	.byte	$00
	.byte	$00
	.byte	$00
	.byte	$00
	.byte	$00
	.byte	$00
	.byte	$00
	.byte	$00
	.byte	$00
	.byte	$00
	.byte	$00
	.byte	$00
	.byte	$00
	.byte	$00
	.byte	$00
	.byte	$00
	.byte	$00
	.byte	$01
	.byte	$01
	.byte	$01
	.byte	$01
	.byte	$00
	.byte	$00
	.byte	$00
	.byte	$00
	.byte	$00
	.byte	$00
	.byte	$00
	.byte	$00
	.byte	$00
	.byte	$00
	.byte	$00
	.byte	$00
	.byte	$00
	.byte	$00
	.byte	$00
	.byte	$00
	.byte	$00
	.byte	$00
	.byte	$00
	.byte	$00
	.byte	$00
	.byte	$00
	.byte	$00
	.byte	$00
	.byte	$00
	.byte	$00
	.byte	$00
	.byte	$00
	.byte	$01
	.byte	$01
	.byte	$01
	.byte	$01
	.byte	$00
	.byte	$00
	.byte	$00
	.byte	$00
	.byte	$00
	.byte	$00
	.byte	$00
	.byte	$00
	.byte	$00
	.byte	$00
	.byte	$00
	.byte	$00
	.byte	$00
	.byte	$00
	.byte	$00
	.byte	$00
	.byte	$00
	.byte	$00
	.byte	$00
	.byte	$00
	.byte	$00
	.byte	$00
	.byte	$00
	.byte	$00
	.byte	$00
	.byte	$00
	.byte	$00
	.byte	$00
	.byte	$01
	.byte	$01
	.byte	$01
	.byte	$01
	.byte	$00
	.byte	$00
	.byte	$00
	.byte	$00
	.byte	$00
	.byte	$00
	.byte	$00
	.byte	$00
	.byte	$00
	.byte	$00
	.byte	$00
	.byte	$00
	.byte	$00
	.byte	$00
	.byte	$00
	.byte	$00
	.byte	$00
	.byte	$00
	.byte	$00
	.byte	$00
	.byte	$00
	.byte	$00
	.byte	$00
	.byte	$00
	.byte	$00
	.byte	$00
	.byte	$00
	.byte	$00
	.byte	$01
	.byte	$01
	.byte	$01
	.byte	$01
	.byte	$00
	.byte	$00
	.byte	$00
	.byte	$00
	.byte	$00
	.byte	$00
	.byte	$00
	.byte	$00
	.byte	$00
	.byte	$00
	.byte	$00
	.byte	$00
	.byte	$00
	.byte	$00
	.byte	$00
	.byte	$00
	.byte	$00
	.byte	$00
	.byte	$00
	.byte	$00
	.byte	$00
	.byte	$00
	.byte	$00
	.byte	$00
	.byte	$00
	.byte	$00
	.byte	$00
	.byte	$00
	.byte	$01
	.byte	$01
	.byte	$01
	.byte	$01
	.byte	$00
	.byte	$00
	.byte	$00
	.byte	$00
	.byte	$00
	.byte	$00
	.byte	$00
	.byte	$00
	.byte	$00
	.byte	$00
	.byte	$00
	.byte	$00
	.byte	$00
	.byte	$00
	.byte	$00
	.byte	$00
	.byte	$00
	.byte	$00
	.byte	$00
	.byte	$00
	.byte	$00
	.byte	$00
	.byte	$00
	.byte	$00
	.byte	$00
	.byte	$00
	.byte	$00
	.byte	$00
	.byte	$01
	.byte	$01
	.byte	$01
	.byte	$01
	.byte	$00
	.byte	$00
	.byte	$00
	.byte	$00
	.byte	$00
	.byte	$00
	.byte	$00
	.byte	$00
	.byte	$00
	.byte	$00
	.byte	$00
	.byte	$00
	.byte	$00
	.byte	$00
	.byte	$00
	.byte	$00
	.byte	$00
	.byte	$00
	.byte	$00
	.byte	$00
	.byte	$00
	.byte	$03
	.byte	$03
	.byte	$03
	.byte	$03
	.byte	$03
	.byte	$03
	.byte	$03
	.byte	$01
	.byte	$01
	.byte	$01
	.byte	$02
	.byte	$00
	.byte	$00
	.byte	$00
	.byte	$00
	.byte	$00
	.byte	$00
	.byte	$00
	.byte	$00
	.byte	$00
	.byte	$00
	.byte	$00
	.byte	$00
	.byte	$00
	.byte	$00
	.byte	$00
	.byte	$00
	.byte	$00
	.byte	$00
	.byte	$00
	.byte	$00
	.byte	$00
	.byte	$03
	.byte	$00
	.byte	$00
	.byte	$00
	.byte	$00
	.byte	$00
	.byte	$00
	.byte	$02
	.byte	$01
	.byte	$01
	.byte	$02
	.byte	$00
	.byte	$00
	.byte	$00
	.byte	$00
	.byte	$00
	.byte	$00
	.byte	$00
	.byte	$00
	.byte	$00
	.byte	$00
	.byte	$00
	.byte	$00
	.byte	$00
	.byte	$00
	.byte	$00
	.byte	$00
	.byte	$00
	.byte	$00
	.byte	$00
	.byte	$00
	.byte	$00
	.byte	$03
	.byte	$00
	.byte	$00
	.byte	$00
	.byte	$00
	.byte	$00
	.byte	$00
	.byte	$02
	.byte	$01
	.byte	$01
	.byte	$02
	.byte	$00
	.byte	$00
	.byte	$00
	.byte	$00
	.byte	$00
	.byte	$00
	.byte	$00
	.byte	$00
	.byte	$00
	.byte	$00
	.byte	$00
	.byte	$00
	.byte	$00
	.byte	$00
	.byte	$00
	.byte	$00
	.byte	$00
	.byte	$00
	.byte	$00
	.byte	$00
	.byte	$00
	.byte	$03
	.byte	$00
	.byte	$00
	.byte	$00
	.byte	$00
	.byte	$00
	.byte	$00
	.byte	$02
	.byte	$01
	.byte	$01
	.byte	$02
	.byte	$00
	.byte	$00
	.byte	$00
	.byte	$00
	.byte	$00
	.byte	$00
	.byte	$00
	.byte	$00
	.byte	$00
	.byte	$00
	.byte	$00
	.byte	$00
	.byte	$00
	.byte	$00
	.byte	$00
	.byte	$00
	.byte	$00
	.byte	$00
	.byte	$00
	.byte	$00
	.byte	$00
	.byte	$03
	.byte	$00
	.byte	$00
	.byte	$06
	.byte	$06
	.byte	$00
	.byte	$00
	.byte	$02
	.byte	$01
	.byte	$01
	.byte	$01
	.byte	$01
	.byte	$01
	.byte	$01
	.byte	$01
	.byte	$01
	.byte	$01
	.byte	$01
	.byte	$01
	.byte	$01
	.byte	$01
	.byte	$01
	.byte	$01
	.byte	$01
	.byte	$01
	.byte	$01
	.byte	$01
	.byte	$01
	.byte	$01
	.byte	$01
	.byte	$01
	.byte	$01
	.byte	$01
	.byte	$01
	.byte	$01
	.byte	$01
	.byte	$01
	.byte	$01
	.byte	$01
	.byte	$01
	.byte	$01
	.byte	$01
	.byte	$01
	.byte	$01
	.byte	$01
	.byte	$01
	.byte	$01
	.byte	$01
	.byte	$01
	.byte	$01
	.byte	$01
	.byte	$01
	.byte	$01
	.byte	$01
	.byte	$01
	.byte	$01
	.byte	$01
	.byte	$01
	.byte	$01
	.byte	$01
	.byte	$01
	.byte	$01
	.byte	$01
	.byte	$01
	.byte	$01
	.byte	$01
	.byte	$01
	.byte	$01
	.byte	$01
	.byte	$01
	.byte	$01
	.byte	$01
	.byte	$01
	.byte	$01
	.byte	$01
	.byte	$01
	.byte	$01
	.byte	$01
	.byte	$01
	.byte	$01
	.byte	$01
	.byte	$01
	.byte	$01
	.byte	$01
	.byte	$01
	.byte	$01
	.byte	$01
	.byte	$01
	.byte	$01
	.byte	$01
	.byte	$01
	.byte	$01
	.byte	$01
	.byte	$01
	.byte	$01
	.byte	$06
	.byte	$01
	.byte	$01
	.byte	$01
	.byte	$01
	.byte	$01
	.byte	$01
	.byte	$01
	.byte	$01
	.byte	$01
	.byte	$01
	.byte	$01
	.byte	$01
	.byte	$01
	.byte	$01
	.byte	$01
	.byte	$01
	.byte	$01
	.byte	$01
	.byte	$01
	.byte	$01
	.byte	$01
	.byte	$01
	.byte	$01
	.byte	$01
	.byte	$01
	.byte	$01
	.byte	$01
	.byte	$01
	.byte	$01
	.byte	$01
	.byte	$01
	.byte	$01
	.byte	$01
	.byte	$01
	.byte	$01
	.byte	$01
	.byte	$01
	.byte	$01
	.byte	$01
	.byte	$01
	.byte	$01
_levelSixCollision:
	.byte	$01
	.byte	$01
	.byte	$01
	.byte	$01
	.byte	$01
	.byte	$01
	.byte	$01
	.byte	$01
	.byte	$01
	.byte	$01
	.byte	$01
	.byte	$01
	.byte	$01
	.byte	$01
	.byte	$01
	.byte	$01
	.byte	$01
	.byte	$01
	.byte	$01
	.byte	$01
	.byte	$01
	.byte	$01
	.byte	$01
	.byte	$01
	.byte	$01
	.byte	$01
	.byte	$01
	.byte	$01
	.byte	$01
	.byte	$01
	.byte	$01
	.byte	$01
	.byte	$01
	.byte	$02
	.byte	$02
	.byte	$02
	.byte	$02
	.byte	$02
	.byte	$02
	.byte	$02
	.byte	$02
	.byte	$02
	.byte	$02
	.byte	$02
	.byte	$02
	.byte	$02
	.byte	$01
	.byte	$01
	.byte	$01
	.byte	$01
	.byte	$02
	.byte	$02
	.byte	$02
	.byte	$02
	.byte	$02
	.byte	$02
	.byte	$02
	.byte	$02
	.byte	$02
	.byte	$02
	.byte	$02
	.byte	$02
	.byte	$02
	.byte	$01
	.byte	$01
	.byte	$02
	.byte	$00
	.byte	$00
	.byte	$00
	.byte	$00
	.byte	$00
	.byte	$00
	.byte	$00
	.byte	$00
	.byte	$00
	.byte	$00
	.byte	$00
	.byte	$00
	.byte	$04
	.byte	$04
	.byte	$04
	.byte	$04
	.byte	$00
	.byte	$00
	.byte	$00
	.byte	$00
	.byte	$00
	.byte	$00
	.byte	$00
	.byte	$00
	.byte	$00
	.byte	$00
	.byte	$00
	.byte	$00
	.byte	$02
	.byte	$01
	.byte	$01
	.byte	$02
	.byte	$00
	.byte	$00
	.byte	$00
	.byte	$00
	.byte	$00
	.byte	$00
	.byte	$00
	.byte	$00
	.byte	$00
	.byte	$00
	.byte	$00
	.byte	$00
	.byte	$04
	.byte	$04
	.byte	$04
	.byte	$04
	.byte	$00
	.byte	$00
	.byte	$00
	.byte	$00
	.byte	$00
	.byte	$00
	.byte	$00
	.byte	$00
	.byte	$00
	.byte	$00
	.byte	$00
	.byte	$00
	.byte	$02
	.byte	$01
	.byte	$01
	.byte	$02
	.byte	$00
	.byte	$00
	.byte	$00
	.byte	$00
	.byte	$00
	.byte	$00
	.byte	$00
	.byte	$00
	.byte	$00
	.byte	$00
	.byte	$00
	.byte	$00
	.byte	$04
	.byte	$04
	.byte	$04
	.byte	$04
	.byte	$00
	.byte	$00
	.byte	$00
	.byte	$00
	.byte	$00
	.byte	$00
	.byte	$00
	.byte	$00
	.byte	$00
	.byte	$00
	.byte	$00
	.byte	$00
	.byte	$02
	.byte	$01
	.byte	$01
	.byte	$02
	.byte	$00
	.byte	$00
	.byte	$00
	.byte	$00
	.byte	$00
	.byte	$00
	.byte	$00
	.byte	$00
	.byte	$00
	.byte	$00
	.byte	$00
	.byte	$00
	.byte	$04
	.byte	$04
	.byte	$04
	.byte	$04
	.byte	$00
	.byte	$00
	.byte	$00
	.byte	$00
	.byte	$00
	.byte	$00
	.byte	$00
	.byte	$00
	.byte	$00
	.byte	$00
	.byte	$00
	.byte	$00
	.byte	$02
	.byte	$01
	.byte	$01
	.byte	$02
	.byte	$00
	.byte	$00
	.byte	$00
	.byte	$00
	.byte	$00
	.byte	$00
	.byte	$00
	.byte	$00
	.byte	$00
	.byte	$00
	.byte	$00
	.byte	$00
	.byte	$04
	.byte	$04
	.byte	$04
	.byte	$04
	.byte	$00
	.byte	$00
	.byte	$00
	.byte	$00
	.byte	$00
	.byte	$00
	.byte	$00
	.byte	$00
	.byte	$00
	.byte	$00
	.byte	$00
	.byte	$00
	.byte	$02
	.byte	$01
	.byte	$01
	.byte	$02
	.byte	$00
	.byte	$00
	.byte	$00
	.byte	$00
	.byte	$00
	.byte	$00
	.byte	$00
	.byte	$00
	.byte	$00
	.byte	$00
	.byte	$00
	.byte	$00
	.byte	$04
	.byte	$04
	.byte	$04
	.byte	$04
	.byte	$00
	.byte	$00
	.byte	$00
	.byte	$00
	.byte	$00
	.byte	$00
	.byte	$00
	.byte	$00
	.byte	$00
	.byte	$00
	.byte	$00
	.byte	$00
	.byte	$02
	.byte	$01
	.byte	$01
	.byte	$02
	.byte	$00
	.byte	$00
	.byte	$00
	.byte	$00
	.byte	$00
	.byte	$00
	.byte	$00
	.byte	$00
	.byte	$00
	.byte	$00
	.byte	$00
	.byte	$00
	.byte	$04
	.byte	$04
	.byte	$04
	.byte	$04
	.byte	$00
	.byte	$00
	.byte	$00
	.byte	$00
	.byte	$00
	.byte	$00
	.byte	$00
	.byte	$00
	.byte	$00
	.byte	$00
	.byte	$00
	.byte	$00
	.byte	$02
	.byte	$01
	.byte	$01
	.byte	$02
	.byte	$00
	.byte	$00
	.byte	$00
	.byte	$00
	.byte	$00
	.byte	$00
	.byte	$00
	.byte	$00
	.byte	$00
	.byte	$00
	.byte	$00
	.byte	$00
	.byte	$04
	.byte	$04
	.byte	$04
	.byte	$04
	.byte	$00
	.byte	$00
	.byte	$00
	.byte	$00
	.byte	$00
	.byte	$00
	.byte	$00
	.byte	$00
	.byte	$00
	.byte	$00
	.byte	$00
	.byte	$00
	.byte	$02
	.byte	$01
	.byte	$01
	.byte	$01
	.byte	$01
	.byte	$01
	.byte	$01
	.byte	$01
	.byte	$01
	.byte	$00
	.byte	$00
	.byte	$00
	.byte	$00
	.byte	$00
	.byte	$00
	.byte	$00
	.byte	$03
	.byte	$03
	.byte	$03
	.byte	$03
	.byte	$00
	.byte	$00
	.byte	$00
	.byte	$00
	.byte	$00
	.byte	$00
	.byte	$00
	.byte	$01
	.byte	$01
	.byte	$01
	.byte	$01
	.byte	$01
	.byte	$01
	.byte	$01
	.byte	$01
	.byte	$01
	.byte	$00
	.byte	$00
	.byte	$00
	.byte	$00
	.byte	$00
	.byte	$00
	.byte	$00
	.byte	$00
	.byte	$00
	.byte	$00
	.byte	$00
	.byte	$00
	.byte	$03
	.byte	$03
	.byte	$03
	.byte	$03
	.byte	$00
	.byte	$00
	.byte	$00
	.byte	$00
	.byte	$00
	.byte	$00
	.byte	$00
	.byte	$00
	.byte	$00
	.byte	$00
	.byte	$00
	.byte	$00
	.byte	$01
	.byte	$01
	.byte	$01
	.byte	$01
	.byte	$00
	.byte	$00
	.byte	$00
	.byte	$00
	.byte	$00
	.byte	$00
	.byte	$00
	.byte	$00
	.byte	$00
	.byte	$00
	.byte	$00
	.byte	$00
	.byte	$03
	.byte	$03
	.byte	$03
	.byte	$03
	.byte	$00
	.byte	$00
	.byte	$00
	.byte	$00
	.byte	$00
	.byte	$00
	.byte	$00
	.byte	$00
	.byte	$00
	.byte	$00
	.byte	$00
	.byte	$00
	.byte	$01
	.byte	$01
	.byte	$01
	.byte	$01
	.byte	$00
	.byte	$00
	.byte	$00
	.byte	$00
	.byte	$00
	.byte	$00
	.byte	$00
	.byte	$00
	.byte	$00
	.byte	$00
	.byte	$00
	.byte	$00
	.byte	$03
	.byte	$03
	.byte	$03
	.byte	$03
	.byte	$00
	.byte	$00
	.byte	$00
	.byte	$00
	.byte	$00
	.byte	$00
	.byte	$00
	.byte	$00
	.byte	$00
	.byte	$00
	.byte	$00
	.byte	$00
	.byte	$01
	.byte	$01
	.byte	$01
	.byte	$01
	.byte	$00
	.byte	$00
	.byte	$00
	.byte	$00
	.byte	$00
	.byte	$00
	.byte	$00
	.byte	$00
	.byte	$00
	.byte	$00
	.byte	$00
	.byte	$00
	.byte	$03
	.byte	$03
	.byte	$03
	.byte	$03
	.byte	$00
	.byte	$00
	.byte	$00
	.byte	$00
	.byte	$00
	.byte	$00
	.byte	$00
	.byte	$00
	.byte	$00
	.byte	$00
	.byte	$00
	.byte	$00
	.byte	$01
	.byte	$01
	.byte	$01
	.byte	$01
	.byte	$00
	.byte	$00
	.byte	$00
	.byte	$00
	.byte	$00
	.byte	$00
	.byte	$00
	.byte	$00
	.byte	$00
	.byte	$00
	.byte	$00
	.byte	$00
	.byte	$03
	.byte	$03
	.byte	$03
	.byte	$03
	.byte	$00
	.byte	$00
	.byte	$00
	.byte	$00
	.byte	$00
	.byte	$00
	.byte	$00
	.byte	$00
	.byte	$00
	.byte	$00
	.byte	$00
	.byte	$00
	.byte	$01
	.byte	$01
	.byte	$01
	.byte	$01
	.byte	$00
	.byte	$00
	.byte	$00
	.byte	$00
	.byte	$00
	.byte	$00
	.byte	$00
	.byte	$00
	.byte	$00
	.byte	$00
	.byte	$00
	.byte	$00
	.byte	$03
	.byte	$03
	.byte	$03
	.byte	$03
	.byte	$00
	.byte	$00
	.byte	$00
	.byte	$00
	.byte	$00
	.byte	$00
	.byte	$00
	.byte	$00
	.byte	$00
	.byte	$00
	.byte	$00
	.byte	$00
	.byte	$01
	.byte	$01
	.byte	$01
	.byte	$01
	.byte	$00
	.byte	$00
	.byte	$00
	.byte	$00
	.byte	$00
	.byte	$00
	.byte	$00
	.byte	$00
	.byte	$00
	.byte	$00
	.byte	$00
	.byte	$00
	.byte	$03
	.byte	$03
	.byte	$03
	.byte	$03
	.byte	$00
	.byte	$00
	.byte	$00
	.byte	$00
	.byte	$00
	.byte	$00
	.byte	$00
	.byte	$00
	.byte	$00
	.byte	$00
	.byte	$00
	.byte	$00
	.byte	$01
	.byte	$01
	.byte	$01
	.byte	$01
	.byte	$00
	.byte	$00
	.byte	$00
	.byte	$00
	.byte	$00
	.byte	$00
	.byte	$00
	.byte	$00
	.byte	$00
	.byte	$00
	.byte	$00
	.byte	$00
	.byte	$03
	.byte	$03
	.byte	$03
	.byte	$03
	.byte	$00
	.byte	$00
	.byte	$00
	.byte	$00
	.byte	$00
	.byte	$00
	.byte	$00
	.byte	$00
	.byte	$00
	.byte	$00
	.byte	$00
	.byte	$00
	.byte	$01
	.byte	$01
	.byte	$01
	.byte	$01
	.byte	$01
	.byte	$01
	.byte	$01
	.byte	$01
	.byte	$01
	.byte	$00
	.byte	$00
	.byte	$00
	.byte	$00
	.byte	$00
	.byte	$00
	.byte	$00
	.byte	$03
	.byte	$03
	.byte	$03
	.byte	$03
	.byte	$00
	.byte	$00
	.byte	$00
	.byte	$00
	.byte	$00
	.byte	$00
	.byte	$00
	.byte	$01
	.byte	$01
	.byte	$01
	.byte	$01
	.byte	$01
	.byte	$01
	.byte	$01
	.byte	$01
	.byte	$02
	.byte	$00
	.byte	$00
	.byte	$00
	.byte	$00
	.byte	$00
	.byte	$00
	.byte	$00
	.byte	$00
	.byte	$00
	.byte	$00
	.byte	$00
	.byte	$00
	.byte	$04
	.byte	$04
	.byte	$04
	.byte	$04
	.byte	$00
	.byte	$00
	.byte	$00
	.byte	$00
	.byte	$00
	.byte	$00
	.byte	$00
	.byte	$00
	.byte	$00
	.byte	$00
	.byte	$00
	.byte	$00
	.byte	$02
	.byte	$01
	.byte	$01
	.byte	$02
	.byte	$00
	.byte	$00
	.byte	$00
	.byte	$00
	.byte	$00
	.byte	$00
	.byte	$00
	.byte	$00
	.byte	$00
	.byte	$00
	.byte	$00
	.byte	$00
	.byte	$04
	.byte	$04
	.byte	$04
	.byte	$04
	.byte	$00
	.byte	$00
	.byte	$00
	.byte	$00
	.byte	$00
	.byte	$00
	.byte	$00
	.byte	$00
	.byte	$00
	.byte	$00
	.byte	$00
	.byte	$00
	.byte	$02
	.byte	$01
	.byte	$01
	.byte	$02
	.byte	$00
	.byte	$00
	.byte	$00
	.byte	$00
	.byte	$00
	.byte	$00
	.byte	$00
	.byte	$00
	.byte	$00
	.byte	$00
	.byte	$00
	.byte	$00
	.byte	$04
	.byte	$04
	.byte	$04
	.byte	$04
	.byte	$00
	.byte	$00
	.byte	$00
	.byte	$00
	.byte	$00
	.byte	$00
	.byte	$00
	.byte	$00
	.byte	$00
	.byte	$00
	.byte	$00
	.byte	$00
	.byte	$02
	.byte	$01
	.byte	$01
	.byte	$02
	.byte	$00
	.byte	$00
	.byte	$00
	.byte	$00
	.byte	$00
	.byte	$00
	.byte	$00
	.byte	$00
	.byte	$00
	.byte	$00
	.byte	$00
	.byte	$00
	.byte	$04
	.byte	$04
	.byte	$04
	.byte	$04
	.byte	$00
	.byte	$00
	.byte	$00
	.byte	$00
	.byte	$00
	.byte	$00
	.byte	$00
	.byte	$00
	.byte	$00
	.byte	$00
	.byte	$00
	.byte	$00
	.byte	$02
	.byte	$01
	.byte	$01
	.byte	$02
	.byte	$00
	.byte	$00
	.byte	$00
	.byte	$00
	.byte	$00
	.byte	$00
	.byte	$00
	.byte	$00
	.byte	$00
	.byte	$00
	.byte	$00
	.byte	$00
	.byte	$04
	.byte	$04
	.byte	$04
	.byte	$04
	.byte	$00
	.byte	$00
	.byte	$00
	.byte	$00
	.byte	$00
	.byte	$00
	.byte	$00
	.byte	$00
	.byte	$00
	.byte	$00
	.byte	$00
	.byte	$00
	.byte	$02
	.byte	$01
	.byte	$01
	.byte	$02
	.byte	$00
	.byte	$00
	.byte	$00
	.byte	$00
	.byte	$00
	.byte	$00
	.byte	$00
	.byte	$00
	.byte	$00
	.byte	$00
	.byte	$00
	.byte	$00
	.byte	$04
	.byte	$04
	.byte	$04
	.byte	$04
	.byte	$00
	.byte	$00
	.byte	$00
	.byte	$00
	.byte	$00
	.byte	$00
	.byte	$00
	.byte	$00
	.byte	$00
	.byte	$00
	.byte	$00
	.byte	$00
	.byte	$02
	.byte	$01
	.byte	$01
	.byte	$02
	.byte	$00
	.byte	$00
	.byte	$00
	.byte	$00
	.byte	$00
	.byte	$00
	.byte	$00
	.byte	$00
	.byte	$00
	.byte	$00
	.byte	$00
	.byte	$00
	.byte	$04
	.byte	$04
	.byte	$04
	.byte	$04
	.byte	$00
	.byte	$00
	.byte	$00
	.byte	$00
	.byte	$00
	.byte	$00
	.byte	$00
	.byte	$00
	.byte	$00
	.byte	$00
	.byte	$00
	.byte	$00
	.byte	$02
	.byte	$01
	.byte	$01
	.byte	$02
	.byte	$00
	.byte	$00
	.byte	$00
	.byte	$00
	.byte	$00
	.byte	$00
	.byte	$00
	.byte	$00
	.byte	$00
	.byte	$00
	.byte	$00
	.byte	$00
	.byte	$04
	.byte	$04
	.byte	$04
	.byte	$04
	.byte	$00
	.byte	$00
	.byte	$00
	.byte	$00
	.byte	$00
	.byte	$00
	.byte	$06
	.byte	$06
	.byte	$00
	.byte	$00
	.byte	$00
	.byte	$00
	.byte	$02
	.byte	$01
	.byte	$01
	.byte	$02
	.byte	$03
	.byte	$03
	.byte	$03
	.byte	$03
	.byte	$03
	.byte	$03
	.byte	$03
	.byte	$03
	.byte	$03
	.byte	$03
	.byte	$03
	.byte	$03
	.byte	$01
	.byte	$01
	.byte	$01
	.byte	$01
	.byte	$03
	.byte	$03
	.byte	$03
	.byte	$03
	.byte	$03
	.byte	$03
	.byte	$03
	.byte	$03
	.byte	$03
	.byte	$03
	.byte	$03
	.byte	$03
	.byte	$02
	.byte	$01
	.byte	$01
	.byte	$01
	.byte	$01
	.byte	$01
	.byte	$01
	.byte	$01
	.byte	$01
	.byte	$01
	.byte	$01
	.byte	$01
	.byte	$01
	.byte	$01
	.byte	$01
	.byte	$01
	.byte	$01
	.byte	$01
	.byte	$01
	.byte	$01
	.byte	$01
	.byte	$01
	.byte	$01
	.byte	$01
	.byte	$01
	.byte	$01
	.byte	$01
	.byte	$01
	.byte	$01
	.byte	$01
	.byte	$01
	.byte	$01
	.byte	$01
	.byte	$01
	.byte	$01
	.byte	$01
	.byte	$01
	.byte	$01
	.byte	$01
	.byte	$01
	.byte	$01
	.byte	$01
	.byte	$01
	.byte	$01
	.byte	$01
	.byte	$01
	.byte	$01
	.byte	$01
	.byte	$01
	.byte	$01
	.byte	$01
	.byte	$01
	.byte	$01
	.byte	$01
	.byte	$01
	.byte	$01
	.byte	$01
	.byte	$01
	.byte	$01
	.byte	$01
	.byte	$01
	.byte	$01
	.byte	$01
	.byte	$01
	.byte	$01
	.byte	$01
	.byte	$01
	.byte	$01
	.byte	$01
	.byte	$01
	.byte	$01
	.byte	$01
	.byte	$01
	.byte	$01
	.byte	$01
	.byte	$01
	.byte	$01
	.byte	$01
	.byte	$01
	.byte	$01
	.byte	$01
	.byte	$01
	.byte	$01
	.byte	$01
	.byte	$01
	.byte	$01
	.byte	$01
	.byte	$01
	.byte	$01
	.byte	$01
	.byte	$01
	.byte	$01
	.byte	$01
	.byte	$01
	.byte	$01
	.byte	$01
	.byte	$01
	.byte	$01
_menu:
	.byte	$00
	.byte	$00
	.byte	$00
	.byte	$00
	.byte	$00
	.byte	$00
	.byte	$00
	.byte	$00
	.byte	$00
	.byte	$00
	.byte	$00
	.byte	$00
	.byte	$00
	.byte	$00
	.byte	$00
	.byte	$00
	.byte	$00
	.byte	$00
	.byte	$00
	.byte	$00
	.byte	$00
	.byte	$00
	.byte	$00
	.byte	$00
	.byte	$00
	.byte	$00
	.byte	$00
	.byte	$00
	.byte	$00
	.byte	$00
	.byte	$00
	.byte	$00
	.byte	$00
	.byte	$00
	.byte	$00
	.byte	$F0
	.byte	$F1
	.byte	$F1
	.byte	$F1
	.byte	$F1
	.byte	$F1
	.byte	$F1
	.byte	$F1
	.byte	$F1
	.byte	$F1
	.byte	$F1
	.byte	$F1
	.byte	$F1
	.byte	$F1
	.byte	$F1
	.byte	$F1
	.byte	$F1
	.byte	$F1
	.byte	$F1
	.byte	$F1
	.byte	$F1
	.byte	$F1
	.byte	$F1
	.byte	$F1
	.byte	$00
	.byte	$00
	.byte	$00
	.byte	$00
	.byte	$00
	.byte	$00
	.byte	$00
	.byte	$00
	.byte	$F1
	.byte	$F1
	.byte	$F1
	.byte	$F1
	.byte	$F1
	.byte	$F1
	.byte	$F1
	.byte	$F1
	.byte	$F1
	.byte	$F1
	.byte	$F1
	.byte	$F1
	.byte	$F1
	.byte	$F1
	.byte	$F1
	.byte	$F1
	.byte	$F1
	.byte	$F1
	.byte	$F1
	.byte	$F1
	.byte	$F1
	.byte	$F1
	.byte	$F1
	.byte	$F1
	.byte	$F1
	.byte	$00
	.byte	$00
	.byte	$00
	.byte	$00
	.byte	$00
	.byte	$00
	.byte	$F2
	.byte	$F2
	.byte	$F2
	.byte	$F2
	.byte	$00
	.byte	$00
	.byte	$00
	.byte	$00
	.byte	$00
	.byte	$00
	.byte	$00
	.byte	$00
	.byte	$00
	.byte	$00
	.byte	$00
	.byte	$00
	.byte	$F2
	.byte	$F3
	.byte	$00
	.byte	$F0
	.byte	$00
	.byte	$00
	.byte	$00
	.byte	$00
	.byte	$F1
	.byte	$F1
	.byte	$F2
	.byte	$F3
	.byte	$00
	.byte	$00
	.byte	$00
	.byte	$F2
	.byte	$F3
	.byte	$F3
	.byte	$F3
	.byte	$F3
	.byte	$F3
	.byte	$00
	.byte	$00
	.byte	$00
	.byte	$00
	.byte	$00
	.byte	$00
	.byte	$00
	.byte	$00
	.byte	$00
	.byte	$00
	.byte	$00
	.byte	$F2
	.byte	$F3
	.byte	$00
	.byte	$00
	.byte	$00
	.byte	$00
	.byte	$00
	.byte	$00
	.byte	$00
	.byte	$F1
	.byte	$F2
	.byte	$F3
	.byte	$00
	.byte	$00
	.byte	$00
	.byte	$F2
	.byte	$F3
	.byte	$F2
	.byte	$F2
	.byte	$F3
	.byte	$F3
	.byte	$00
	.byte	$00
	.byte	$00
	.byte	$00
	.byte	$00
	.byte	$00
	.byte	$00
	.byte	$00
	.byte	$00
	.byte	$00
	.byte	$F2
	.byte	$F3
	.byte	$F3
	.byte	$F3
	.byte	$00
	.byte	$00
	.byte	$00
	.byte	$00
	.byte	$00
	.byte	$00
	.byte	$F1
	.byte	$F2
	.byte	$F3
	.byte	$00
	.byte	$00
	.byte	$00
	.byte	$F2
	.byte	$F3
	.byte	$F3
	.byte	$F3
	.byte	$F3
	.byte	$F3
	.byte	$F0
	.byte	$F0
	.byte	$00
	.byte	$00
	.byte	$00
	.byte	$00
	.byte	$00
	.byte	$00
	.byte	$00
	.byte	$00
	.byte	$F2
	.byte	$F3
	.byte	$F3
	.byte	$F3
	.byte	$00
	.byte	$F2
	.byte	$F2
	.byte	$F2
	.byte	$00
	.byte	$00
	.byte	$F1
	.byte	$F2
	.byte	$F3
	.byte	$00
	.byte	$00
	.byte	$00
	.byte	$F2
	.byte	$F3
	.byte	$F3
	.byte	$F3
	.byte	$F3
	.byte	$00
	.byte	$F2
	.byte	$F2
	.byte	$F2
	.byte	$F0
	.byte	$00
	.byte	$F2
	.byte	$F2
	.byte	$00
	.byte	$F2
	.byte	$F2
	.byte	$00
	.byte	$F2
	.byte	$F3
	.byte	$00
	.byte	$F2
	.byte	$F3
	.byte	$F3
	.byte	$F3
	.byte	$F3
	.byte	$00
	.byte	$F1
	.byte	$F2
	.byte	$F3
	.byte	$00
	.byte	$00
	.byte	$00
	.byte	$F2
	.byte	$F3
	.byte	$F3
	.byte	$F1
	.byte	$00
	.byte	$F2
	.byte	$F3
	.byte	$F3
	.byte	$F3
	.byte	$F3
	.byte	$00
	.byte	$F2
	.byte	$F3
	.byte	$F2
	.byte	$F3
	.byte	$F3
	.byte	$00
	.byte	$F2
	.byte	$F3
	.byte	$00
	.byte	$F2
	.byte	$F3
	.byte	$F2
	.byte	$F3
	.byte	$F3
	.byte	$00
	.byte	$F1
	.byte	$F2
	.byte	$F3
	.byte	$00
	.byte	$00
	.byte	$00
	.byte	$F2
	.byte	$F3
	.byte	$F3
	.byte	$F1
	.byte	$00
	.byte	$F2
	.byte	$F3
	.byte	$F2
	.byte	$F3
	.byte	$F3
	.byte	$00
	.byte	$F2
	.byte	$F3
	.byte	$F3
	.byte	$00
	.byte	$00
	.byte	$00
	.byte	$F2
	.byte	$F3
	.byte	$00
	.byte	$F2
	.byte	$F3
	.byte	$F2
	.byte	$F3
	.byte	$F3
	.byte	$00
	.byte	$F1
	.byte	$F2
	.byte	$F3
	.byte	$00
	.byte	$00
	.byte	$00
	.byte	$F2
	.byte	$F3
	.byte	$F3
	.byte	$F1
	.byte	$00
	.byte	$F2
	.byte	$F3
	.byte	$F3
	.byte	$F3
	.byte	$F3
	.byte	$00
	.byte	$F2
	.byte	$F3
	.byte	$00
	.byte	$00
	.byte	$00
	.byte	$00
	.byte	$F2
	.byte	$F3
	.byte	$00
	.byte	$F2
	.byte	$F3
	.byte	$F3
	.byte	$F3
	.byte	$F3
	.byte	$F3
	.byte	$F1
	.byte	$F2
	.byte	$F3
	.byte	$F3
	.byte	$00
	.byte	$00
	.byte	$F2
	.byte	$F3
	.byte	$F3
	.byte	$F1
	.byte	$00
	.byte	$00
	.byte	$F3
	.byte	$F3
	.byte	$F3
	.byte	$00
	.byte	$00
	.byte	$F2
	.byte	$F3
	.byte	$00
	.byte	$00
	.byte	$00
	.byte	$00
	.byte	$F2
	.byte	$F3
	.byte	$00
	.byte	$00
	.byte	$F2
	.byte	$F3
	.byte	$F3
	.byte	$00
	.byte	$F3
	.byte	$F1
	.byte	$F2
	.byte	$F2
	.byte	$F2
	.byte	$00
	.byte	$00
	.byte	$00
	.byte	$00
	.byte	$F1
	.byte	$F1
	.byte	$00
	.byte	$00
	.byte	$00
	.byte	$00
	.byte	$00
	.byte	$00
	.byte	$00
	.byte	$00
	.byte	$00
	.byte	$00
	.byte	$00
	.byte	$00
	.byte	$00
	.byte	$00
	.byte	$00
	.byte	$00
	.byte	$00
	.byte	$00
	.byte	$00
	.byte	$00
	.byte	$00
	.byte	$00
	.byte	$F1
	.byte	$F1
	.byte	$00
	.byte	$00
	.byte	$00
	.byte	$00
	.byte	$00
	.byte	$00
	.byte	$F1
	.byte	$F1
	.byte	$00
	.byte	$00
	.byte	$00
	.byte	$00
	.byte	$00
	.byte	$00
	.byte	$00
	.byte	$00
	.byte	$00
	.byte	$00
	.byte	$00
	.byte	$00
	.byte	$00
	.byte	$00
	.byte	$00
	.byte	$00
	.byte	$00
	.byte	$00
	.byte	$00
	.byte	$00
	.byte	$00
	.byte	$00
	.byte	$F1
	.byte	$F1
	.byte	$00
	.byte	$00
	.byte	$00
	.byte	$00
	.byte	$00
	.byte	$00
	.byte	$F1
	.byte	$F1
	.byte	$00
	.byte	$00
	.byte	$00
	.byte	$00
	.byte	$00
	.byte	$00
	.byte	$00
	.byte	$00
	.byte	$00
	.byte	$00
	.byte	$00
	.byte	$00
	.byte	$00
	.byte	$00
	.byte	$00
	.byte	$00
	.byte	$00
	.byte	$00
	.byte	$00
	.byte	$00
	.byte	$00
	.byte	$00
	.byte	$F1
	.byte	$F1
	.byte	$00
	.byte	$00
	.byte	$00
	.byte	$00
	.byte	$00
	.byte	$00
	.byte	$F1
	.byte	$F1
	.byte	$00
	.byte	$00
	.byte	$00
	.byte	$00
	.byte	$00
	.byte	$00
	.byte	$00
	.byte	$00
	.byte	$00
	.byte	$00
	.byte	$00
	.byte	$00
	.byte	$00
	.byte	$00
	.byte	$00
	.byte	$00
	.byte	$00
	.byte	$00
	.byte	$00
	.byte	$00
	.byte	$00
	.byte	$00
	.byte	$F1
	.byte	$F1
	.byte	$00
	.byte	$00
	.byte	$00
	.byte	$00
	.byte	$00
	.byte	$00
	.byte	$F3
	.byte	$F3
	.byte	$00
	.byte	$00
	.byte	$00
	.byte	$00
	.byte	$00
	.byte	$00
	.byte	$00
	.byte	$00
	.byte	$00
	.byte	$00
	.byte	$00
	.byte	$00
	.byte	$00
	.byte	$00
	.byte	$00
	.byte	$00
	.byte	$00
	.byte	$00
	.byte	$00
	.byte	$00
	.byte	$00
	.byte	$00
	.byte	$F3
	.byte	$F3
	.byte	$00
	.byte	$00
	.byte	$00
	.byte	$00
	.byte	$00
	.byte	$00
	.byte	$F3
	.byte	$F3
	.byte	$00
	.byte	$00
	.byte	$00
	.byte	$00
	.byte	$00
	.byte	$50
	.byte	$52
	.byte	$45
	.byte	$53
	.byte	$53
	.byte	$00
	.byte	$53
	.byte	$54
	.byte	$41
	.byte	$52
	.byte	$54
	.byte	$21
	.byte	$00
	.byte	$00
	.byte	$00
	.byte	$00
	.byte	$00
	.byte	$F3
	.byte	$F3
	.byte	$00
	.byte	$00
	.byte	$00
	.byte	$00
	.byte	$00
	.byte	$00
	.byte	$F3
	.byte	$F3
	.byte	$00
	.byte	$00
	.byte	$00
	.byte	$00
	.byte	$00
	.byte	$00
	.byte	$00
	.byte	$00
	.byte	$00
	.byte	$00
	.byte	$00
	.byte	$00
	.byte	$00
	.byte	$00
	.byte	$00
	.byte	$00
	.byte	$00
	.byte	$00
	.byte	$00
	.byte	$00
	.byte	$00
	.byte	$00
	.byte	$F3
	.byte	$F3
	.byte	$00
	.byte	$00
	.byte	$00
	.byte	$00
	.byte	$00
	.byte	$00
	.byte	$F3
	.byte	$F3
	.byte	$00
	.byte	$00
	.byte	$00
	.byte	$00
	.byte	$00
	.byte	$00
	.byte	$00
	.byte	$00
	.byte	$00
	.byte	$00
	.byte	$00
	.byte	$00
	.byte	$00
	.byte	$00
	.byte	$00
	.byte	$00
	.byte	$00
	.byte	$00
	.byte	$00
	.byte	$00
	.byte	$00
	.byte	$00
	.byte	$F3
	.byte	$F3
	.byte	$00
	.byte	$00
	.byte	$00
	.byte	$00
	.byte	$00
	.byte	$00
	.byte	$F3
	.byte	$F3
	.byte	$00
	.byte	$00
	.byte	$00
	.byte	$00
	.byte	$00
	.byte	$00
	.byte	$00
	.byte	$00
	.byte	$00
	.byte	$00
	.byte	$00
	.byte	$00
	.byte	$00
	.byte	$00
	.byte	$00
	.byte	$00
	.byte	$00
	.byte	$00
	.byte	$00
	.byte	$00
	.byte	$00
	.byte	$00
	.byte	$F3
	.byte	$F3
	.byte	$00
	.byte	$00
	.byte	$00
	.byte	$00
	.byte	$00
	.byte	$00
	.byte	$F3
	.byte	$F3
	.byte	$00
	.byte	$00
	.byte	$00
	.byte	$00
	.byte	$00
	.byte	$00
	.byte	$00
	.byte	$00
	.byte	$00
	.byte	$00
	.byte	$00
	.byte	$00
	.byte	$00
	.byte	$00
	.byte	$00
	.byte	$00
	.byte	$00
	.byte	$00
	.byte	$00
	.byte	$00
	.byte	$00
	.byte	$00
	.byte	$F3
	.byte	$F3
	.byte	$00
	.byte	$00
	.byte	$00
	.byte	$00
	.byte	$00
	.byte	$00
	.byte	$F3
	.byte	$F3
	.byte	$00
	.byte	$00
	.byte	$00
	.byte	$00
	.byte	$00
	.byte	$00
	.byte	$00
	.byte	$00
	.byte	$00
	.byte	$00
	.byte	$00
	.byte	$00
	.byte	$00
	.byte	$00
	.byte	$00
	.byte	$00
	.byte	$00
	.byte	$00
	.byte	$00
	.byte	$00
	.byte	$00
	.byte	$00
	.byte	$F3
	.byte	$F3
	.byte	$00
	.byte	$00
	.byte	$00
	.byte	$00
	.byte	$00
	.byte	$00
	.byte	$F3
	.byte	$F3
	.byte	$00
	.byte	$00
	.byte	$00
	.byte	$00
	.byte	$00
	.byte	$00
	.byte	$00
	.byte	$00
	.byte	$00
	.byte	$00
	.byte	$00
	.byte	$00
	.byte	$00
	.byte	$00
	.byte	$00
	.byte	$00
	.byte	$00
	.byte	$00
	.byte	$00
	.byte	$00
	.byte	$00
	.byte	$00
	.byte	$F3
	.byte	$F3
	.byte	$00
	.byte	$00
	.byte	$00
	.byte	$00
	.byte	$00
	.byte	$00
	.byte	$F3
	.byte	$F3
	.byte	$00
	.byte	$00
	.byte	$00
	.byte	$00
	.byte	$00
	.byte	$00
	.byte	$00
	.byte	$00
	.byte	$00
	.byte	$00
	.byte	$00
	.byte	$00
	.byte	$00
	.byte	$00
	.byte	$00
	.byte	$00
	.byte	$00
	.byte	$00
	.byte	$00
	.byte	$00
	.byte	$00
	.byte	$00
	.byte	$F3
	.byte	$F3
	.byte	$00
	.byte	$00
	.byte	$00
	.byte	$00
	.byte	$00
	.byte	$00
	.byte	$F3
	.byte	$F3
	.byte	$00
	.byte	$00
	.byte	$00
	.byte	$00
	.byte	$00
	.byte	$00
	.byte	$00
	.byte	$00
	.byte	$00
	.byte	$00
	.byte	$00
	.byte	$00
	.byte	$00
	.byte	$00
	.byte	$00
	.byte	$00
	.byte	$00
	.byte	$00
	.byte	$00
	.byte	$00
	.byte	$00
	.byte	$00
	.byte	$F3
	.byte	$F3
	.byte	$00
	.byte	$00
	.byte	$00
	.byte	$00
	.byte	$00
	.byte	$00
	.byte	$F3
	.byte	$F3
	.byte	$00
	.byte	$00
	.byte	$00
	.byte	$00
	.byte	$40
	.byte	$43
	.byte	$61
	.byte	$69
	.byte	$6E
	.byte	$65
	.byte	$74
	.byte	$69
	.byte	$6E
	.byte	$79
	.byte	$61
	.byte	$72
	.byte	$6D
	.byte	$73
	.byte	$00
	.byte	$00
	.byte	$00
	.byte	$00
	.byte	$F3
	.byte	$F3
	.byte	$00
	.byte	$00
	.byte	$00
	.byte	$00
	.byte	$00
	.byte	$00
	.byte	$00
	.byte	$F3
	.byte	$F3
	.byte	$00
	.byte	$00
	.byte	$00
	.byte	$00
	.byte	$00
	.byte	$00
	.byte	$00
	.byte	$00
	.byte	$00
	.byte	$00
	.byte	$00
	.byte	$00
	.byte	$00
	.byte	$00
	.byte	$00
	.byte	$00
	.byte	$00
	.byte	$00
	.byte	$00
	.byte	$00
	.byte	$F3
	.byte	$F3
	.byte	$00
	.byte	$00
	.byte	$00
	.byte	$00
	.byte	$00
	.byte	$00
	.byte	$00
	.byte	$00
	.byte	$F3
	.byte	$F3
	.byte	$F3
	.byte	$F3
	.byte	$F3
	.byte	$F3
	.byte	$F3
	.byte	$F3
	.byte	$F3
	.byte	$F3
	.byte	$F3
	.byte	$F3
	.byte	$F3
	.byte	$F3
	.byte	$F3
	.byte	$F3
	.byte	$F3
	.byte	$F3
	.byte	$F3
	.byte	$F3
	.byte	$F3
	.byte	$F3
	.byte	$F3
	.byte	$F3
	.byte	$00
	.byte	$00
	.byte	$00
	.byte	$00
	.byte	$00
	.byte	$00
	.byte	$00
	.byte	$00
	.byte	$00
	.byte	$00
	.byte	$F3
	.byte	$F3
	.byte	$F3
	.byte	$F3
	.byte	$F3
	.byte	$F3
	.byte	$F3
	.byte	$F3
	.byte	$F3
	.byte	$F3
	.byte	$F3
	.byte	$F3
	.byte	$F3
	.byte	$F3
	.byte	$F3
	.byte	$F3
	.byte	$F3
	.byte	$F3
	.byte	$F3
	.byte	$F3
	.byte	$00
	.byte	$00
	.byte	$00
	.byte	$00
	.byte	$00
	.byte	$00
	.byte	$00
	.byte	$00
	.byte	$00
	.byte	$00
	.byte	$00
	.byte	$00
	.byte	$00
	.byte	$00
	.byte	$00
	.byte	$00
	.byte	$00
	.byte	$00
	.byte	$00
	.byte	$00
	.byte	$00
	.byte	$00
	.byte	$00
	.byte	$00
	.byte	$00
	.byte	$00
	.byte	$00
	.byte	$00
	.byte	$00
	.byte	$00
	.byte	$00
	.byte	$00
	.byte	$00
	.byte	$00
	.byte	$00
	.byte	$00
	.byte	$00
	.byte	$00
	.byte	$44
	.byte	$11
	.byte	$00
	.byte	$00
	.byte	$00
	.byte	$00
	.byte	$44
	.byte	$11
	.byte	$44
	.byte	$11
	.byte	$00
	.byte	$00
	.byte	$00
	.byte	$00
	.byte	$44
	.byte	$11
	.byte	$44
	.byte	$11
	.byte	$00
	.byte	$00
	.byte	$00
	.byte	$00
	.byte	$44
	.byte	$11
	.byte	$00
	.byte	$05
	.byte	$05
	.byte	$05
	.byte	$05
	.byte	$05
	.byte	$05
	.byte	$00
_end:
	.byte	$F0
	.byte	$F0
	.byte	$F0
	.byte	$F0
	.byte	$F0
	.byte	$F0
	.byte	$F0
	.byte	$F0
	.byte	$F0
	.byte	$F0
	.byte	$F0
	.byte	$F0
	.byte	$F0
	.byte	$F0
	.byte	$F0
	.byte	$F0
	.byte	$F0
	.byte	$F0
	.byte	$F0
	.byte	$F0
	.byte	$F0
	.byte	$F0
	.byte	$F0
	.byte	$F0
	.byte	$F0
	.byte	$F0
	.byte	$F1
	.byte	$F1
	.byte	$F1
	.byte	$00
	.byte	$00
	.byte	$F0
	.byte	$F0
	.byte	$F0
	.byte	$F0
	.byte	$F0
	.byte	$F0
	.byte	$F0
	.byte	$F0
	.byte	$F0
	.byte	$F0
	.byte	$F0
	.byte	$F0
	.byte	$F0
	.byte	$F0
	.byte	$F0
	.byte	$F0
	.byte	$F0
	.byte	$F0
	.byte	$F0
	.byte	$F0
	.byte	$F0
	.byte	$F0
	.byte	$F0
	.byte	$F0
	.byte	$F0
	.byte	$F0
	.byte	$F0
	.byte	$F1
	.byte	$F1
	.byte	$F1
	.byte	$00
	.byte	$00
	.byte	$F0
	.byte	$F0
	.byte	$F0
	.byte	$F0
	.byte	$F0
	.byte	$F0
	.byte	$F0
	.byte	$F0
	.byte	$F0
	.byte	$F0
	.byte	$F0
	.byte	$F0
	.byte	$F0
	.byte	$F0
	.byte	$F0
	.byte	$F0
	.byte	$F0
	.byte	$F0
	.byte	$F0
	.byte	$F0
	.byte	$F0
	.byte	$F0
	.byte	$F0
	.byte	$F0
	.byte	$F0
	.byte	$F0
	.byte	$F0
	.byte	$F1
	.byte	$F1
	.byte	$F1
	.byte	$00
	.byte	$00
	.byte	$F0
	.byte	$F0
	.byte	$F0
	.byte	$F0
	.byte	$F0
	.byte	$F0
	.byte	$F0
	.byte	$F0
	.byte	$F0
	.byte	$F0
	.byte	$F0
	.byte	$F0
	.byte	$F0
	.byte	$F0
	.byte	$F0
	.byte	$F0
	.byte	$F0
	.byte	$F0
	.byte	$F0
	.byte	$F0
	.byte	$F0
	.byte	$F0
	.byte	$F0
	.byte	$F0
	.byte	$F0
	.byte	$F0
	.byte	$F0
	.byte	$F1
	.byte	$F1
	.byte	$F1
	.byte	$00
	.byte	$00
	.byte	$E0
	.byte	$F0
	.byte	$F0
	.byte	$F0
	.byte	$F0
	.byte	$F0
	.byte	$F0
	.byte	$F0
	.byte	$F0
	.byte	$F0
	.byte	$F0
	.byte	$F0
	.byte	$F0
	.byte	$F0
	.byte	$F0
	.byte	$F0
	.byte	$F0
	.byte	$F0
	.byte	$F0
	.byte	$F0
	.byte	$F0
	.byte	$F0
	.byte	$F0
	.byte	$F0
	.byte	$F2
	.byte	$F2
	.byte	$F2
	.byte	$F2
	.byte	$F2
	.byte	$F2
	.byte	$F2
	.byte	$F2
	.byte	$E0
	.byte	$F0
	.byte	$F0
	.byte	$F0
	.byte	$F0
	.byte	$F0
	.byte	$F0
	.byte	$F0
	.byte	$F0
	.byte	$F0
	.byte	$F0
	.byte	$F0
	.byte	$F0
	.byte	$F0
	.byte	$F0
	.byte	$F0
	.byte	$F0
	.byte	$F0
	.byte	$F0
	.byte	$F0
	.byte	$F0
	.byte	$F0
	.byte	$F0
	.byte	$F0
	.byte	$F3
	.byte	$F2
	.byte	$F2
	.byte	$F2
	.byte	$F2
	.byte	$F2
	.byte	$F2
	.byte	$F2
	.byte	$F0
	.byte	$F0
	.byte	$F0
	.byte	$F0
	.byte	$F0
	.byte	$F0
	.byte	$F0
	.byte	$F0
	.byte	$F0
	.byte	$F0
	.byte	$F0
	.byte	$F0
	.byte	$F0
	.byte	$F0
	.byte	$F0
	.byte	$F0
	.byte	$F0
	.byte	$F0
	.byte	$F0
	.byte	$F0
	.byte	$F0
	.byte	$F0
	.byte	$F0
	.byte	$F0
	.byte	$F3
	.byte	$F2
	.byte	$F2
	.byte	$F2
	.byte	$F2
	.byte	$F2
	.byte	$F2
	.byte	$F2
	.byte	$F0
	.byte	$F0
	.byte	$F0
	.byte	$F0
	.byte	$F0
	.byte	$F0
	.byte	$F0
	.byte	$F0
	.byte	$F0
	.byte	$F0
	.byte	$F0
	.byte	$F0
	.byte	$F0
	.byte	$F0
	.byte	$F0
	.byte	$F0
	.byte	$F0
	.byte	$F0
	.byte	$F0
	.byte	$F0
	.byte	$F0
	.byte	$F0
	.byte	$F0
	.byte	$F0
	.byte	$F2
	.byte	$F2
	.byte	$F2
	.byte	$F2
	.byte	$F2
	.byte	$F2
	.byte	$F2
	.byte	$F2
	.byte	$F0
	.byte	$F0
	.byte	$F0
	.byte	$F0
	.byte	$F0
	.byte	$F0
	.byte	$F0
	.byte	$F0
	.byte	$F0
	.byte	$F0
	.byte	$F0
	.byte	$F0
	.byte	$F0
	.byte	$F0
	.byte	$F0
	.byte	$F0
	.byte	$F0
	.byte	$F0
	.byte	$F0
	.byte	$F0
	.byte	$F0
	.byte	$F0
	.byte	$F0
	.byte	$F0
	.byte	$F0
	.byte	$F0
	.byte	$F0
	.byte	$F0
	.byte	$F0
	.byte	$F0
	.byte	$F0
	.byte	$F0
	.byte	$F0
	.byte	$F0
	.byte	$F0
	.byte	$F0
	.byte	$F0
	.byte	$F0
	.byte	$F0
	.byte	$F0
	.byte	$F0
	.byte	$F0
	.byte	$F0
	.byte	$F0
	.byte	$F0
	.byte	$F0
	.byte	$F0
	.byte	$F0
	.byte	$F0
	.byte	$F0
	.byte	$F0
	.byte	$F0
	.byte	$F0
	.byte	$F0
	.byte	$F0
	.byte	$F0
	.byte	$F0
	.byte	$F0
	.byte	$F0
	.byte	$F0
	.byte	$F0
	.byte	$F0
	.byte	$F0
	.byte	$F0
	.byte	$F0
	.byte	$F0
	.byte	$F0
	.byte	$F0
	.byte	$F0
	.byte	$F0
	.byte	$F0
	.byte	$F0
	.byte	$F0
	.byte	$F0
	.byte	$F0
	.byte	$F0
	.byte	$F0
	.byte	$F0
	.byte	$F0
	.byte	$F0
	.byte	$F0
	.byte	$F0
	.byte	$F0
	.byte	$F0
	.byte	$F0
	.byte	$F0
	.byte	$F0
	.byte	$F0
	.byte	$F0
	.byte	$F0
	.byte	$F0
	.byte	$F0
	.byte	$F0
	.byte	$F0
	.byte	$F0
	.byte	$F0
	.byte	$F0
	.byte	$F0
	.byte	$F0
	.byte	$F0
	.byte	$F0
	.byte	$F0
	.byte	$F0
	.byte	$45
	.byte	$58
	.byte	$49
	.byte	$54
	.byte	$F0
	.byte	$F0
	.byte	$F0
	.byte	$F0
	.byte	$F0
	.byte	$F0
	.byte	$F0
	.byte	$F0
	.byte	$F0
	.byte	$F0
	.byte	$F0
	.byte	$F0
	.byte	$F0
	.byte	$F0
	.byte	$F0
	.byte	$F0
	.byte	$F0
	.byte	$F0
	.byte	$F0
	.byte	$F0
	.byte	$F0
	.byte	$F0
	.byte	$F0
	.byte	$F0
	.byte	$F0
	.byte	$F0
	.byte	$F1
	.byte	$F1
	.byte	$F1
	.byte	$F1
	.byte	$F1
	.byte	$F1
	.byte	$F1
	.byte	$F1
	.byte	$F0
	.byte	$F0
	.byte	$F0
	.byte	$F0
	.byte	$F0
	.byte	$F0
	.byte	$F0
	.byte	$F0
	.byte	$F0
	.byte	$F0
	.byte	$F0
	.byte	$F0
	.byte	$F0
	.byte	$F0
	.byte	$F0
	.byte	$F0
	.byte	$F0
	.byte	$F0
	.byte	$F0
	.byte	$F0
	.byte	$F0
	.byte	$F0
	.byte	$F0
	.byte	$F0
	.byte	$F1
	.byte	$F1
	.byte	$F1
	.byte	$F1
	.byte	$F1
	.byte	$F1
	.byte	$F1
	.byte	$F1
	.byte	$F0
	.byte	$F0
	.byte	$F0
	.byte	$F0
	.byte	$F0
	.byte	$F0
	.byte	$F0
	.byte	$F0
	.byte	$F0
	.byte	$F0
	.byte	$F0
	.byte	$F0
	.byte	$F0
	.byte	$F0
	.byte	$F0
	.byte	$F0
	.byte	$F0
	.byte	$F0
	.byte	$F0
	.byte	$F0
	.byte	$F0
	.byte	$F0
	.byte	$F1
	.byte	$F1
	.byte	$F3
	.byte	$F3
	.byte	$F3
	.byte	$F1
	.byte	$F1
	.byte	$F3
	.byte	$F3
	.byte	$F3
	.byte	$F1
	.byte	$F1
	.byte	$F0
	.byte	$F0
	.byte	$F0
	.byte	$F0
	.byte	$F0
	.byte	$F0
	.byte	$F0
	.byte	$F0
	.byte	$F0
	.byte	$F0
	.byte	$F0
	.byte	$F0
	.byte	$F0
	.byte	$F0
	.byte	$F0
	.byte	$F0
	.byte	$F0
	.byte	$F0
	.byte	$F0
	.byte	$F0
	.byte	$F1
	.byte	$F1
	.byte	$F3
	.byte	$F3
	.byte	$F3
	.byte	$F1
	.byte	$F1
	.byte	$F3
	.byte	$F3
	.byte	$F3
	.byte	$F1
	.byte	$F1
	.byte	$F0
	.byte	$F0
	.byte	$F0
	.byte	$F0
	.byte	$F0
	.byte	$F0
	.byte	$F0
	.byte	$F0
	.byte	$F0
	.byte	$F0
	.byte	$F0
	.byte	$F0
	.byte	$F0
	.byte	$F0
	.byte	$F0
	.byte	$F0
	.byte	$F0
	.byte	$F0
	.byte	$F1
	.byte	$F1
	.byte	$F3
	.byte	$F3
	.byte	$F1
	.byte	$F3
	.byte	$F3
	.byte	$F1
	.byte	$F1
	.byte	$F3
	.byte	$F3
	.byte	$F1
	.byte	$F3
	.byte	$F3
	.byte	$F1
	.byte	$F1
	.byte	$F0
	.byte	$F0
	.byte	$F0
	.byte	$F0
	.byte	$F0
	.byte	$F0
	.byte	$F0
	.byte	$F0
	.byte	$F0
	.byte	$F0
	.byte	$F0
	.byte	$F0
	.byte	$F0
	.byte	$F0
	.byte	$F0
	.byte	$F0
	.byte	$F1
	.byte	$F1
	.byte	$F3
	.byte	$F3
	.byte	$F3
	.byte	$F1
	.byte	$F3
	.byte	$F1
	.byte	$F1
	.byte	$F3
	.byte	$F1
	.byte	$F3
	.byte	$F3
	.byte	$F3
	.byte	$F1
	.byte	$F1
	.byte	$F0
	.byte	$F0
	.byte	$F0
	.byte	$F0
	.byte	$F0
	.byte	$F0
	.byte	$F0
	.byte	$F0
	.byte	$F0
	.byte	$F0
	.byte	$F0
	.byte	$F0
	.byte	$F0
	.byte	$F0
	.byte	$F0
	.byte	$F0
	.byte	$F1
	.byte	$F1
	.byte	$F3
	.byte	$F3
	.byte	$F3
	.byte	$F1
	.byte	$F3
	.byte	$F1
	.byte	$F1
	.byte	$F3
	.byte	$F1
	.byte	$F3
	.byte	$F3
	.byte	$F3
	.byte	$F1
	.byte	$F1
	.byte	$F0
	.byte	$F0
	.byte	$F0
	.byte	$F0
	.byte	$F0
	.byte	$F3
	.byte	$F0
	.byte	$F3
	.byte	$F0
	.byte	$F3
	.byte	$F0
	.byte	$F3
	.byte	$F0
	.byte	$F3
	.byte	$F0
	.byte	$F0
	.byte	$F1
	.byte	$F1
	.byte	$F3
	.byte	$F3
	.byte	$F1
	.byte	$F3
	.byte	$F3
	.byte	$F1
	.byte	$F1
	.byte	$F3
	.byte	$F3
	.byte	$F1
	.byte	$F3
	.byte	$F3
	.byte	$F1
	.byte	$F1
	.byte	$F0
	.byte	$F0
	.byte	$F0
	.byte	$F0
	.byte	$F0
	.byte	$F1
	.byte	$F1
	.byte	$F1
	.byte	$F1
	.byte	$F1
	.byte	$F1
	.byte	$F1
	.byte	$F1
	.byte	$F1
	.byte	$F0
	.byte	$F0
	.byte	$F1
	.byte	$F1
	.byte	$F2
	.byte	$F2
	.byte	$F1
	.byte	$F3
	.byte	$F3
	.byte	$F2
	.byte	$F2
	.byte	$F3
	.byte	$F3
	.byte	$F1
	.byte	$F2
	.byte	$F2
	.byte	$F1
	.byte	$F1
	.byte	$F0
	.byte	$F0
	.byte	$F0
	.byte	$F0
	.byte	$F0
	.byte	$F1
	.byte	$F1
	.byte	$F1
	.byte	$F1
	.byte	$F1
	.byte	$F1
	.byte	$F1
	.byte	$F1
	.byte	$F1
	.byte	$F0
	.byte	$F0
	.byte	$F1
	.byte	$F1
	.byte	$F2
	.byte	$F2
	.byte	$F1
	.byte	$F3
	.byte	$F3
	.byte	$F2
	.byte	$F2
	.byte	$F3
	.byte	$F3
	.byte	$F1
	.byte	$F2
	.byte	$F2
	.byte	$F1
	.byte	$F1
	.byte	$F0
	.byte	$F0
	.byte	$F0
	.byte	$F0
	.byte	$F0
	.byte	$F1
	.byte	$F1
	.byte	$F1
	.byte	$F1
	.byte	$F1
	.byte	$F1
	.byte	$F1
	.byte	$F1
	.byte	$F1
	.byte	$F0
	.byte	$F0
	.byte	$F1
	.byte	$F1
	.byte	$F3
	.byte	$F3
	.byte	$F1
	.byte	$F3
	.byte	$F3
	.byte	$F1
	.byte	$F1
	.byte	$F3
	.byte	$F3
	.byte	$F1
	.byte	$F3
	.byte	$F3
	.byte	$F1
	.byte	$F1
	.byte	$F0
	.byte	$F0
	.byte	$F0
	.byte	$F0
	.byte	$F0
	.byte	$F1
	.byte	$F1
	.byte	$F1
	.byte	$F1
	.byte	$F1
	.byte	$F1
	.byte	$F1
	.byte	$F1
	.byte	$F1
	.byte	$F0
	.byte	$F0
	.byte	$F1
	.byte	$F1
	.byte	$F3
	.byte	$F3
	.byte	$F3
	.byte	$F1
	.byte	$F3
	.byte	$F1
	.byte	$F1
	.byte	$F3
	.byte	$F1
	.byte	$F3
	.byte	$F3
	.byte	$F3
	.byte	$F1
	.byte	$F1
	.byte	$F0
	.byte	$F0
	.byte	$F0
	.byte	$F0
	.byte	$F0
	.byte	$F1
	.byte	$F1
	.byte	$F1
	.byte	$F1
	.byte	$F1
	.byte	$F1
	.byte	$F1
	.byte	$F1
	.byte	$F1
	.byte	$F0
	.byte	$F0
	.byte	$F1
	.byte	$F1
	.byte	$F3
	.byte	$F3
	.byte	$F3
	.byte	$F1
	.byte	$F3
	.byte	$F1
	.byte	$F1
	.byte	$F3
	.byte	$F1
	.byte	$F3
	.byte	$F3
	.byte	$F3
	.byte	$F1
	.byte	$F1
	.byte	$F0
	.byte	$F0
	.byte	$F0
	.byte	$F0
	.byte	$F2
	.byte	$F2
	.byte	$F2
	.byte	$F2
	.byte	$F2
	.byte	$F2
	.byte	$F2
	.byte	$F2
	.byte	$F2
	.byte	$F2
	.byte	$F2
	.byte	$F0
	.byte	$F1
	.byte	$F1
	.byte	$F3
	.byte	$F3
	.byte	$F1
	.byte	$F3
	.byte	$F3
	.byte	$F1
	.byte	$F1
	.byte	$F3
	.byte	$F3
	.byte	$F1
	.byte	$F3
	.byte	$F3
	.byte	$F1
	.byte	$F1
	.byte	$F0
	.byte	$F0
	.byte	$F0
	.byte	$F0
	.byte	$F2
	.byte	$F2
	.byte	$F2
	.byte	$F2
	.byte	$F2
	.byte	$F2
	.byte	$F2
	.byte	$F2
	.byte	$F2
	.byte	$F2
	.byte	$F2
	.byte	$F0
	.byte	$F0
	.byte	$F0
	.byte	$F1
	.byte	$F1
	.byte	$F3
	.byte	$F3
	.byte	$F3
	.byte	$F1
	.byte	$F1
	.byte	$F3
	.byte	$F3
	.byte	$F3
	.byte	$F1
	.byte	$F1
	.byte	$F0
	.byte	$F0
	.byte	$F0
	.byte	$F0
	.byte	$F0
	.byte	$F0
	.byte	$F0
	.byte	$F0
	.byte	$F0
	.byte	$F0
	.byte	$F2
	.byte	$F2
	.byte	$F0
	.byte	$F0
	.byte	$F0
	.byte	$F0
	.byte	$F0
	.byte	$F0
	.byte	$F0
	.byte	$F0
	.byte	$F1
	.byte	$F1
	.byte	$F3
	.byte	$F3
	.byte	$F3
	.byte	$F1
	.byte	$F1
	.byte	$F3
	.byte	$F3
	.byte	$F3
	.byte	$F1
	.byte	$F1
	.byte	$F0
	.byte	$F0
	.byte	$F0
	.byte	$F0
	.byte	$F0
	.byte	$F0
	.byte	$F0
	.byte	$F0
	.byte	$F0
	.byte	$F0
	.byte	$F2
	.byte	$F2
	.byte	$F0
	.byte	$F0
	.byte	$F0
	.byte	$F0
	.byte	$F0
	.byte	$F0
	.byte	$F0
	.byte	$F0
	.byte	$F0
	.byte	$F0
	.byte	$F1
	.byte	$F1
	.byte	$F1
	.byte	$F1
	.byte	$F1
	.byte	$F1
	.byte	$F1
	.byte	$F1
	.byte	$F0
	.byte	$F0
	.byte	$F0
	.byte	$F0
	.byte	$F0
	.byte	$F0
	.byte	$F0
	.byte	$F0
	.byte	$F0
	.byte	$F0
	.byte	$F0
	.byte	$F0
	.byte	$F2
	.byte	$F2
	.byte	$F0
	.byte	$F0
	.byte	$F0
	.byte	$F0
	.byte	$F0
	.byte	$F0
	.byte	$F0
	.byte	$F0
	.byte	$F0
	.byte	$F0
	.byte	$F1
	.byte	$F1
	.byte	$F1
	.byte	$F1
	.byte	$F1
	.byte	$F1
	.byte	$F1
	.byte	$F1
	.byte	$F0
	.byte	$F0
	.byte	$F0
	.byte	$F0
	.byte	$F0
	.byte	$F0
	.byte	$F0
	.byte	$F0
	.byte	$F0
	.byte	$F0
	.byte	$F2
	.byte	$F2
	.byte	$F2
	.byte	$F2
	.byte	$F2
	.byte	$F2
	.byte	$F0
	.byte	$F0
	.byte	$F0
	.byte	$F0
	.byte	$00
	.byte	$00
	.byte	$00
	.byte	$00
	.byte	$00
	.byte	$00
	.byte	$FC
	.byte	$FF
	.byte	$00
	.byte	$00
	.byte	$00
	.byte	$00
	.byte	$00
	.byte	$CC
	.byte	$FF
	.byte	$FF
	.byte	$00
	.byte	$40
	.byte	$10
	.byte	$00
	.byte	$00
	.byte	$00
	.byte	$00
	.byte	$00
	.byte	$80
	.byte	$AA
	.byte	$AA
	.byte	$20
	.byte	$00
	.byte	$00
	.byte	$00
	.byte	$00
	.byte	$AA
	.byte	$AA
	.byte	$AA
	.byte	$AA
	.byte	$00
	.byte	$00
	.byte	$00
	.byte	$00
	.byte	$AA
	.byte	$AA
	.byte	$AA
	.byte	$AA
	.byte	$00
	.byte	$00
	.byte	$00
	.byte	$00
	.byte	$8A
	.byte	$AA
	.byte	$AA
	.byte	$2A
	.byte	$00
	.byte	$05
	.byte	$15
	.byte	$05
	.byte	$00
	.byte	$0A
	.byte	$0A
	.byte	$00
	.byte	$00
	.byte	$04
	.byte	$05
	.byte	$00
S0005:
	.byte	$29,$28,$2A,$26,$5E,$25,$24,$23,$40,$21,$7E,$3F,$3E,$3C,$3A,$7B
	.byte	$7D,$5D,$00
S0008:
	.byte	$54,$45,$53,$54,$49,$4E,$47,$20,$43,$4F,$4D,$50,$4C,$45,$54,$45
	.byte	$2E,$00
S0009:
	.byte	$54,$48,$45,$20,$43,$41,$4B,$45,$20,$49,$53,$20,$41,$20,$4C,$49
	.byte	$45,$00
S0007:
	.byte	$43,$4F,$4E,$47,$52,$41,$54,$55,$4C,$41,$54,$49,$4F,$4E,$53,$2E
	.byte	$00
S0004:
	.byte	$21,$40,$23,$24,$25,$5E,$26,$2A,$28,$29,$5F,$2B,$3D,$2D,$5B,$5D
	.byte	$00
S0006:
	.byte	$2F,$5C,$2F,$5C,$2F,$5C,$2F,$5C,$2F,$5C,$2F,$5C,$2F,$5C,$2F,$5C
	.byte	$00
S000A:
	.byte	$45,$4E,$4A,$4F,$59,$20,$59,$4F,$55,$52,$20,$43,$41,$4B,$45,$2E
	.byte	$00

.segment	"BSS"

.segment	"ZEROPAGE"
_pad1:
	.res	1,$00
_pad1Old:
	.res	1,$00
_mode:
	.res	1,$00
_aLatch:
	.res	1,$00
_currentLevel:
	.res	1,$00
_gameState:
	.res	1,$00
_song:
	.res	1,$00
_currentSong:
	.res	1,$00
_boxHeld:
	.res	1,$00
_doorOpen:
	.res	1,$00
_playerVelocity:
	.res	1,$00
_boxVelocity:
	.res	1,$00
_orangePortalCollision:
	.res	1,$00
_bluePortalCollision:
	.res	1,$00
_bluePortalActive:
	.res	1,$00
_orangePortalActive:
	.res	1,$00
_lastPortalUsed:
	.res	1,$00
.segment	"LEVELCOLL"
_levelCollisionRAM:
	.res	960,$00
.segment	"ZEROPAGE"
_orangePortalOrientation:
	.res	1,$00
_bluePortalOrientation:
	.res	1,$00
_orangeBulletActive:
	.res	1,$00
_blueBulletActive:
	.res	1,$00
_orangeBulletDirectionX:
	.res	1,$00
_orangeBulletDirectionY:
	.res	1,$00
_blueBulletDirectionX:
	.res	1,$00
_blueBulletDirectionY:
	.res	1,$00
_aimDirectionX:
	.res	1,$00
_aimDirectionY:
	.res	1,$00
_levelCollisionData:
	.res	2,$00

; ---------------------------------------------------------------
; void __near__ modeToggle (void)
; ---------------------------------------------------------------

.segment	"CODE"

.proc	_modeToggle: near

.segment	"CODE"

;
; unsigned char newSelect = (pad1 & PAD_SELECT); // Sets the new select value.
;
	lda     _pad1
	and     #$20
	jsr     pusha
;
; if (newSelect && !oldSelect) // If the value changed from not pressed to pressed.
;
	ldy     #$00
	lda     (sp),y
	beq     L000A
	lda     M0001
	bne     L000A
;
; mode = !mode; // Flip the mode value.
;
	lda     _mode
	jsr     bnega
	sta     _mode
;
; oldSelect = newSelect; 
;
L000A:	lda     (sp),y
	sta     M0001
;
; }
;
	jmp     incsp1

.segment	"DATA"

M0001:
	.byte	$00

.endproc

; ---------------------------------------------------------------
; void __near__ walkMode (void)
; ---------------------------------------------------------------

.segment	"CODE"

.proc	_walkMode: near

.segment	"CODE"

;
; if (pad1 & PAD_LEFT) // If Left on the DPAD is pressed.
;
	lda     _pad1
	and     #$02
	beq     L0015
;
; playerSpriteData.X--; // Move the player to the left.
;
	dec     _playerSpriteData
;
; if (playerWallCollision(&playerSpriteData)) // If the player is now colliding with a wall.
;
	lda     #<(_playerSpriteData)
	ldx     #>(_playerSpriteData)
	jsr     _playerWallCollision
	tax
	beq     L0006
;
; playerSpriteData.X++; // Move the player to the right, so they're not in the wall anymore.
;
	inc     _playerSpriteData
;
; else if (pad1 & PAD_RIGHT) // If Right on the DPAD is pressed.
;
	jmp     L0006
L0015:	lda     _pad1
	and     #$01
	beq     L0006
;
; playerSpriteData.X++; // Move the player to the right.
;
	inc     _playerSpriteData
;
; if (playerWallCollision(&playerSpriteData)) // If the player is now colliding with a wall.
;
	lda     #<(_playerSpriteData)
	ldx     #>(_playerSpriteData)
	jsr     _playerWallCollision
	tax
	beq     L0006
;
; playerSpriteData.X--; // Move the player to the left, so they're not in the wall anymore.
;
	dec     _playerSpriteData
;
; if (aLatch && boxEnabled) // If A is pressed, and the level has a box.
;
L0006:	lda     _aLatch
	beq     L0017
	lda     _boxEnabled
	bne     L0018
L0017:	rts
;
; if (!boxHeld) // If the box is not held.
;
L0018:	lda     _boxHeld
	bne     L001F
;
; unsigned char dx = playerSpriteData.X > boxSpriteData.X ? playerSpriteData.X - boxSpriteData.X : boxSpriteData.X - playerSpriteData.X; // Calculates how close the player is to the box on the X axis.
;
	lda     _playerSpriteData
	cmp     _boxSpriteData
	bcc     L0019
	beq     L0019
	sec
	sbc     _boxSpriteData
	jmp     L001A
L0019:	lda     _boxSpriteData
	sec
	sbc     _playerSpriteData
L001A:	jsr     pusha
;
; unsigned char dy = playerSpriteData.Y > boxSpriteData.Y ? playerSpriteData.Y - boxSpriteData.Y : boxSpriteData.Y - playerSpriteData.Y; // And the Y axis.
;
	lda     _playerSpriteData+1
	cmp     _boxSpriteData+1
	bcc     L001B
	beq     L001B
	sec
	sbc     _boxSpriteData+1
	jmp     L001C
L001B:	lda     _boxSpriteData+1
	sec
	sbc     _playerSpriteData+1
L001C:	jsr     pusha
;
; if (dx < 16 && dy < 16) // If the player is close enough to the box.
;
	ldy     #$01
	lda     (sp),y
	cmp     #$10
	bcs     L0010
	dey
	lda     (sp),y
	cmp     #$10
	bcs     L0010
;
; boxHeld = 1; // Pick the box up.
;
	lda     #$01
	sta     _boxHeld
;
; } 
;
L0010:	jmp     incsp2
;
; boxSpriteData.X = playerSpriteData.X; // Set the box location to the players feet.
;
L001F:	lda     _playerSpriteData
	sta     _boxSpriteData
;
; boxSpriteData.Y = playerSpriteData.Y; 
;
	lda     _playerSpriteData+1
	sta     _boxSpriteData+1
;
; boxHeld = 0; // Drop the box.
;
	lda     #$00
	sta     _boxHeld
;
; }
;
	rts

.endproc

; ---------------------------------------------------------------
; void __near__ shootMode (void)
; ---------------------------------------------------------------

.segment	"CODE"

.proc	_shootMode: near

.segment	"CODE"

;
; signed char newDirectionX = 0; // Resets the X aiming direction.
;
	lda     #$00
	jsr     pusha
;
; signed char newDirectionY = 0; // Resets the Y aiming direction.
;
	jsr     pusha
;
; if(pad1 & PAD_UP) // If Up on the DPAD is pressed.
;
	lda     _pad1
	and     #$08
	beq     L0019
;
; newDirectionY = -1; // Set the new Y aiming direction to -1, to signify up.
;
	lda     #$FF
;
; else if(pad1 & PAD_DOWN) // If Down on the DPAD is pressed.  
;
	jmp     L001E
L0019:	lda     _pad1
	and     #$04
	beq     L001A
;
; newDirectionY = 1; // Set the new Y aiming direction to 1, to signify down.
;
	lda     #$01
L001E:	ldy     #$00
	sta     (sp),y
;
; if(pad1 & PAD_LEFT) // If Left on the DPAD is pressed.
;
L001A:	lda     _pad1
	and     #$02
	beq     L001B
;
; newDirectionX = -1; // Set the new X aiming direction to -1, to signify left.
;
	lda     #$FF
;
; else if(pad1 & PAD_RIGHT) // If Right on the DPAD is pressed.
;
	jmp     L001F
L001B:	lda     _pad1
	and     #$01
	beq     L0007
;
; newDirectionX = 1; // Set the new X aiming direction to 1, to signify right.
;
	lda     #$01
L001F:	ldy     #$01
	sta     (sp),y
;
; if(newDirectionX != 0 || newDirectionY != 0) // If the player has aimed somewhere.
;
L0007:	ldy     #$01
	lda     (sp),y
	bne     L0020
	dey
	lda     (sp),y
	beq     L0008
;
; aimDirectionX = newDirectionX; // Set the global X aiming direction to the new X aiming direction.
;
	iny
L0020:	lda     (sp),y
	sta     _aimDirectionX
;
; aimDirectionY = newDirectionY; // Set the global Y aiming direction to the new Y aiming direction.
;
	dey
	lda     (sp),y
	sta     _aimDirectionY
;
; if(!orangeBulletActive && (pad1 & PAD_A)) // If there is not a orange bullet, and A is pressed.
;
L0008:	lda     _orangeBulletActive
	bne     L000F
	lda     _pad1
	and     #$80
	beq     L000F
;
; spawnOrangeBullet(); // Spawn an orange bullet.
;
	jsr     _spawnOrangeBullet
;
; sfx_play(1, 0);
;
	lda     #$01
	jsr     pusha
	lda     #$00
	jsr     _sfx_play
;
; if(!blueBulletActive && (pad1 & PAD_B)) // If there is not a blue bullet, and B is pressed.
;
L000F:	lda     _blueBulletActive
	bne     L0013
	lda     _pad1
	and     #$40
	beq     L0013
;
; spawnBlueBullet(); // Spawn a blue bullet.
;
	jsr     _spawnBlueBullet
;
; sfx_play(0,0);
;
	lda     #$00
	jsr     pusha
	jsr     _sfx_play
;
; }
;
L0013:	jmp     incsp2

.endproc

; ---------------------------------------------------------------
; void __near__ portalPlayerCollision (void)
; ---------------------------------------------------------------

.segment	"CODE"

.proc	_portalPlayerCollision: near

.segment	"CODE"

;
; orangePortalCollision = check_collision(&playerSpriteData, &orangePortalSpriteData); // Checks if the player is colliding with the orange portal.
;
	lda     #<(_playerSpriteData)
	ldx     #>(_playerSpriteData)
	jsr     pushax
	lda     #<(_orangePortalSpriteData)
	ldx     #>(_orangePortalSpriteData)
	jsr     _check_collision
	sta     _orangePortalCollision
;
; bluePortalCollision   = check_collision(&playerSpriteData, &bluePortalSpriteData);   // Checks if the player is colliding with the blue portal.
;
	lda     #<(_playerSpriteData)
	ldx     #>(_playerSpriteData)
	jsr     pushax
	lda     #<(_bluePortalSpriteData)
	ldx     #>(_bluePortalSpriteData)
	jsr     _check_collision
	sta     _bluePortalCollision
;
; if(!bluePortalActive || !orangePortalActive) // If both portals aren't active, don't do anything.
;
	lda     _bluePortalActive
	beq     L0003
	lda     _orangePortalActive
	bne     L0002
;
; return;
;
L0003:	rts
;
; if(orangePortalCollision && lastPortalUsed != 1) // If the player is touching the orange portal, and hasn't just teleported into it. 
;
L0002:	lda     _orangePortalCollision
	beq     L0005
	lda     _lastPortalUsed
	cmp     #$01
	beq     L0005
;
; playerSpriteData.X = bluePortalSpriteData.X; // Set the player X data to the blue portal X data.
;
	lda     _bluePortalSpriteData
	sta     _playerSpriteData
;
; playerSpriteData.Y = bluePortalSpriteData.Y; // Set the player Y data to the blue portal Y data.
;
	lda     _bluePortalSpriteData+1
	sta     _playerSpriteData+1
;
; lastPortalUsed = 2;  // Set the last used portal to 2, meaning they have just arrived at the blue portal.
;
	lda     #$02
	sta     _lastPortalUsed
;
; if(playerWallCollision(&playerSpriteData)) // If the user is now stuck in a wall after teleporting.
;
	lda     #<(_playerSpriteData)
	ldx     #>(_playerSpriteData)
	jsr     _playerWallCollision
	tax
	bne     L0032
;
; }
;
	rts
;
; switch(bluePortalOrientation) // Change based on what orientation the portal was shot from.
;
L0032:	lda     _bluePortalOrientation
;
; }
;
	beq     L0024
	cmp     #$01
	beq     L0025
	cmp     #$02
	beq     L0026
	cmp     #$03
	beq     L0027
	rts
;
; playerSpriteData.Y += 8; // Move the player down.
;
L0024:	lda     #$08
	clc
	adc     _playerSpriteData+1
	sta     _playerSpriteData+1
;
; break;
;
	rts
;
; playerSpriteData.X -= 8; // Move the player left.
;
L0025:	lda     _playerSpriteData
	sec
	sbc     #$08
	sta     _playerSpriteData
;
; break;
;
	rts
;
; playerSpriteData.Y -= 8; // Move the player up.
;
L0026:	lda     _playerSpriteData+1
	sec
	sbc     #$08
	sta     _playerSpriteData+1
;
; break;
;
	rts
;
; playerSpriteData.X += 8; // Move the player right.
;
L0027:	lda     #$08
	clc
	adc     _playerSpriteData
	sta     _playerSpriteData
;
; break;
;
	rts
;
; else if(bluePortalCollision && lastPortalUsed != 2) // If the player is touching the blue portal, and hasn't just teleported into it.
;
L0005:	lda     _bluePortalCollision
	beq     L0011
	lda     _lastPortalUsed
	cmp     #$02
	beq     L0011
;
; playerSpriteData.X = orangePortalSpriteData.X; // Sets the player X data to the orange X data.
;
	lda     _orangePortalSpriteData
	sta     _playerSpriteData
;
; playerSpriteData.Y = orangePortalSpriteData.Y; // Sets the player Y data to the orange Y data.
;
	lda     _orangePortalSpriteData+1
	sta     _playerSpriteData+1
;
; lastPortalUsed = 1;  // Sets the last portal used to 1, meaning they have just arrived at the orange portal.
;
	lda     #$01
	sta     _lastPortalUsed
;
; if(playerWallCollision(&playerSpriteData)) // If the user is now stuck in a wall after teleporting.
;
	lda     #<(_playerSpriteData)
	ldx     #>(_playerSpriteData)
	jsr     _playerWallCollision
	tax
	beq     L001D
;
; switch(orangePortalOrientation) // Change based on what orientation the portal was shot from.
;
	lda     _orangePortalOrientation
;
; }
;
	beq     L002B
	cmp     #$01
	beq     L002C
	cmp     #$02
	beq     L002D
	cmp     #$03
	beq     L002E
	rts
;
; playerSpriteData.Y += 8; // Move the player down.
;
L002B:	lda     #$08
	clc
	adc     _playerSpriteData+1
	sta     _playerSpriteData+1
;
; break;
;
	rts
;
; playerSpriteData.X -= 8; // Move the player left.
;
L002C:	lda     _playerSpriteData
	sec
	sbc     #$08
	sta     _playerSpriteData
;
; break;
;
	rts
;
; playerSpriteData.Y -= 8; // Move the player up.
;
L002D:	lda     _playerSpriteData+1
	sec
	sbc     #$08
	sta     _playerSpriteData+1
;
; break;
;
	rts
;
; playerSpriteData.X += 8; // Move the player right.
;
L002E:	lda     #$08
	clc
	adc     _playerSpriteData
	sta     _playerSpriteData
;
; break;
;
	rts
;
; if(!orangePortalCollision && !bluePortalCollision) // If the player is not touching any portal.
;
L0011:	lda     _orangePortalCollision
	bne     L002F
	lda     _bluePortalCollision
	beq     L0031
L002F:	rts
;
; lastPortalUsed = 0; // Set the last portal used to 0, meaning the player can now use any portal.
;
L0031:	sta     _lastPortalUsed
;
; }
;
L001D:	rts

.endproc

; ---------------------------------------------------------------
; unsigned char __near__ playerWallCollision (struct spriteData *spr)
; ---------------------------------------------------------------

.segment	"CODE"

.proc	_playerWallCollision: near

.segment	"CODE"

;
; {
;
	jsr     pushax
;
; unsigned char leftTile   = spr->X >> 3; // Gets the tile left of the player.
;
	ldy     #$01
	lda     (sp),y
	sta     ptr1+1
	dey
	lda     (sp),y
	sta     ptr1
	lda     (ptr1),y
	lsr     a
	lsr     a
	lsr     a
	jsr     pusha
;
; unsigned char rightTile  = (spr->X + spr->width) >> 3; // Gets the tile to the right of the player.
;
	ldy     #$02
	lda     (sp),y
	sta     ptr1+1
	dey
	lda     (sp),y
	sta     ptr1
	dey
	lda     (ptr1),y
	sta     sreg
	ldy     #$02
	lda     (sp),y
	sta     ptr1+1
	dey
	lda     (sp),y
	sta     ptr1
	ldy     #$03
	lda     (ptr1),y
	clc
	adc     sreg
	ror     a
	lsr     a
	lsr     a
	jsr     pusha
;
; unsigned char topTile    = spr->Y >> 3; // Gets the tile above the player.
;
	ldy     #$03
	lda     (sp),y
	sta     ptr1+1
	dey
	lda     (sp),y
	sta     ptr1
	dey
	lda     (ptr1),y
	lsr     a
	lsr     a
	lsr     a
	jsr     pusha
;
; unsigned char bottomTile = (spr->Y + spr->height) >> 3; // Gets the tile below the player.
;
	ldy     #$04
	lda     (sp),y
	sta     ptr1+1
	dey
	lda     (sp),y
	sta     ptr1
	ldy     #$01
	lda     (ptr1),y
	sta     sreg
	ldy     #$04
	lda     (sp),y
	sta     ptr1+1
	dey
	lda     (sp),y
	sta     ptr1
	dey
	lda     (ptr1),y
	clc
	adc     sreg
	ror     a
	lsr     a
	lsr     a
	jsr     pusha
;
; if(getCollisionValue(leftTile, topTile) == 1 || getCollisionValue(leftTile, topTile) == 2 || getCollisionValue(leftTile, topTile) == 3) 
;
	ldy     #$03
	lda     (sp),y
	jsr     pusha
	ldy     #$02
	lda     (sp),y
	jsr     _getCollisionValue
	cmp     #$01
	jeq     L000C
	ldy     #$03
	lda     (sp),y
	jsr     pusha
	ldy     #$02
	lda     (sp),y
	jsr     _getCollisionValue
	cmp     #$02
	jeq     L000C
	ldy     #$03
	lda     (sp),y
	jsr     pusha
	ldy     #$02
	lda     (sp),y
	jsr     _getCollisionValue
	cmp     #$03
;
; return 1;
;
	jeq     L000C
;
; if(getCollisionValue(rightTile, topTile) == 1 || getCollisionValue(rightTile, topTile) == 2 || getCollisionValue(rightTile, topTile) == 3)
;
	ldy     #$02
	lda     (sp),y
	jsr     pusha
	ldy     #$02
	lda     (sp),y
	jsr     _getCollisionValue
	cmp     #$01
	jeq     L000C
	ldy     #$02
	lda     (sp),y
	jsr     pusha
	ldy     #$02
	lda     (sp),y
	jsr     _getCollisionValue
	cmp     #$02
	jeq     L000C
	ldy     #$02
	lda     (sp),y
	jsr     pusha
	ldy     #$02
	lda     (sp),y
	jsr     _getCollisionValue
	cmp     #$03
;
; return 1;
;
	beq     L000C
;
; if(getCollisionValue(leftTile, bottomTile) == 1 || getCollisionValue(leftTile, bottomTile) == 2 || getCollisionValue(leftTile, bottomTile) == 3)
;
	ldy     #$03
	lda     (sp),y
	jsr     pusha
	ldy     #$01
	lda     (sp),y
	jsr     _getCollisionValue
	cmp     #$01
	beq     L000C
	ldy     #$03
	lda     (sp),y
	jsr     pusha
	ldy     #$01
	lda     (sp),y
	jsr     _getCollisionValue
	cmp     #$02
	beq     L000C
	ldy     #$03
	lda     (sp),y
	jsr     pusha
	ldy     #$01
	lda     (sp),y
	jsr     _getCollisionValue
	cmp     #$03
;
; return 1;
;
	beq     L000C
;
; if(getCollisionValue(rightTile, bottomTile) == 1 || getCollisionValue(rightTile, bottomTile) == 2 || getCollisionValue(rightTile, bottomTile) == 3)
;
	ldy     #$02
	lda     (sp),y
	jsr     pusha
	ldy     #$01
	lda     (sp),y
	jsr     _getCollisionValue
	cmp     #$01
	beq     L000C
	ldy     #$02
	lda     (sp),y
	jsr     pusha
	ldy     #$01
	lda     (sp),y
	jsr     _getCollisionValue
	cmp     #$02
	beq     L000C
	ldy     #$02
	lda     (sp),y
	jsr     pusha
	ldy     #$01
	lda     (sp),y
	jsr     _getCollisionValue
	cmp     #$03
	beq     L000C
	ldx     #$00
	txa
	jmp     incsp6
;
; return 1;
;
L000C:	ldx     #$00
	lda     #$01
;
; }
;
	jmp     incsp6

.endproc

; ---------------------------------------------------------------
; void __near__ spawnOrangeBullet (void)
; ---------------------------------------------------------------

.segment	"CODE"

.proc	_spawnOrangeBullet: near

.segment	"CODE"

;
; orangeBulletSpriteData.X = playerSpriteData.X; // Sets the orange bullet X data to the player's X data.
;
	lda     _playerSpriteData
	sta     _orangeBulletSpriteData
;
; orangeBulletSpriteData.Y = playerSpriteData.Y; // Sets the orange bullet Y data to the player's Y data.
;
	lda     _playerSpriteData+1
	sta     _orangeBulletSpriteData+1
;
; orangeBulletActive = 1; // Sets that the orange bullet is now active.
;
	lda     #$01
	sta     _orangeBulletActive
;
; orangeBulletDirectionX = aimDirectionX; // Sets the orange bullets X direction to the X direction the player was aiming.
;
	lda     _aimDirectionX
	sta     _orangeBulletDirectionX
;
; orangeBulletDirectionY = aimDirectionY; // Sets the orange bullets Y direction to the Y direction the player was aiming.
;
	lda     _aimDirectionY
	sta     _orangeBulletDirectionY
;
; if(orangeBulletDirectionX == 0 && orangeBulletDirectionY == 0) // If the player didn't touch the DPAD to provide any aiming.
;
	lda     _orangeBulletDirectionX
	bne     L0006
	lda     _orangeBulletDirectionY
	beq     L0008
L0006:	rts
;
; orangeBulletDirectionY = -1; // Default to aiming up.
;
L0008:	lda     #$FF
	sta     _orangeBulletDirectionY
;
; }
;
	rts

.endproc

; ---------------------------------------------------------------
; void __near__ spawnBlueBullet (void)
; ---------------------------------------------------------------

.segment	"CODE"

.proc	_spawnBlueBullet: near

.segment	"CODE"

;
; blueBulletSpriteData.X = playerSpriteData.X; // Sets the blue bullet X data to the player's X data.
;
	lda     _playerSpriteData
	sta     _blueBulletSpriteData
;
; blueBulletSpriteData.Y = playerSpriteData.Y; // Sets the blue bullet Y data to the player's Y data.
;
	lda     _playerSpriteData+1
	sta     _blueBulletSpriteData+1
;
; blueBulletActive = 1; // Sets that the blue bullet is now active.
;
	lda     #$01
	sta     _blueBulletActive
;
; blueBulletDirectionX = aimDirectionX; // Sets the blue bullets X direction to the X direction the player was aiming.
;
	lda     _aimDirectionX
	sta     _blueBulletDirectionX
;
; blueBulletDirectionY = aimDirectionY; // Sets the blue bullets Y direction to the Y direction the player was aiming.
;
	lda     _aimDirectionY
	sta     _blueBulletDirectionY
;
; if(blueBulletDirectionX == 0 && blueBulletDirectionY == 0)  // If the player didn't touch the DPAD to provide any aiming.
;
	lda     _blueBulletDirectionX
	bne     L0006
	lda     _blueBulletDirectionY
	beq     L0008
L0006:	rts
;
; blueBulletDirectionY = -1; // Default to aiming up.
;
L0008:	lda     #$FF
	sta     _blueBulletDirectionY
;
; }
;
	rts

.endproc

; ---------------------------------------------------------------
; void __near__ updateBullet (void)
; ---------------------------------------------------------------

.segment	"CODE"

.proc	_updateBullet: near

.segment	"CODE"

;
; if(orangeBulletActive) // If the orange bullet is active.
;
	jsr     decsp5
	lda     _orangeBulletActive
	jeq     L001D
;
; orangeBulletSpriteData.X += orangeBulletDirectionX; // Moves the orange bullet in the X direction that the player was aiming when it was shot.
;
	lda     _orangeBulletDirectionX
	clc
	adc     _orangeBulletSpriteData
	sta     _orangeBulletSpriteData
;
; orangeBulletSpriteData.Y += orangeBulletDirectionY; // Moves the orange bullet in the Y direction that the player was aiming when it was shot.
;
	lda     _orangeBulletDirectionY
	clc
	adc     _orangeBulletSpriteData+1
	sta     _orangeBulletSpriteData+1
;
; tileX = (orangeBulletSpriteData.X + 4) >> 3; // Sets the X tile value to the tile the bullet collided with.
;
	ldx     #$00
	lda     _orangeBulletSpriteData
	clc
	adc     #$04
	bcc     L0005
	inx
L0005:	jsr     asrax3
	ldy     #$04
	sta     (sp),y
;
; tileY = (orangeBulletSpriteData.Y + 4) >> 3; // Sets the Y tile value to the tile the bullet collided with.
;
	ldx     #$00
	lda     _orangeBulletSpriteData+1
	clc
	adc     #$04
	bcc     L0006
	inx
L0006:	jsr     asrax3
	dey
	sta     (sp),y
;
; collision = getCollisionValue(tileX, tileY); // Gets the collision value for that tile, from the collision map.
;
	iny
	lda     (sp),y
	jsr     pusha
	ldy     #$04
	lda     (sp),y
	jsr     _getCollisionValue
	ldy     #$02
	sta     (sp),y
;
; if(collision == 2) // If the tile has a collision value of 2, meaning it can hold a portal.
;
	cmp     #$02
	jne     L004F
;
; if(orangeBulletDirectionX > 0) // If the orange bullet was shot to the right.
;
	lda     _orangeBulletDirectionX
	sec
	sbc     #$01
	bvs     L000A
	eor     #$80
L000A:	bpl     L0047
;
; orangePortalOrientation = 1; // Set the portal orientaion to right, so the player gets spit out to the left
;
	lda     #$01
;
; else if(orangeBulletDirectionX < 0) // If the orange bullet was shot to the left.  
;
	jmp     L003E
L0047:	lda     _orangeBulletDirectionX
	asl     a
	bcc     L0048
;
; orangePortalOrientation = 3; // Set the portal orientaion to left, so the player gets spit out to the right.
;
	lda     #$03
;
; else if(orangeBulletDirectionY > 0) // If the orange bullet was shot down.
;
	jmp     L003E
L0048:	lda     _orangeBulletDirectionY
	sec
	sbc     #$01
	bvs     L0011
	eor     #$80
L0011:	asl     a
	lda     #$00
	bcc     L003E
;
; orangePortalOrientation = 2; // Set the portal orientaion to down, so the player gets spit out up.
;
	tya
;
; orangePortalOrientation = 0; // Set the portal orientaion to up, so the player gets spit out down.
;
L003E:	sta     _orangePortalOrientation
;
; if (bluePortalActive) // If the blue portal is active.
;
	lda     _bluePortalActive
	beq     L004C
;
; otherPortalTileX = bluePortalSpriteData.X >> 3; // Get the X tile that the blue portal is located on.
;
	lda     _bluePortalSpriteData
	lsr     a
	lsr     a
	lsr     a
	dey
	sta     (sp),y
;
; otherPortalTileY = bluePortalSpriteData.Y >> 3; // Get the Y tile that the blue portal is location on.
;
	lda     _bluePortalSpriteData+1
	lsr     a
	lsr     a
	lsr     a
	dey
	sta     (sp),y
;
; if (otherPortalTileX == tileX && otherPortalTileY == tileY) // Check if the orange portal is trying to be placed at the same location as the blue portal.
;
	iny
	lda     (sp),y
	ldy     #$04
	cmp     (sp),y
	bne     L004C
	ldy     #$00
	lda     (sp),y
	ldy     #$03
	cmp     (sp),y
	bne     L004C
;
; orangeBulletActive = 0; // Disable the orange bullet if true.
;
	lda     #$00
	sta     _orangeBulletActive
;
; sfx_play(5,0);
;
	lda     #$05
	jsr     pusha
	lda     #$00
	jsr     _sfx_play
;
; return;
;
	jmp     incsp5
;
; if(orangePortalOrientation == 1) // If the portal was shot to the right.
;
L004C:	lda     _orangePortalOrientation
	cmp     #$01
	bne     L004D
;
; orangePortalSpriteData.X = (tileX << 3) + (8 - PORTAL_WIDTH); // Shift the portal to the left, so it's not stuck fully in the wall and can be entered.
;
	ldy     #$04
	ldx     #$00
	lda     (sp),y
	jsr     aslax3
	clc
	adc     #$F4
	sta     _orangePortalSpriteData
	txa
	adc     #$FF
;
; else if(orangePortalOrientation == 2) // If the portal was shot down.
;
	jmp     L006F
L004D:	lda     _orangePortalOrientation
	cmp     #$02
	bne     L001A
;
; orangePortalSpriteData.X = tileX << 3; // Shift the portal up.
;
	ldy     #$04
	lda     (sp),y
	asl     a
	asl     a
	asl     a
	sta     _orangePortalSpriteData
;
; orangePortalSpriteData.Y = (tileY << 3) + (8 - PORTAL_HEIGHT);
;
	dey
	ldx     #$00
	lda     (sp),y
	jsr     aslax3
	clc
	adc     #$F8
	pha
	txa
	adc     #$FF
	pla
;
; else // If the portal was shot left or up, just place the portal normally.
;
	jmp     L003F
;
; orangePortalSpriteData.X = tileX << 3;
;
L001A:	ldy     #$04
	lda     (sp),y
	asl     a
	asl     a
	asl     a
	sta     _orangePortalSpriteData
;
; orangePortalSpriteData.Y = tileY << 3;
;
L006F:	dey
	lda     (sp),y
	asl     a
	asl     a
	asl     a
L003F:	sta     _orangePortalSpriteData+1
;
; orangePortalActive = 1; // Set the orange portal as active.
;
	lda     #$01
	sta     _orangePortalActive
;
; sfx_play(3,0);
;
	tya
	jsr     pusha
	lda     #$00
	jsr     _sfx_play
;
; orangeBulletActive = 0; // Set the orange bullet as not active, so it stops getting drawn.
;
	lda     #$00
	sta     _orangeBulletActive
;
; else if(collision == 1 || collision == 4)// If the bullet hits a normal wall, or the bullet touches an emancipation grid.
;
	jmp     L001D
L004F:	lda     (sp),y
	cmp     #$01
	beq     L0052
	cmp     #$04
	bne     L001D
;
; orangeBulletActive = 0; // Set the orange bullet as not active, so it stops getting drawn.
;
L0052:	lda     #$00
	sta     _orangeBulletActive
;
; sfx_play(5,0);
;
	lda     #$05
	jsr     pusha
	lda     #$00
	jsr     _sfx_play
;
; if(blueBulletActive) // If the blue bullet is active.
;
L001D:	lda     _blueBulletActive
	jeq     L003B
;
; blueBulletSpriteData.X += blueBulletDirectionX; // Move the bullet in the X direction the player was aiming when it was shot.
;
	lda     _blueBulletDirectionX
	clc
	adc     _blueBulletSpriteData
	sta     _blueBulletSpriteData
;
; blueBulletSpriteData.Y += blueBulletDirectionY; // Move the bullet in the Y direction the player was aiming when it was shot.
;
	lda     _blueBulletDirectionY
	clc
	adc     _blueBulletSpriteData+1
	sta     _blueBulletSpriteData+1
;
; tileX = (blueBulletSpriteData.X + 4) >> 3; // Sets the X tile value to the tile the bullet collided with.
;
	ldx     #$00
	lda     _blueBulletSpriteData
	clc
	adc     #$04
	bcc     L0023
	inx
L0023:	jsr     asrax3
	ldy     #$04
	sta     (sp),y
;
; tileY = (blueBulletSpriteData.Y + 4) >> 3; // Sets the Y tile value to the tile the bullet collided with.
;
	ldx     #$00
	lda     _blueBulletSpriteData+1
	clc
	adc     #$04
	bcc     L0024
	inx
L0024:	jsr     asrax3
	dey
	sta     (sp),y
;
; collision = getCollisionValue(tileX, tileY); // Sets the collision value to the value of the tile in the collision map.
;
	iny
	lda     (sp),y
	jsr     pusha
	ldy     #$04
	lda     (sp),y
	jsr     _getCollisionValue
	ldy     #$02
	sta     (sp),y
;
; if(collision == 2) // If the tile has a collision of 2, meaning it can hold a portal.
;
	cmp     #$02
	jne     L005F
;
; if (blueBulletDirectionX > 0) // If the bullet was shot to the right.
;
	lda     _blueBulletDirectionX
	sec
	sbc     #$01
	bvs     L0028
	eor     #$80
L0028:	bpl     L0057
;
; bluePortalOrientation = 1; // Set the portal orientation to the right, so the player gets spit out to the left.
;
	lda     #$01
;
; else if (blueBulletDirectionX < 0) // If the bullet was shot to the left.
;
	jmp     L0040
L0057:	lda     _blueBulletDirectionX
	asl     a
	bcc     L0058
;
; bluePortalOrientation = 3; // Set the portal orientation to the left, so the player gets spit out to the right.
;
	lda     #$03
;
; else if (blueBulletDirectionY > 0) // If the bullet was shot down.
;
	jmp     L0040
L0058:	lda     _blueBulletDirectionY
	sec
	sbc     #$01
	bvs     L002F
	eor     #$80
L002F:	asl     a
	lda     #$00
	bcc     L0040
;
; bluePortalOrientation = 2; // Set the portal orientation to down, so the player gets spit out up.
;
	tya
;
; bluePortalOrientation = 0; // Set the portal orientation to up, so the player gets spit out down.
;
L0040:	sta     _bluePortalOrientation
;
; if (orangePortalActive) // If the orange portal is active.
;
	lda     _orangePortalActive
	beq     L005C
;
; otherPortalTileX = orangePortalSpriteData.X >> 3; // Get the X tile that the orange portal is located at.
;
	lda     _orangePortalSpriteData
	lsr     a
	lsr     a
	lsr     a
	dey
	sta     (sp),y
;
; otherPortalTileY = orangePortalSpriteData.Y >> 3; // Get the Y tile that the orange portal is located at.
;
	lda     _orangePortalSpriteData+1
	lsr     a
	lsr     a
	lsr     a
	dey
	sta     (sp),y
;
; if (otherPortalTileX == tileX && otherPortalTileY == tileY) // Check if the blue portal is trying to be placed at the same location of the orange portal.
;
	iny
	lda     (sp),y
	ldy     #$04
	cmp     (sp),y
	bne     L005C
	ldy     #$00
	lda     (sp),y
	ldy     #$03
	cmp     (sp),y
	bne     L005C
;
; blueBulletActive = 0; // Disable the blue bullet if true.
;
	lda     #$00
	sta     _blueBulletActive
;
; sfx_play(4,0);
;
	lda     #$04
	jsr     pusha
	lda     #$00
	jsr     _sfx_play
;
; return;
;
	jmp     incsp5
;
; if (bluePortalOrientation == 1) // If the portal was shot to the right.
;
L005C:	lda     _bluePortalOrientation
	cmp     #$01
	bne     L005D
;
; bluePortalSpriteData.X = (tileX << 3) + (8 - PORTAL_WIDTH); // Shift the portal to the left, so it's not stuck fully in the wall and can be entered.
;
	ldy     #$04
	ldx     #$00
	lda     (sp),y
	jsr     aslax3
	clc
	adc     #$F4
	sta     _bluePortalSpriteData
	txa
	adc     #$FF
;
; else if (bluePortalOrientation == 2) // If the portal was shot down.
;
	jmp     L0070
L005D:	lda     _bluePortalOrientation
	cmp     #$02
	bne     L0038
;
; bluePortalSpriteData.X = tileX << 3; // Shift the portal up.
;
	ldy     #$04
	lda     (sp),y
	asl     a
	asl     a
	asl     a
	sta     _bluePortalSpriteData
;
; bluePortalSpriteData.Y = (tileY << 3) + (8 - PORTAL_HEIGHT);
;
	dey
	ldx     #$00
	lda     (sp),y
	jsr     aslax3
	clc
	adc     #$F8
	pha
	txa
	adc     #$FF
	pla
;
; else // If the portal was shot left or up, just place the portal normally.
;
	jmp     L0041
;
; bluePortalSpriteData.X = tileX << 3;
;
L0038:	ldy     #$04
	lda     (sp),y
	asl     a
	asl     a
	asl     a
	sta     _bluePortalSpriteData
;
; bluePortalSpriteData.Y = tileY << 3;
;
L0070:	dey
	lda     (sp),y
	asl     a
	asl     a
	asl     a
L0041:	sta     _bluePortalSpriteData+1
;
; bluePortalActive = 1; // Set the blue portal to active.
;
	lda     #$01
	sta     _bluePortalActive
;
; sfx_play(2,0);
;
	lda     #$02
;
; else if (collision == 1 || collision == 4) // If the bullet hits a wall that can't hold a portal or touches an emancipation grid.
;
	jmp     L006E
L005F:	lda     (sp),y
	cmp     #$01
	beq     L0062
	cmp     #$04
	bne     L003B
;
; sfx_play(4,0);
;
L0062:	lda     #$04
L006E:	jsr     pusha
	lda     #$00
	jsr     _sfx_play
;
; blueBulletActive = 0;// Set the blue bullet to not active so it can be shot again.
;
	lda     #$00
	sta     _blueBulletActive
;
; }
;
L003B:	jmp     incsp5

.endproc

; ---------------------------------------------------------------
; void __near__ drawBullet (void)
; ---------------------------------------------------------------

.segment	"CODE"

.proc	_drawBullet: near

.segment	"CODE"

;
; if (orangeBulletActive) // If the bullet active is orange.
;
	lda     _orangeBulletActive
	beq     L0002
;
; oam_meta_spr(orangeBulletSpriteData.X, orangeBulletSpriteData.Y, orangeBulletSprite); // Draw the orange sprite.
;
	jsr     decsp2
	lda     _orangeBulletSpriteData
	ldy     #$01
	sta     (sp),y
	lda     _orangeBulletSpriteData+1
	dey
	sta     (sp),y
	lda     #<(_orangeBulletSprite)
	ldx     #>(_orangeBulletSprite)
	jsr     _oam_meta_spr
;
; if (blueBulletActive) // If the bullet active is blue.
;
L0002:	lda     _blueBulletActive
	beq     L0003
;
; oam_meta_spr(blueBulletSpriteData.X, blueBulletSpriteData.Y, blueBulletSprite); // Draw the blue sprite.
;
	jsr     decsp2
	lda     _blueBulletSpriteData
	ldy     #$01
	sta     (sp),y
	lda     _blueBulletSpriteData+1
	dey
	sta     (sp),y
	lda     #<(_blueBulletSprite)
	ldx     #>(_blueBulletSprite)
	jmp     _oam_meta_spr
;
; }
;
L0003:	rts

.endproc

; ---------------------------------------------------------------
; unsigned char __near__ onGround (void)
; ---------------------------------------------------------------

.segment	"CODE"

.proc	_onGround: near

.segment	"CODE"

;
; unsigned char footY     = (playerSpriteData.Y + playerSpriteData.height + 1) >> 3; // Gets the tile directly below the sprite.
;
	ldx     #$00
	lda     _playerSpriteData+1
	clc
	adc     _playerSpriteData+2
	bcc     L0010
	inx
	clc
L0010:	adc     #$01
	bcc     L0002
	inx
L0002:	jsr     asrax3
	jsr     pusha
;
; unsigned char footXLeft = playerSpriteData.X >> 3; // Gets the tile that the "left foot", AKA, the left half of the sprite is touching.
;
	lda     _playerSpriteData
	lsr     a
	lsr     a
	lsr     a
	jsr     pusha
;
; unsigned char footXRight= (playerSpriteData.X + playerSpriteData.width) >> 3; // Gets the tile that the "right foot", AKA the left half of the player sprite is touching.
;
	ldx     #$00
	lda     _playerSpriteData
	clc
	adc     _playerSpriteData+3
	bcc     L000D
	inx
L000D:	jsr     asrax3
	jsr     pusha
;
; unsigned char collisionLeft = getCollisionValue(footXLeft, footY);
;
	ldy     #$01
	lda     (sp),y
	jsr     pusha
	ldy     #$03
	lda     (sp),y
	jsr     _getCollisionValue
	jsr     pusha
;
; unsigned char collisionRight = getCollisionValue(footXRight, footY);
;
	ldy     #$01
	lda     (sp),y
	jsr     pusha
	ldy     #$04
	lda     (sp),y
	jsr     _getCollisionValue
	jsr     pusha
;
; if ((collisionLeft >= 1 && collisionLeft <= 3) || (collisionRight >= 1 && collisionRight <= 3)) // Checks if the bottom left, or bottom right tile is touching a floor tile.
;
	ldy     #$01
	lda     (sp),y
	beq     L000E
	ldx     #$00
	lda     (sp),y
	cmp     #$04
	bcc     L0016
L000E:	ldx     #$00
	lda     (sp,x)
	beq     L0001
	cmp     #$04
	bcc     L0016
	txa
	jmp     incsp5
L0016:	tya
;
; }
;
L0001:	jmp     incsp5

.endproc

; ---------------------------------------------------------------
; void __near__ applyGravity (void)
; ---------------------------------------------------------------

.segment	"CODE"

.proc	_applyGravity: near

.segment	"CODE"

;
; gravityToggle = !gravityToggle; // Flips the toggle.
;
	lda     M0001
	jsr     bnega
	sta     M0001
;
; if (!gravityToggle) // If the toggle is not active.
;
	lda     M0001
;
; return; // Do Nothing - this is so gravity is only applied every 2 frames, instead of every one frame. This helps to prevent clipping when falling.
;
	bne     L004D
;
; }
;
	rts
;
; if (!onGround()) // If the player is not touching the floor.
;
L004D:	jsr     _onGround
	tax
	bne     L0003
;
; playerVelocity += GRAVITY; // Add gravity to the players velocity.
;
	inc     _playerVelocity
;
; if (playerVelocity > MAX_FALL_SPEED) // If the player velocity has exceeded the max fall speed.
;
	lda     _playerVelocity
	cmp     #$05
	bcc     L0034
;
; playerVelocity = MAX_FALL_SPEED; // Set the velocity to the max fall speed.
;
	lda     #$04
;
; else // If the player is touching the floor, get rid of any extra velocity.
;
	jmp     L002E
;
; playerVelocity = 0;
;
L0003:	lda     #$00
L002E:	sta     _playerVelocity
;
; if (playerVelocity > 0) 
;
L0034:	lda     _playerVelocity
	beq     L0006
;
; for (i = 0; i < playerVelocity; ++i) 
;
	jsr     decsp1
	lda     #$00
	tay
L002F:	sta     (sp),y
	cmp     _playerVelocity
	bcs     L0008
;
; playerSpriteData.Y++; // Moves the player down, while they have velocity.
;
	inc     _playerSpriteData+1
;
; if (onGround()) // Checks if the player is now touching the floor.
;
	jsr     _onGround
	tax
	beq     L0009
;
; playerVelocity = 0; // Removes the remaining velocity.
;
	lda     #$00
	sta     _playerVelocity
;
; break; // Breaks the for loop - helps prevent floor clipping.
;
	jmp     L0008
;
; for (i = 0; i < playerVelocity; ++i) 
;
L0009:	tay
	clc
	lda     #$01
	adc     (sp),y
	jmp     L002F
;
; }
;
L0008:	jsr     incsp1
;
; if (boxEnabled && !boxHeld) // If the level has a box, and the box isn't being held.
;
L0006:	lda     _boxEnabled
	beq     L0036
	lda     _boxHeld
	beq     L0037
L0036:	rts
;
; unsigned char footXLeft = boxSpriteData.X >> 3; // Get the tile position to the bottom left of the box.
;
L0037:	lda     _boxSpriteData
	lsr     a
	lsr     a
	lsr     a
	jsr     pusha
;
; unsigned char footXRight = (boxSpriteData.X + boxSpriteData.width) >> 3; // Get the tile position to the bottom right of the box.
;
	ldx     #$00
	lda     _boxSpriteData
	clc
	adc     _boxSpriteData+3
	bcc     L0029
	inx
L0029:	jsr     asrax3
	jsr     pusha
;
; unsigned char footY = (boxSpriteData.Y + boxSpriteData.height + 1) >> 3; // Get the tile position directly beneath the box.
;
	ldx     #$00
	lda     _boxSpriteData+1
	clc
	adc     _boxSpriteData+2
	bcc     L0032
	inx
	clc
L0032:	adc     #$01
	bcc     L0010
	inx
L0010:	jsr     asrax3
	jsr     pusha
;
; unsigned char collisionLeft = getCollisionValue(footXLeft, footY); // Collision value for the bottom left tile.
;
	jsr     decsp1
	ldy     #$03
	lda     (sp),y
	jsr     pusha
	ldy     #$02
	lda     (sp),y
	jsr     _getCollisionValue
	jsr     pusha
;
; unsigned char collisionRight = getCollisionValue(footXRight, footY); // Collision value for the bottom right tile.
;
	ldy     #$03
	lda     (sp),y
	jsr     pusha
	ldy     #$03
	lda     (sp),y
	jsr     _getCollisionValue
	jsr     pusha
;
; if ((collisionLeft < 1 || collisionLeft > 3) && (collisionRight < 1 || collisionRight > 3)) // If the box is not touching the floor.
;
	ldy     #$01
	lda     (sp),y
	beq     L0038
	cmp     #$04
	bcs     L0038
	lda     #$00
	jmp     L0030
L0038:	dey
	lda     (sp),y
	beq     L003E
	cmp     #$04
	bcs     L003E
	tya
	jmp     L0030
;
; boxVelocity += GRAVITY; // Add gravity to the box velocity.
;
L003E:	inc     _boxVelocity
;
; if (boxVelocity > MAX_FALL_SPEED)  // If the box more velocity than is allowed.
;
	lda     _boxVelocity
	cmp     #$05
	tya
	bcc     L0040
;
; boxVelocity = MAX_FALL_SPEED; // Set the velocity to the max.
;
	lda     #$04
	sta     _boxVelocity
;
; for (i = 0; i < boxVelocity; ++i) 
;
	tya
L0040:	ldy     #$02
L0031:	sta     (sp),y
	cmp     _boxVelocity
	bcs     L0028
;
; boxSpriteData.Y++; // Moves the box down.
;
	inc     _boxSpriteData+1
;
; footY = (boxSpriteData.Y + boxSpriteData.height + 1) >> 3;
;
	ldx     #$00
	lda     _boxSpriteData+1
	clc
	adc     _boxSpriteData+2
	bcc     L0033
	inx
	clc
L0033:	adc     #$01
	bcc     L001E
	inx
L001E:	jsr     asrax3
	iny
	sta     (sp),y
;
; collisionLeft = getCollisionValue(footXLeft, footY); // Gets collision value for the tile bottom left of the box.
;
	ldy     #$05
	lda     (sp),y
	jsr     pusha
	ldy     #$04
	lda     (sp),y
	jsr     _getCollisionValue
	ldy     #$01
	sta     (sp),y
;
; collisionRight = getCollisionValue(footXRight, footY); // Gets collision value for the tile bottom right of the box.
;
	ldy     #$04
	lda     (sp),y
	jsr     pusha
	ldy     #$04
	lda     (sp),y
	jsr     _getCollisionValue
	ldy     #$00
	sta     (sp),y
;
; if ((collisionLeft >= 1 && collisionLeft <= 3) || (collisionRight >= 1 && collisionRight <= 3)) // If the box is now touching the floor.
;
	iny
	lda     (sp),y
	beq     L002C
	cmp     #$04
	bcc     L004B
L002C:	dey
	lda     (sp),y
	beq     L001C
	cmp     #$04
	bcs     L001C
;
; boxVelocity = 0; // Remove any remaining velocity.
;
L004B:	lda     #$00
;
; break; // Break the loop
;
	jmp     L0030
;
; for (i = 0; i < boxVelocity; ++i) 
;
L001C:	ldy     #$02
	clc
	lda     #$01
	adc     (sp),y
	jmp     L0031
;
; boxVelocity = 0; // Remove any velocity the box may have somehow.
;
L0030:	sta     _boxVelocity
;
; }
;
L0028:	jmp     incsp6

.segment	"DATA"

M0001:
	.byte	$00

.endproc

; ---------------------------------------------------------------
; const unsigned char *__near__ getPlayerSprite (void)
; ---------------------------------------------------------------

.segment	"CODE"

.proc	_getPlayerSprite: near

.segment	"CODE"

;
; if(mode == 0) // If the player is in move mode.
;
	lda     _mode
	bne     L0034
;
; return playerSprite; // Return the default player sprite.
;
	lda     #<(_playerSprite)
	ldx     #>(_playerSprite)
	rts
;
; if(aimDirectionX == 0 && aimDirectionY == -1) 
;
L0034:	lda     _aimDirectionX
	bne     L0035
	lda     _aimDirectionY
	cmp     #$FF
	jeq     L002D
;
; if(aimDirectionX == 0 && aimDirectionY == 1) 
;
L0035:	lda     _aimDirectionX
	bne     L0036
	lda     _aimDirectionY
	cmp     #$01
	bne     L0036
;
; return playerShootDownSprite;
;
	lda     #<(_playerShootDownSprite)
	ldx     #>(_playerShootDownSprite)
	rts
;
; if(aimDirectionX == -1 && aimDirectionY == 0) 
;
L0036:	lda     _aimDirectionX
	cmp     #$FF
	bne     L0037
	lda     _aimDirectionY
	bne     L0037
;
; return playerShootLeftSprite;
;
	lda     #<(_playerShootLeftSprite)
	ldx     #>(_playerShootLeftSprite)
	rts
;
; if(aimDirectionX == 1 && aimDirectionY == 0) 
;
L0037:	lda     _aimDirectionX
	cmp     #$01
	bne     L0038
	lda     _aimDirectionY
	bne     L0038
;
; return playerShootRightSprite;
;
	lda     #<(_playerShootRightSprite)
	ldx     #>(_playerShootRightSprite)
	rts
;
; if(aimDirectionX == -1 && aimDirectionY == -1) 
;
L0038:	lda     _aimDirectionX
	cmp     #$FF
	bne     L0039
	lda     _aimDirectionY
	cmp     #$FF
	bne     L0039
;
; return playerShootTopLeftSprite;
;
	lda     #<(_playerShootTopLeftSprite)
	ldx     #>(_playerShootTopLeftSprite)
	rts
;
; if(aimDirectionX == 1 && aimDirectionY == -1) 
;
L0039:	lda     _aimDirectionX
	cmp     #$01
	bne     L003A
	lda     _aimDirectionY
	cmp     #$FF
	bne     L003A
;
; return playerShootTopRightSprite;
;
	lda     #<(_playerShootTopRightSprite)
	ldx     #>(_playerShootTopRightSprite)
	rts
;
; if(aimDirectionX == -1 && aimDirectionY == 1) 
;
L003A:	lda     _aimDirectionX
	cmp     #$FF
	bne     L003B
	lda     _aimDirectionY
	cmp     #$01
	bne     L003B
;
; return playerShootBottomLeftSprite;
;
	lda     #<(_playerShootBottomLeftSprite)
	ldx     #>(_playerShootBottomLeftSprite)
	rts
;
; if(aimDirectionX == 1 && aimDirectionY == 1) 
;
L003B:	lda     _aimDirectionX
	cmp     #$01
	bne     L002D
	lda     _aimDirectionY
	cmp     #$01
	bne     L002D
;
; return playerShootBottomRightSprite;
;
	lda     #<(_playerShootBottomRightSprite)
	ldx     #>(_playerShootBottomRightSprite)
	rts
;
; return playerShootUpSprite; // Return the aiming up sprite, if no directions have pressed.
;
L002D:	lda     #<(_playerShootUpSprite)
	ldx     #>(_playerShootUpSprite)
;
; }
;
	rts

.endproc

; ---------------------------------------------------------------
; void __near__ drawSprite (void)
; ---------------------------------------------------------------

.segment	"CODE"

.proc	_drawSprite: near

.segment	"CODE"

;
; const unsigned char* currentSprite = getPlayerSprite(); // Holds the current player sprite. 
;
	jsr     _getPlayerSprite
	jsr     pushax
;
; oam_meta_spr(playerSpriteData.X, playerSpriteData.Y, currentSprite); // Draw the current sprite at the player's X and Y data.
;
	jsr     decsp2
	lda     _playerSpriteData
	ldy     #$01
	sta     (sp),y
	lda     _playerSpriteData+1
	dey
	sta     (sp),y
	ldy     #$03
	lda     (sp),y
	tax
	dey
	lda     (sp),y
	jsr     _oam_meta_spr
;
; }
;
	jmp     incsp2

.endproc

; ---------------------------------------------------------------
; void __near__ loadLevel (unsigned char lvl)
; ---------------------------------------------------------------

.segment	"CODE"

.proc	_loadLevel: near

.segment	"CODE"

;
; {
;
	jsr     pusha
;
; ppu_off(); // Turn the screen off.
;
	jsr     _ppu_off
;
; song = 2; // Set song to 2 - meaning in-game track.
;
	lda     #$02
	sta     _song
;
; pal_bg(levelPaletteBackground); // Sets the Background Palette to the level palette.
;
	lda     #<(_levelPaletteBackground)
	ldx     #>(_levelPaletteBackground)
	jsr     _pal_bg
;
; switch(lvl) // Switch on the current level.
;
	ldy     #$00
	lda     (sp),y
;
; }
;
	beq     L0004
	cmp     #$01
	jeq     L0005
	cmp     #$02
	jeq     L0006
	cmp     #$03
	jeq     L0007
	cmp     #$04
	jeq     L0008
	cmp     #$05
	jeq     L0009
	jmp     L000B
;
; vram_adr(NAMETABLE_A); // Set the VRAM address to the start of NameTableA.
;
L0004:	ldx     #$20
	jsr     _vram_adr
;
; vram_write(levelOneData, 1024); // Fill NameTableA with all 1024 bytes from the levelOneData array, which includes the attribute table.
;
	lda     #<(_levelOneData)
	ldx     #>(_levelOneData)
	jsr     pushax
	ldx     #$04
	lda     #$00
	jsr     _vram_write
;
; levelCollisionData = levelOneCollision; // Set the appropriate level collision to the read only version.
;
	lda     #>(_levelOneCollision)
	sta     _levelCollisionData+1
	lda     #<(_levelOneCollision)
	sta     _levelCollisionData
;
; doorTileX = 25; // Set the X for the top left tile of the door.
;
	lda     #$19
	sta     _doorTileX
;
; doorTileY = 26; // Set the Y for the top left tile of the door.
;
	lda     #$1A
	sta     _doorTileY
;
; buttonTileX = 19; // Set the X for the left tile of the button.
;
	lda     #$13
	sta     _buttonTileX
;
; buttonTileY = 27; // Set the Y for the left tile of the button.
;
	lda     #$1B
	sta     _buttonTileY
;
; buttonEnabled = 1; // Set this level as having a button.
;
	lda     #$01
	sta     _buttonEnabled
;
; playerSpriteData.X = 16; // Sets the player location to the starting location.
;
	lda     #$10
	sta     _playerSpriteData
;
; playerSpriteData.Y = 208; // Sets the player location to the starting location.
;
	lda     #$D0
	sta     _playerSpriteData+1
;
; boxEnabled = 1; // Set this level as having a box.
;
	lda     #$01
	sta     _boxEnabled
;
; boxHeld = 0; // Reset box hold.
;
	lda     #$00
	sta     _boxHeld
;
; boxStartX = 64; // Set the X for the top left tile of the box.
;
	lda     #$40
	sta     _boxStartX
;
; boxStartY = 208; // Set the Y for the top left tile of the box.
;
	lda     #$D0
	sta     _boxStartY
;
; boxSpriteData.X = boxStartX; // Set the box sprite to the starting pos of the box.
;
	lda     _boxStartX
	sta     _boxSpriteData
;
; boxSpriteData.Y = boxStartY; 
;
	lda     _boxStartY
	sta     _boxSpriteData+1
;
; break;
;
	jmp     L000C
;
; vram_adr(NAMETABLE_A); // Set the VRAM address to the start of NameTableA.
;
L0005:	ldx     #$20
	tya
	jsr     _vram_adr
;
; vram_write(levelTwoData, 1024); // Fill NameTableA with all 1024 bytes from the levelTwoData array, which includes the attribute table.
;
	lda     #<(_levelTwoData)
	ldx     #>(_levelTwoData)
	jsr     pushax
	ldx     #$04
	lda     #$00
	jsr     _vram_write
;
; levelCollisionData = levelTwoCollision; // Set the appropriate level collision to the read only version.
;
	lda     #>(_levelTwoCollision)
	sta     _levelCollisionData+1
	lda     #<(_levelTwoCollision)
	sta     _levelCollisionData
;
; playerSpriteData.X = 16; // Sets the player location to the starting location.
;
	lda     #$10
	sta     _playerSpriteData
;
; playerSpriteData.Y = 208; // Sets the player location to the starting location.
;
	lda     #$D0
	sta     _playerSpriteData+1
;
; boxEnabled = 0; // Set this level as not having a box.
;
	lda     #$00
	sta     _boxEnabled
;
; buttonEnabled = 0; // Set this level as not having a button.
;
	sta     _buttonEnabled
;
; break;
;
	jmp     L000D
;
; vram_adr(NAMETABLE_A); // Set the VRAM address to the start of NameTableA.
;
L0006:	ldx     #$20
	tya
	jsr     _vram_adr
;
; vram_write(levelThreeData, 1024); // Fill NameTableA with all 1024 bytes from the levelThreeData array, which includes the attribute table.
;
	lda     #<(_levelThreeData)
	ldx     #>(_levelThreeData)
	jsr     pushax
	ldx     #$04
	lda     #$00
	jsr     _vram_write
;
; levelCollisionData = levelThreeCollision; // Set the appropriate level collision to the read only version.
;
	lda     #>(_levelThreeCollision)
	sta     _levelCollisionData+1
	lda     #<(_levelThreeCollision)
	sta     _levelCollisionData
;
; playerSpriteData.X = 16; // Sets the player location to the starting location.
;
	lda     #$10
	sta     _playerSpriteData
;
; playerSpriteData.Y = 208; // Sets the player location to the starting location.
;
	lda     #$D0
	sta     _playerSpriteData+1
;
; boxEnabled = 0; // Set this level as not having a box.
;
	lda     #$00
	sta     _boxEnabled
;
; buttonEnabled = 0; // Set this level as not having a button.
;
	sta     _buttonEnabled
;
; break;
;
	jmp     L000D
;
; vram_adr(NAMETABLE_A); // Set the VRAM address to the start of NameTableA.
;
L0007:	ldx     #$20
	tya
	jsr     _vram_adr
;
; vram_write(levelFourData, 1024); // Fill NameTableA with all 1024 bytes from the levelFourData array, which includes the attribute table.
;
	lda     #<(_levelFourData)
	ldx     #>(_levelFourData)
	jsr     pushax
	ldx     #$04
	lda     #$00
	jsr     _vram_write
;
; levelCollisionData = levelFourCollision;
;
	lda     #>(_levelFourCollision)
	sta     _levelCollisionData+1
	lda     #<(_levelFourCollision)
	sta     _levelCollisionData
;
; playerSpriteData.X = 16; // Sets the player location to the  starting location.
;
	lda     #$10
	sta     _playerSpriteData
;
; playerSpriteData.Y = 208; // Sets the player location to the starting location.
;
	lda     #$D0
	sta     _playerSpriteData+1
;
; boxEnabled = 0; // Set this level as not having a box.
;
	lda     #$00
	sta     _boxEnabled
;
; buttonEnabled = 0; // Set this level as not having a button.
;
	sta     _buttonEnabled
;
; break;
;
	jmp     L000D
;
; vram_adr(NAMETABLE_A); // Set the VRAM address to the start of NameTableA.
;
L0008:	ldx     #$20
	tya
	jsr     _vram_adr
;
; vram_write(levelFiveData, 1024); // Fill NameTableA with all 1024 bytes from the levelFiveData array, which includes the attribute table.
;
	lda     #<(_levelFiveData)
	ldx     #>(_levelFiveData)
	jsr     pushax
	ldx     #$04
	lda     #$00
	jsr     _vram_write
;
; levelCollisionData = levelFiveCollision; // Set the appropriate level collision to the read only version.
;
	lda     #>(_levelFiveCollision)
	sta     _levelCollisionData+1
	lda     #<(_levelFiveCollision)
	sta     _levelCollisionData
;
; playerSpriteData.X = 16; // Sets the player location to the starting location.
;
	lda     #$10
	sta     _playerSpriteData
;
; playerSpriteData.Y = 208; // Sets the player location to the starting location.
;
	lda     #$D0
	sta     _playerSpriteData+1
;
; boxEnabled = 1; // Set this level as having a box.
;
	lda     #$01
	sta     _boxEnabled
;
; buttonEnabled = 1; // Set this level as having a button.
;
	sta     _buttonEnabled
;
; doorTileX = 24; // Set the X for the top left tile of the door.
;
	lda     #$18
	sta     _doorTileX
;
; doorTileY = 10; // Set the Y for the top left tile of the door.
;
	lda     #$0A
	sta     _doorTileY
;
; buttonTileX = 26; // Set the X for the left tile of the button.
;
	lda     #$1A
	sta     _buttonTileX
;
; buttonTileY = 27; // Set the Y for the left tile of the button.
;
	lda     #$1B
	sta     _buttonTileY
;
; boxHeld = 0; // Reset the box held.
;
	lda     #$00
	sta     _boxHeld
;
; boxStartX = 32; // Set the X for the top left tile of the box.
;
	lda     #$20
	sta     _boxStartX
;
; boxStartY = 80; // Set the Y for the top left tile of the box.
;
	lda     #$50
	sta     _boxStartY
;
; boxSpriteData.X = boxStartX; // Set the box sprite to the starting location.
;
	lda     _boxStartX
	sta     _boxSpriteData
;
; boxSpriteData.Y = boxStartY;
;
	lda     _boxStartY
	sta     _boxSpriteData+1
;
; break;
;
	jmp     L000C
;
; vram_adr(NAMETABLE_A); // Set the VRAM address to the start of NameTableA.
;
L0009:	ldx     #$20
	tya
	jsr     _vram_adr
;
; vram_write(levelSixData, 1024); // Fill NameTableA with all 1024 bytes from the levelSixData array, which includes the attribute table.
;
	lda     #<(_levelSixData)
	ldx     #>(_levelSixData)
	jsr     pushax
	ldx     #$04
	lda     #$00
	jsr     _vram_write
;
; levelCollisionData = levelSixCollision; // Set the appropriate level collision to the read only version.
;
	lda     #>(_levelSixCollision)
	sta     _levelCollisionData+1
	lda     #<(_levelSixCollision)
	sta     _levelCollisionData
;
; playerSpriteData.X = 16; // Sets the player location to the starting location for level 1.
;
	lda     #$10
	sta     _playerSpriteData
;
; playerSpriteData.Y = 208; // Sets the player location to the starting location for level 1.
;
	lda     #$D0
	sta     _playerSpriteData+1
;
; boxEnabled = 1; // Sets this level as having a box.
;
	lda     #$01
	sta     _boxEnabled
;
; buttonEnabled = 1; // Sets this level as having a button.
;
	sta     _buttonEnabled
;
; doorTileX = 4; // Sets the X for the top left tile of the door.
;
	lda     #$04
	sta     _doorTileX
;
; doorTileY = 8; // Sets the Y for the top left tile of the door.
;
	lda     #$08
	sta     _doorTileY
;
; buttonTileX = 24; // Sets the X for the left tile of the button.
;
	lda     #$18
	sta     _buttonTileX
;
; buttonTileY = 27; // Sets the Y for the left tile of the button.
;
	lda     #$1B
	sta     _buttonTileY
;
; boxHeld = 0; // Reset teh box held.
;
	lda     #$00
	sta     _boxHeld
;
; boxStartX = 48; // Set the X for the top left tile of the box.
;
	lda     #$30
	sta     _boxStartX
;
; boxStartY = 208; // Set the Y for the top left tile of the box.
;
	lda     #$D0
	sta     _boxStartY
;
; boxSpriteData.X = boxStartX; // Set the box sprite to the starting location.
;
	lda     _boxStartX
	sta     _boxSpriteData
;
; boxSpriteData.Y = boxStartY;
;
	lda     _boxStartY
	sta     _boxSpriteData+1
;
; break;
;
	jmp     L000C
;
; gameState = 2; // Default to gameState 2, which is the end screen. USED SO MORE LEVELS COULD BE ADDED EASILY.
;
L000B:	lda     #$02
	sta     _gameState
;
; bluePortalActive   = 0; // Reset the blue portal active.
;
L000C:	lda     #$00
L000D:	sta     _bluePortalActive
;
; orangePortalActive = 0; // Reset the orange portal active.
;
	sta     _orangePortalActive
;
; blueBulletActive   = 0; // Reset the blue bullet being active.
;
	sta     _blueBulletActive
;
; orangeBulletActive = 0; // Reset the orange bullet being active.
;
	sta     _orangeBulletActive
;
; lastPortalUsed     = 0; // Reset the last portal used.
;
	sta     _lastPortalUsed
;
; memcpy(levelCollisionRAM, levelCollisionData, 960); // Moves the new level collision data into RAM.
;
	lda     #<(_levelCollisionRAM)
	ldx     #>(_levelCollisionRAM)
	jsr     pushax
	lda     _levelCollisionData
	ldx     _levelCollisionData+1
	jsr     pushax
	ldx     #$03
	lda     #$C0
	jsr     _memcpy
;
; ppu_on_all(); // Turn the screen back on.
;
	jsr     _ppu_on_all
;
; }
;
	jmp     incsp1

.endproc

; ---------------------------------------------------------------
; void __near__ drawMainMenu (void)
; ---------------------------------------------------------------

.segment	"CODE"

.proc	_drawMainMenu: near

.segment	"CODE"

;
; ppu_off(); // Turns the screen off.
;
	jsr     _ppu_off
;
; vram_adr(NAMETABLE_A); // Set the VRAM address to the start of NameTableA.
;
	ldx     #$20
	lda     #$00
	jsr     _vram_adr
;
; vram_write(menu, 1024); // Fill NameTableA with all 1024 bytes from the menu array, which includes the attribute table.
;
	lda     #<(_menu)
	ldx     #>(_menu)
	jsr     pushax
	ldx     #$04
	lda     #$00
	jsr     _vram_write
;
; ppu_on_all(); // Turns the screen on.
;
	jmp     _ppu_on_all

.endproc

; ---------------------------------------------------------------
; void __near__ animatePressStartText (void)
; ---------------------------------------------------------------

.segment	"CODE"

.proc	_animatePressStartText: near

.segment	"CODE"

;
; flashTimer++; // Increments the flash timer.
;
	inc     M0001
;
; if(flashTimer >= 30) // If the flash timer has gone for 30 frames.
;
	lda     M0001
	cmp     #$1E
	bcc     L0002
;
; flashTimer = 0; // Reset the flash timer.
;
	lda     #$00
	sta     M0001
;
; ppu_off(); // Turn the screen off.
;
	jsr     _ppu_off
;
; vram_adr(NAMETABLE_A + (17 * 32) + 10); // Sets the VRAM address to the start of NametableA, and then moves to the location of the 17th row and 10th col to the exact location the PRESS START! tiles are.
;
	ldx     #$22
	lda     #$2A
	jsr     _vram_adr
;
; if(showPressStartText) // If the text is visible.
;
	lda     M0002
	beq     L0003
;
; vram_write(blankTiles, 12); // Change the text tiles to blank tiles.
;
	lda     #<(_blankTiles)
	ldx     #>(_blankTiles)
	jsr     pushax
	ldx     #$00
	lda     #$0C
	jsr     _vram_write
;
; showPressStartText = 0; // Set that the text is not visible anymore.
;
	lda     #$00
;
; else 
;
	jmp     L0005
;
; vram_write(pressStartTiles, 12); // Change the blank tiles to the text tiles.
;
L0003:	lda     #<(_pressStartTiles)
	ldx     #>(_pressStartTiles)
	jsr     pushax
	ldx     #$00
	lda     #$0C
	jsr     _vram_write
;
; showPressStartText = 1; // Set that the text is now visible.
;
	lda     #$01
L0005:	sta     M0002
;
; ppu_on_all(); // Turn the screen on.
;
	jmp     _ppu_on_all
;
; }
;
L0002:	rts

.segment	"DATA"

M0001:
	.byte	$00
M0002:
	.byte	$01

.endproc

; ---------------------------------------------------------------
; void __near__ drawOrangePortalSprite (void)
; ---------------------------------------------------------------

.segment	"CODE"

.proc	_drawOrangePortalSprite: near

.segment	"CODE"

;
; if(orangePortalActive) // If the orange portal is active.
;
	lda     _orangePortalActive
	beq     L0002
;
; oam_meta_spr(orangePortalSpriteData.X, orangePortalSpriteData.Y, orangePortal); // Draw the orange portal sprite.
;
	jsr     decsp2
	lda     _orangePortalSpriteData
	ldy     #$01
	sta     (sp),y
	lda     _orangePortalSpriteData+1
	dey
	sta     (sp),y
	lda     #<(_orangePortal)
	ldx     #>(_orangePortal)
	jmp     _oam_meta_spr
;
; }
;
L0002:	rts

.endproc

; ---------------------------------------------------------------
; void __near__ drawBluePortalSprite (void)
; ---------------------------------------------------------------

.segment	"CODE"

.proc	_drawBluePortalSprite: near

.segment	"CODE"

;
; if(bluePortalActive) // If the blue portal is active.
;
	lda     _bluePortalActive
	beq     L0002
;
; oam_meta_spr(bluePortalSpriteData.X, bluePortalSpriteData.Y, bluePortal); // Draw the blue portal sprite.
;
	jsr     decsp2
	lda     _bluePortalSpriteData
	ldy     #$01
	sta     (sp),y
	lda     _bluePortalSpriteData+1
	dey
	sta     (sp),y
	lda     #<(_bluePortal)
	ldx     #>(_bluePortal)
	jmp     _oam_meta_spr
;
; }
;
L0002:	rts

.endproc

; ---------------------------------------------------------------
; unsigned char __near__ getCollisionValue (unsigned char x, unsigned char y)
; ---------------------------------------------------------------

.segment	"CODE"

.proc	_getCollisionValue: near

.segment	"CODE"

;
; {
;
	jsr     pusha
;
; if(x >= 32 || y >= 30)
;
	ldy     #$01
	lda     (sp),y
	cmp     #$20
	bcs     L0007
	dey
	lda     (sp),y
	cmp     #$1E
	bcc     L0002
;
; return 1;
;
L0007:	ldx     #$00
	lda     #$01
	jmp     incsp2
;
; return levelCollision[y * 32 + x]; // Gets the collision value for the tile at X and Y.
;
L0002:	ldx     #$00
	lda     (sp),y
	jsr     shlax4
	stx     tmp1
	asl     a
	rol     tmp1
	sta     ptr1
	iny
	lda     (sp),y
	clc
	adc     ptr1
	ldx     tmp1
	bcc     L0006
	inx
	clc
L0006:	adc     _levelCollision
	sta     ptr1
	txa
	adc     _levelCollision+1
	sta     ptr1+1
	ldx     #$00
	lda     (ptr1,x)
;
; }
;
	jmp     incsp2

.endproc

; ---------------------------------------------------------------
; void __near__ doorPlayerCollision (void)
; ---------------------------------------------------------------

.segment	"CODE"

.proc	_doorPlayerCollision: near

.segment	"CODE"

;
; unsigned char leftTile   = playerSpriteData.X >> 3;
;
	lda     _playerSpriteData
	lsr     a
	lsr     a
	lsr     a
	jsr     pusha
;
; unsigned char rightTile  = (playerSpriteData.X + playerSpriteData.width) >> 3;
;
	ldx     #$00
	lda     _playerSpriteData
	clc
	adc     _playerSpriteData+3
	bcc     L0005
	inx
L0005:	jsr     asrax3
	jsr     pusha
;
; unsigned char topTile    = playerSpriteData.Y >> 3;
;
	lda     _playerSpriteData+1
	lsr     a
	lsr     a
	lsr     a
	jsr     pusha
;
; unsigned char bottomTile = (playerSpriteData.Y + playerSpriteData.height) >> 3;
;
	ldx     #$00
	lda     _playerSpriteData+1
	clc
	adc     _playerSpriteData+2
	bcc     L0006
	inx
L0006:	jsr     asrax3
	jsr     pusha
;
; if (getCollisionValue(leftTile, topTile) == 5 || getCollisionValue(rightTile, topTile) == 5 || getCollisionValue(leftTile, bottomTile) == 5 || getCollisionValue(rightTile, bottomTile) == 5)
;
	ldy     #$03
	lda     (sp),y
	jsr     pusha
	ldy     #$02
	lda     (sp),y
	jsr     _getCollisionValue
	cmp     #$05
	beq     L0003
	ldy     #$02
	lda     (sp),y
	jsr     pusha
	ldy     #$02
	lda     (sp),y
	jsr     _getCollisionValue
	cmp     #$05
	beq     L0003
	ldy     #$03
	lda     (sp),y
	jsr     pusha
	ldy     #$01
	lda     (sp),y
	jsr     _getCollisionValue
	cmp     #$05
	beq     L0003
	ldy     #$02
	lda     (sp),y
	jsr     pusha
	ldy     #$01
	lda     (sp),y
	jsr     _getCollisionValue
	cmp     #$05
	bne     L0002
;
; sfx_play(6, 0);           // Play door sound effect
;
L0003:	lda     #$06
	jsr     pusha
	lda     #$00
	jsr     _sfx_play
;
; currentLevel++;           // Advance to next level
;
	inc     _currentLevel
;
; loadLevel(currentLevel);  // Load the next level
;
	lda     _currentLevel
	jsr     _loadLevel
;
; }
;
L0002:	jmp     incsp4

.endproc

; ---------------------------------------------------------------
; unsigned char __near__ disablePortals (struct spriteData *spr)
; ---------------------------------------------------------------

.segment	"CODE"

.proc	_disablePortals: near

.segment	"CODE"

;
; {
;
	jsr     pushax
;
; unsigned char leftTile   = spr->X >> 3; // Get the bottom left tile of the player.
;
	ldy     #$01
	lda     (sp),y
	sta     ptr1+1
	dey
	lda     (sp),y
	sta     ptr1
	lda     (ptr1),y
	lsr     a
	lsr     a
	lsr     a
	jsr     pusha
;
; unsigned char rightTile  = (spr->X + spr->width) >> 3; // Gets the bottom right tile of the player.
;
	ldy     #$02
	lda     (sp),y
	sta     ptr1+1
	dey
	lda     (sp),y
	sta     ptr1
	dey
	lda     (ptr1),y
	sta     sreg
	ldy     #$02
	lda     (sp),y
	sta     ptr1+1
	dey
	lda     (sp),y
	sta     ptr1
	ldy     #$03
	lda     (ptr1),y
	clc
	adc     sreg
	ror     a
	lsr     a
	lsr     a
	jsr     pusha
;
; unsigned char topTile    = spr->Y >> 3; // Gets the top left tile of the player.
;
	ldy     #$03
	lda     (sp),y
	sta     ptr1+1
	dey
	lda     (sp),y
	sta     ptr1
	dey
	lda     (ptr1),y
	lsr     a
	lsr     a
	lsr     a
	jsr     pusha
;
; unsigned char bottomTile = (spr->Y + spr->height) >> 3; // Gets the top right tile of the player.
;
	ldy     #$04
	lda     (sp),y
	sta     ptr1+1
	dey
	lda     (sp),y
	sta     ptr1
	ldy     #$01
	lda     (ptr1),y
	sta     sreg
	ldy     #$04
	lda     (sp),y
	sta     ptr1+1
	dey
	lda     (sp),y
	sta     ptr1
	dey
	lda     (ptr1),y
	clc
	adc     sreg
	ror     a
	lsr     a
	lsr     a
	jsr     pusha
;
; if(getCollisionValue(leftTile, topTile) == 4 || getCollisionValue(rightTile, topTile) == 4 || getCollisionValue(leftTile, bottomTile) == 4 || getCollisionValue(rightTile, bottomTile) == 4) // Checks if any of the player is touching an emancipation grill.
;
	ldy     #$03
	lda     (sp),y
	jsr     pusha
	ldy     #$02
	lda     (sp),y
	jsr     _getCollisionValue
	cmp     #$04
	beq     L0003
	ldy     #$02
	lda     (sp),y
	jsr     pusha
	ldy     #$02
	lda     (sp),y
	jsr     _getCollisionValue
	cmp     #$04
	beq     L0003
	ldy     #$03
	lda     (sp),y
	jsr     pusha
	ldy     #$01
	lda     (sp),y
	jsr     _getCollisionValue
	cmp     #$04
	beq     L0003
	ldy     #$02
	lda     (sp),y
	jsr     pusha
	ldy     #$01
	lda     (sp),y
	jsr     _getCollisionValue
	cmp     #$04
	beq     L0003
	ldx     #$00
	txa
	jmp     incsp6
;
; return 1; // Returns a 1 if they are.
;
L0003:	ldx     #$00
	lda     #$01
;
; }
;
	jmp     incsp6

.endproc

; ---------------------------------------------------------------
; void __near__ drawEndScreen (void)
; ---------------------------------------------------------------

.segment	"CODE"

.proc	_drawEndScreen: near

.segment	"CODE"

;
; ppu_off();
;
	jsr     _ppu_off
;
; song = 0; // Set the song to 0, for the end screen song.
;
	lda     #$00
	sta     _song
;
; pal_bg(endingScreenPalette); // Set the background palette to the end screen palette.
;
	lda     #<(_endingScreenPalette)
	ldx     #>(_endingScreenPalette)
	jsr     _pal_bg
;
; vram_adr(NAMETABLE_A); // Set the VRAM address to the start of NameTableA.
;
	ldx     #$20
	lda     #$00
	jsr     _vram_adr
;
; vram_write(end, 1024); // Fill NameTableA with all 1024 bytes from the end array, which includes the attribute table.
;
	lda     #<(_end)
	ldx     #>(_end)
	jsr     pushax
	ldx     #$04
	lda     #$00
	jsr     _vram_write
;
; ppu_on_all(); 
;
	jmp     _ppu_on_all

.endproc

; ---------------------------------------------------------------
; void __near__ writeEndText (void)
; ---------------------------------------------------------------

.segment	"CODE"

.proc	_writeEndText: near

.segment	"CODE"

;
; cakeTextTimer++; // Increments the frame counter, used to flicker between text.
;
	jsr     decsp1
	inc     _cakeTextTimer
;
; if (cakeTextTimer == 119) // when the frame counter reaches 119.
;
	lda     _cakeTextTimer
	cmp     #$77
	bne     L001D
;
; ppu_off(); // Turns the screen off.
;
	jsr     _ppu_off
;
; vram_adr(NAMETABLE_A + (2 * 32) + 3); // Set the VRAM Address to the location of the CONGRATULATIONS text.
;
	ldx     #$20
	lda     #$43
	jsr     _vram_adr
;
; vram_write((const unsigned char*)"!@#$%^&*()_+=-[]", 15); // Fills the tiles with a glitchy text string.
;
	lda     #<(S0004)
	ldx     #>(S0004)
	jsr     pushax
	ldx     #$00
	lda     #$0F
	jsr     _vram_write
;
; vram_adr(NAMETABLE_A + (4 * 32) + 2); // Set the VRAM Address to the location of the TESTING COMPLETE text.
;
	ldx     #$20
	lda     #$82
	jsr     _vram_adr
;
; vram_write((const unsigned char*)")(*&^%$#@!~?><:{}]", 18); // Fills the tiles with a glitchy text string.
;
	lda     #<(S0005)
	ldx     #>(S0005)
	jsr     pushax
	ldx     #$00
	lda     #$12
	jsr     _vram_write
;
; vram_adr(NAMETABLE_A + (6 * 32) + 2); // Set the VRAM Address to the location of the ENJOY YOUR CAKE text.
;
	ldx     #$20
	lda     #$C2
	jsr     _vram_adr
;
; vram_write((const unsigned char*)"/\\/\\/\\/\\/\\/\\/\\/\\", 17); // Fills the tiles with a glitchy text string.
;
	lda     #<(S0006)
	ldx     #>(S0006)
	jsr     pushax
	ldx     #$00
	lda     #$11
	jsr     _vram_write
;
; ppu_on_all(); // Turns the screen back on.
;
	jsr     _ppu_on_all
;
; if (cakeTextTimer >= 120) // When the frame counter reaches 120 or above.
;
L001D:	lda     _cakeTextTimer
	cmp     #$78
	bcc     L001E
;
; cakeTextTimer = 0; // Reset the frame counter.
;
	lda     #$00
	sta     _cakeTextTimer
;
; cakeIsALie = !cakeIsALie; // Toggle the cakeIsALie tracker.
;
	lda     _cakeIsALie
	jsr     bnega
	sta     _cakeIsALie
;
; if (cakeIsALie != prevCakeisALie) // If the cakeIsALie tracker doesn't match the previous tracker.
;
L001E:	lda     _cakeIsALie
	cmp     _prevCakeisALie
	jeq     L001F
;
; ppu_off(); // Turn the screen off.
;
	jsr     _ppu_off
;
; vram_adr(NAMETABLE_A + (2 * 32) + 3); // Set the VRAM Address to the location of the CONGRATULATIONS text.
;
	ldx     #$20
	lda     #$43
	jsr     _vram_adr
;
; for (i = 0; i < 20; i++) 
;
	lda     #$00
	tay
L0019:	sta     (sp),y
	cmp     #$14
	bcs     L0006
;
; vram_put(0x00); // Fils the 20 tiles in that row with empty tiles.
;
	tya
	jsr     _vram_put
;
; for (i = 0; i < 20; i++) 
;
	ldy     #$00
	clc
	lda     #$01
	adc     (sp),y
	jmp     L0019
;
; vram_adr(NAMETABLE_A + (4 * 32) + 2); // Set the VRAM Address to the location of the TESTING COMPLETE text.
;
L0006:	ldx     #$20
	lda     #$82
	jsr     _vram_adr
;
; for (i = 0; i < 20; i++) 
;
	lda     #$00
	tay
L001A:	sta     (sp),y
	cmp     #$14
	bcs     L000A
;
; vram_put(0x00); // Fils the 20 tiles in that row with empty tiles.
;
	tya
	jsr     _vram_put
;
; for (i = 0; i < 20; i++) 
;
	ldy     #$00
	clc
	lda     #$01
	adc     (sp),y
	jmp     L001A
;
; vram_adr(NAMETABLE_A + (6 * 32) + 2); // Set the VRAM Address to the location of the ENJOY YOUR CAKE text.
;
L000A:	ldx     #$20
	lda     #$C2
	jsr     _vram_adr
;
; for (i = 0; i < 20; i++)
;
	lda     #$00
	tay
L001B:	sta     (sp),y
	cmp     #$14
	bcs     L000E
;
; vram_put(0x00); // Fils the 20 tiles in that row with empty tiles.
;
	tya
	jsr     _vram_put
;
; for (i = 0; i < 20; i++)
;
	ldy     #$00
	clc
	lda     #$01
	adc     (sp),y
	jmp     L001B
;
; vram_adr(NAMETABLE_A + (2 * 32) + 3); // Set the VRAM Address to the location of the CONGRATULATIONS text.
;
L000E:	ldx     #$20
	lda     #$43
	jsr     _vram_adr
;
; vram_write((const unsigned char*)"CONGRATULATIONS.", 15); // Puts the CONGRATULATIONS text back onto the screen.
;
	lda     #<(S0007)
	ldx     #>(S0007)
	jsr     pushax
	ldx     #$00
	lda     #$0F
	jsr     _vram_write
;
; vram_adr(NAMETABLE_A + (4 * 32) + 2); // Set the VRAM Address to the location of the TESTING COMPLETE text.
;
	ldx     #$20
	lda     #$82
	jsr     _vram_adr
;
; vram_write((const unsigned char*)"TESTING COMPLETE.", 18); // Puts the TESTING COMPLETE text back onto the screen.
;
	lda     #<(S0008)
	ldx     #>(S0008)
	jsr     pushax
	ldx     #$00
	lda     #$12
	jsr     _vram_write
;
; if (cakeIsALie) // If the cake is a lie.
;
	lda     _cakeIsALie
	beq     L0011
;
; vram_adr(NAMETABLE_A + (6 * 32) + 2); // Set the VRAM Address to the location of the ENJOY YOUR CAKE text.
;
	ldx     #$20
	lda     #$C2
	jsr     _vram_adr
;
; vram_write((const unsigned char*)"THE CAKE IS A LIE", 17); // Puts the THE CAKE IS A LIE text onto the screen.
;
	lda     #<(S0009)
	ldx     #>(S0009)
;
; else //  If the cake is not a lie.
;
	jmp     L0024
;
; vram_adr(NAMETABLE_A + (6 * 32) + 3); // Set the VRAM Address to the location of the ENJOY YOUR CAKE text.
;
L0011:	ldx     #$20
	lda     #$C3
	jsr     _vram_adr
;
; vram_write((const unsigned char*)"ENJOY YOUR CAKE.", 17); // Puts the ENJOY YOUR CAKE text onto the screen.
;
	lda     #<(S000A)
	ldx     #>(S000A)
L0024:	jsr     pushax
	ldx     #$00
	lda     #$11
	jsr     _vram_write
;
; ppu_on_all(); // Turns the screen back on.
;
	jsr     _ppu_on_all
;
; prevCakeisALie = cakeIsALie; // Sets the previous tracker to the new status.
;
	lda     _cakeIsALie
	sta     _prevCakeisALie
;
; if ((pad1 & PAD_START) || (pad1 & PAD_SELECT)) // If start or select has been pressed.
;
L001F:	lda     _pad1
	and     #$10
	bne     L0020
	lda     _pad1
	and     #$20
	beq     L0017
;
; gameState = 0; // Reset back to game state 0, meaning main menu.
;
L0020:	lda     #$00
	sta     _gameState
;
; pal_bg(paletteBackground); // Changes palette back to the menu palette.
;
	lda     #<(_paletteBackground)
	ldx     #>(_paletteBackground)
	jsr     _pal_bg
;
; drawMainMenu(); // Draws the main menu.
;
	jsr     _drawMainMenu
;
; song = 1; // Changes the song back to the menu song.
;
	lda     #$01
	sta     _song
;
; currentSong = 255; // Changes current song to force menu song to be played.
;
	lda     #$FF
	sta     _currentSong
;
; endScreenDrawn = 0; // Resets ending screen being drawn.
;
	lda     #$00
	sta     _endScreenDrawn
;
; while (pad_poll(0) & PAD_START); // Prevents start from auto-loading into the game, as it is the button used to move from the main menu into the actual game.
;
L0021:	lda     #$00
	jsr     _pad_poll
	and     #$10
	bne     L0021
;
; }
;
L0017:	jmp     incsp1

.endproc

; ---------------------------------------------------------------
; void __near__ handleButtonLogic (void)
; ---------------------------------------------------------------

.segment	"CODE"

.proc	_handleButtonLogic: near

.segment	"CODE"

;
; unsigned char playerPressed = 0; // Tracks if the player is pressing the button.
;
	lda     #$00
	jsr     pusha
;
; unsigned char boxPressed = 0; // Tracks if the box is pressing the button.
;
	jsr     pusha
;
; if (!buttonEnabled) // If this level doesn't have a button.
;
	ldy     #$0A
	jsr     subysp
	lda     _buttonEnabled
;
; return; // Do nothing.
;
	jeq     L001F
;
; px1 = playerSpriteData.X >> 3; // Gets the bottom left tile of the player.
;
	lda     _playerSpriteData
	lsr     a
	lsr     a
	lsr     a
	ldy     #$09
	sta     (sp),y
;
; px2 = (playerSpriteData.X + playerSpriteData.width) >> 3; // Gets the bottom right tile of the player.
;
	ldx     #$00
	lda     _playerSpriteData
	clc
	adc     _playerSpriteData+3
	bcc     L002C
	inx
L002C:	jsr     asrax3
	dey
	sta     (sp),y
;
; py1 = playerSpriteData.Y >> 3; // Gets the top left tile of the player.
;
	lda     _playerSpriteData+1
	lsr     a
	lsr     a
	lsr     a
	dey
	sta     (sp),y
;
; py2 = (playerSpriteData.Y + playerSpriteData.height) >> 3; // Gets the top right tile of the player.
;
	ldx     #$00
	lda     _playerSpriteData+1
	clc
	adc     _playerSpriteData+2
	bcc     L002D
	inx
L002D:	jsr     asrax3
	dey
	sta     (sp),y
;
; if ((px1 <= buttonTileX + 1 && px2 >= buttonTileX) && (py1 <= buttonTileY && py2 >= buttonTileY)) // If the player is overlapping the tiles the button is made from.
;
	ldy     #$09
	lda     (sp),y
	jsr     pusha0
	lda     _buttonTileX
	clc
	adc     #$01
	bcc     L0004
	ldx     #$01
L0004:	jsr     tosicmp
	beq     L0040
	bpl     L0003
L0040:	ldy     #$08
	lda     (sp),y
	cmp     _buttonTileX
	bcc     L0003
	dey
	lda     (sp),y
	cmp     _buttonTileY
	beq     L0042
	bcs     L0003
L0042:	dey
	lda     (sp),y
	cmp     _buttonTileY
	bcc     L0003
	lda     #$01
;
; playerPressed = 1; // The player is now pressing the button.
;
	ldy     #$0B
	sta     (sp),y
;
; if (boxEnabled && !boxHeld) // If the box is enabled, and not being held.
;
L0003:	lda     _boxEnabled
	beq     L0012
	lda     _boxHeld
	bne     L0012
;
; bx1 = boxSpriteData.X >> 3; // Get the bottom left tile of the box.
;
	lda     _boxSpriteData
	lsr     a
	lsr     a
	lsr     a
	ldy     #$05
	sta     (sp),y
;
; bx2 = (boxSpriteData.X + boxSpriteData.width) >> 3; // Get the bottom right tile of the box.
;
	ldx     #$00
	lda     _boxSpriteData
	clc
	adc     _boxSpriteData+3
	bcc     L002E
	inx
L002E:	jsr     asrax3
	dey
	sta     (sp),y
;
; by1 = boxSpriteData.Y >> 3; // Get the top left tile of the box.
;
	lda     _boxSpriteData+1
	lsr     a
	lsr     a
	lsr     a
	dey
	sta     (sp),y
;
; by2 = (boxSpriteData.Y + boxSpriteData.height) >> 3; // Get the top right tile of the box.
;
	ldx     #$00
	lda     _boxSpriteData+1
	clc
	adc     _boxSpriteData+2
	bcc     L002F
	inx
L002F:	jsr     asrax3
	dey
	sta     (sp),y
;
; if ((bx1 <= buttonTileX + 1 && bx2 >= buttonTileX) && (by1 <= buttonTileY && by2 >= buttonTileY)) // If the box is overlapping with the tiles the button is made from.
;
	ldy     #$05
	lda     (sp),y
	jsr     pusha0
	lda     _buttonTileX
	clc
	adc     #$01
	bcc     L0013
	ldx     #$01
L0013:	jsr     tosicmp
	beq     L0041
	bpl     L0012
L0041:	ldy     #$04
	lda     (sp),y
	cmp     _buttonTileX
	bcc     L0012
	dey
	lda     (sp),y
	cmp     _buttonTileY
	beq     L0043
	bcs     L0012
L0043:	dey
	lda     (sp),y
	cmp     _buttonTileY
	bcc     L0012
	lda     #$01
;
; boxPressed = 1; // The box is now pressing the button.
;
	ldy     #$0A
	sta     (sp),y
;
; currentState = (playerPressed || boxPressed); // Sets the current state to pressed, if the player or the box is pressing the button.
;
L0012:	ldy     #$0B
	lda     (sp),y
	bne     L0059
	dey
	lda     (sp),y
	beq     L005A
L0059:	lda     #$01
L005A:	ldy     #$01
	sta     (sp),y
;
; if (currentState != previousState) // If the state has changed since last called.
;
	cmp     M0001
	jeq     L001F
;
; ppu_off(); // Turn the screen off.
;
	jsr     _ppu_off
;
; vram_adr(NAMETABLE_A + (buttonTileY * 32 + buttonTileX)); // Set the VRAM address to the left tile of the button.
;
	ldx     #$00
	lda     _buttonTileY
	jsr     shlax4
	stx     tmp1
	asl     a
	rol     tmp1
	ldx     tmp1
	clc
	adc     _buttonTileX
	bcc     L0030
	inx
L0030:	pha
	txa
	clc
	adc     #$20
	tax
	pla
	jsr     _vram_adr
;
; if (currentState) // If the button is pressed.
;
	ldy     #$01
	lda     (sp),y
	beq     L0020
;
; vram_put(buttonTileIndexLeftPressed); // Change the left tile to the pressed variant.
;
	lda     _buttonTileIndexLeftPressed
	jsr     _vram_put
;
; vram_put(buttonTileIndexRightPressed); // Change the right tile to the pressed variant.
;
	lda     _buttonTileIndexRightPressed
;
; else // If the button is not pressed.
;
	jmp     L0038
;
; vram_put(buttonTileIndexLeft); // Change the left tile to the unpressed variant.
;
L0020:	lda     _buttonTileIndexLeft
	jsr     _vram_put
;
; vram_put(buttonTileIndexRight); // Change the right tile to the unpressed variant.
;
	lda     _buttonTileIndexRight
L0038:	jsr     _vram_put
;
; vram_adr(NAMETABLE_A + (doorTileY * 32 + doorTileX)); // Set the VRAM address to the top left tile of the door.
;
	ldx     #$00
	lda     _doorTileY
	jsr     shlax4
	stx     tmp1
	asl     a
	rol     tmp1
	ldx     tmp1
	clc
	adc     _doorTileX
	bcc     L0031
	inx
L0031:	pha
	txa
	clc
	adc     #$20
	tax
	pla
	jsr     _vram_adr
;
; if (currentState) // If the button is pressed.
;
	ldy     #$01
	lda     (sp),y
	beq     L0022
;
; vram_put(0xE8); vram_put(0xE9); // Set the top left, and the top right tile, to the open variant of the door tiles.
;
	lda     #$E8
	jsr     _vram_put
	lda     #$E9
	jsr     _vram_put
;
; vram_adr(NAMETABLE_A + ((doorTileY + 1) * 32 + doorTileX)); // Set the VRAM address to the bottom left tile of the door.
;
	ldx     #$00
	lda     _doorTileY
	clc
	adc     #$01
	bcc     L0023
	inx
L0023:	jsr     aslax4
	stx     tmp1
	asl     a
	rol     tmp1
	ldx     tmp1
	clc
	adc     _doorTileX
	bcc     L0032
	inx
L0032:	pha
	txa
	clc
	adc     #$20
	tax
	pla
	jsr     _vram_adr
;
; vram_put(0xF8); vram_put(0xF9); // Set the bottom left, and the bottom right tile, to the open variant of the door tiles.
;
	lda     #$F8
	jsr     _vram_put
	lda     #$F9
;
; else // If the button is not pressed.
;
	jmp     L0039
;
; vram_put(0xEA); vram_put(0xEB); // // Set the top left, and the top right tile, to the closed variant of the door tiles.
;
L0022:	lda     #$EA
	jsr     _vram_put
	lda     #$EB
	jsr     _vram_put
;
; vram_adr(NAMETABLE_A + ((doorTileY + 1) * 32 + doorTileX)); // Set the VRAM address to the bottom left tile of the door.
;
	ldx     #$00
	lda     _doorTileY
	clc
	adc     #$01
	bcc     L0025
	inx
L0025:	jsr     aslax4
	stx     tmp1
	asl     a
	rol     tmp1
	ldx     tmp1
	clc
	adc     _doorTileX
	bcc     L0033
	inx
L0033:	pha
	txa
	clc
	adc     #$20
	tax
	pla
	jsr     _vram_adr
;
; vram_put(0xFA); vram_put(0xFB); // Set the bottom left, and the bottom right tile, to the closed variant of the door tiles.
;
	lda     #$FA
	jsr     _vram_put
	lda     #$FB
L0039:	jsr     _vram_put
;
; tileValue = currentState ? 5 : 0; // Sets the tile value depending on if the button is pressed - 5 for button pressed, door open - 0 for button not pressed, door closed.
;
	ldy     #$01
	lda     (sp),y
	beq     L005B
	lda     #$05
L005B:	dey
	sta     (sp),y
;
; levelCollision[doorTileY * 32 + doorTileX] = tileValue; // Update the level collision array, that is stored in RAM, to the new value, for the top left tile.
;
	ldx     #$00
	lda     _doorTileY
	jsr     shlax4
	stx     tmp1
	asl     a
	rol     tmp1
	ldx     tmp1
	clc
	adc     _doorTileX
	bcc     L003A
	inx
	clc
L003A:	adc     _levelCollision
	sta     ptr1
	txa
	adc     _levelCollision+1
	sta     ptr1+1
	lda     (sp),y
	sta     (ptr1),y
;
; levelCollision[doorTileY * 32 + doorTileX + 1] = tileValue; // Update the level collision array, that is stored in RAM, to the new value, for the top right tile.
;
	ldx     #$00
	lda     _doorTileY
	jsr     shlax4
	stx     tmp1
	asl     a
	rol     tmp1
	ldx     tmp1
	clc
	adc     _doorTileX
	bcc     L003B
	inx
	clc
L003B:	adc     #$01
	bcc     L003C
	inx
	clc
L003C:	adc     _levelCollision
	sta     ptr1
	txa
	adc     _levelCollision+1
	sta     ptr1+1
	lda     (sp),y
	sta     (ptr1),y
;
; levelCollision[(doorTileY + 1) * 32 + doorTileX] = tileValue; // Update the level collision array, that is stored in RAM, to the new value, for the bottom left tile.
;
	ldx     #$00
	lda     _doorTileY
	clc
	adc     #$01
	bcc     L0029
	inx
L0029:	jsr     aslax4
	stx     tmp1
	asl     a
	rol     tmp1
	ldx     tmp1
	clc
	adc     _doorTileX
	bcc     L003D
	inx
	clc
L003D:	adc     _levelCollision
	sta     ptr1
	txa
	adc     _levelCollision+1
	sta     ptr1+1
	lda     (sp),y
	sta     (ptr1),y
;
; levelCollision[(doorTileY + 1) * 32 + doorTileX + 1] = tileValue; // Update the level collision array, that is stored in RAM, to the new value, for the bottom right tile.
;
	ldx     #$00
	lda     _doorTileY
	clc
	adc     #$01
	bcc     L002A
	inx
L002A:	jsr     aslax4
	stx     tmp1
	asl     a
	rol     tmp1
	ldx     tmp1
	clc
	adc     _doorTileX
	bcc     L003E
	inx
	clc
L003E:	adc     #$01
	bcc     L003F
	inx
	clc
L003F:	adc     _levelCollision
	sta     ptr1
	txa
	adc     _levelCollision+1
	sta     ptr1+1
	lda     (sp),y
	sta     (ptr1),y
;
; doorOpen = currentState; // Sets if the door is open.
;
	iny
	lda     (sp),y
	sta     _doorOpen
;
; previousState = currentState; // Sets previous state to the new state.
;
	lda     (sp),y
	sta     M0001
;
; ppu_on_all(); // Turns the screen back on.
;
	jsr     _ppu_on_all
;
; }
;
L001F:	ldy     #$0C
	jmp     addysp

.segment	"DATA"

M0001:
	.byte	$00

.endproc

; ---------------------------------------------------------------
; void __near__ main (void)
; ---------------------------------------------------------------

.segment	"CODE"

.proc	_main: near

.segment	"CODE"

;
; ppu_off(); // Turns the screen off.
;
	jsr     _ppu_off
;
; pal_bg(paletteBackground); // Sets the Background Palette.
;
	lda     #<(_paletteBackground)
	ldx     #>(_paletteBackground)
	jsr     _pal_bg
;
; pal_spr(paletteSprite); // Sets the Sprite Palette.
;
	lda     #<(_paletteSprite)
	ldx     #>(_paletteSprite)
	jsr     _pal_spr
;
; set_scroll_y(0xff); // Moves the background down by 1 pixel.
;
	ldx     #$00
	lda     #$FF
	jsr     _set_scroll_y
;
; gameState = 2; // 0 means main menu, 1 means in game, 2 means end screen.
;
	lda     #$02
	sta     _gameState
;
; drawMainMenu(); // Displays the main menu.
;
	jsr     _drawMainMenu
;
; bank_spr(1); // Tells the program that the sprites are located on the 2nd side of the chr file.
;
	lda     #$01
	jsr     _bank_spr
;
; ppu_on_all(); // Turns on the Screen.
;
	jsr     _ppu_on_all
;
; song = 1; // Song to play.
;
	lda     #$01
	sta     _song
;
; currentSong = 1; // Song that is playing.
;
	sta     _currentSong
;
; music_play(song); // Plays song. 
;
	lda     _song
	jsr     _music_play
;
; ppu_wait_nmi();
;
L0002:	jsr     _ppu_wait_nmi
;
; if (currentSong != song) // if the current song is not the song to play.
;
	lda     _currentSong
	cmp     _song
	beq     L0017
;
; music_play(song); // play the new song.
;
	lda     _song
	jsr     _music_play
;
; currentSong = song; // set the current song to the new song.
;
	lda     _song
	sta     _currentSong
;
; pad1 = pad_poll(0); // read the first controller
;
L0017:	lda     #$00
	jsr     _pad_poll
	sta     _pad1
;
; if(gameState == 0) // If the game is at the main menu.
;
	ldx     #$00
	lda     _gameState
	bne     L0018
;
; if(pad1 & PAD_START) // Check if the player has pressed start.
;
	lda     _pad1
	and     #$10
	beq     L0007
;
; currentLevel = 0; // Set current level to 0, meaning the first level.
;
	txa
	sta     _currentLevel
;
; loadLevel(currentLevel); // Loads the current level.
;
	jsr     _loadLevel
;
; gameState = 1; // Sets the game state to 1, meaning in game.
;
	lda     #$01
	sta     _gameState
;
; animatePressStartText(); // Animates the PRESS START! text if start isn't pressed.
;
L0007:	jsr     _animatePressStartText
;
; if (gameState == 2) // If the game is at the end screen.
;
	ldx     #$00
L0018:	lda     _gameState
	cmp     #$02
	bne     L0019
;
; if (!endScreenDrawn) // If the end screen hasn't been drawn.
;
	lda     _endScreenDrawn
	bne     L0009
;
; drawEndScreen(); // Draws the end screen.
;
	jsr     _drawEndScreen
;
; endScreenDrawn = 1; // Sets the end screen to been drawn.
;
	ldx     #$00
	lda     #$01
	sta     _endScreenDrawn
;
; writeEndText(); // Writes the end text.
;
L0009:	jsr     _writeEndText
;
; oam_clear(); // Clears sprites.
;
	jsr     _oam_clear
;
; else if(gameState == 1) // If the game state is in-game.
;
	jmp     L0002
L0019:	lda     _gameState
	cmp     #$01
	bne     L0002
;
; modeToggle(); // Call the mode toggle function to check what mode the player is in.
;
	jsr     _modeToggle
;
; aLatch = (pad1 & PAD_A) && !(pad1Old & PAD_A);
;
	lda     _pad1
	and     #$80
	beq     L001D
	lda     _pad1Old
	and     #$80
	beq     L001C
	lda     #$00
	jmp     L001D
L001C:	lda     #$01
L001D:	sta     _aLatch
;
; pad1Old = pad1;  
;
	lda     _pad1
	sta     _pad1Old
;
; if(mode == 0) // If the user is in walk mode.
;
	lda     _mode
	bne     L001E
;
; walkMode(); // Call the walk mode function.
;
	jsr     _walkMode
;
; else if(mode == 1) // If the user is in shoot mode.
;
	jmp     L0011
L001E:	lda     _mode
	cmp     #$01
	bne     L0011
;
; shootMode(); // Call the shoot mode function.
;
	jsr     _shootMode
;
; applyGravity(); // Applies gravity to the player.
;
L0011:	jsr     _applyGravity
;
; updateBullet(); // Updates bullet location and logic, if any are on the screen.
;
	jsr     _updateBullet
;
; portalPlayerCollision(); // Check if the player is colliding with any portals.
;
	jsr     _portalPlayerCollision
;
; handleButtonLogic(); // Check if the button is pressed
;
	jsr     _handleButtonLogic
;
; doorPlayerCollision(); // Check if the player is touching the door.
;
	jsr     _doorPlayerCollision
;
; if (disablePortals(&playerSpriteData)) // Check if the player is touching an emancipation grill
;
	lda     #<(_playerSpriteData)
	ldx     #>(_playerSpriteData)
	jsr     _disablePortals
	tax
	beq     L0013
;
; orangeBulletActive = 0; 
;
	lda     #$00
	sta     _orangeBulletActive
;
; blueBulletActive = 0;
;
	sta     _blueBulletActive
;
; orangePortalActive = 0;
;
	sta     _orangePortalActive
;
; bluePortalActive = 0;
;
	sta     _bluePortalActive
;
; if (boxHeld == 1) // If the player is holding a box.
;
	lda     _boxHeld
	cmp     #$01
	bne     L0013
;
; boxHeld = 0; // Put it back to the spawn location.
;
	lda     #$00
	sta     _boxHeld
;
; boxSpriteData.X = boxStartX;
;
	lda     _boxStartX
	sta     _boxSpriteData
;
; boxSpriteData.Y = boxStartY;
;
	lda     _boxStartY
	sta     _boxSpriteData+1
;
; oam_clear(); // Clear the OAM buffer/
;
L0013:	jsr     _oam_clear
;
; drawSprite(); // Draws the player sprite.
;
	jsr     _drawSprite
;
; drawBullet(); // Draws the bullet sprites.
;
	jsr     _drawBullet
;
; drawBluePortalSprite(); // Draws the blue portal sprite.
;
	jsr     _drawBluePortalSprite
;
; drawOrangePortalSprite(); // Draws the orange portal sprite.
;
	jsr     _drawOrangePortalSprite
;
; if (boxEnabled) // If the level has a box.
;
	lda     _boxEnabled
	jeq     L0002
;
; if (boxHeld) // Check if the player is holding the box.
;
	lda     _boxHeld
	beq     L0015
;
; boxSpriteData.X = playerSpriteData.X; // Update the box location to match the player.
;
	lda     _playerSpriteData
	sta     _boxSpriteData
;
; boxSpriteData.Y = playerSpriteData.Y - 16; // slightly above player
;
	lda     _playerSpriteData+1
	sec
	sbc     #$10
	sta     _boxSpriteData+1
;
; oam_meta_spr(boxSpriteData.X, boxSpriteData.Y, boxSprite); // Draw the box.
;
L0015:	jsr     decsp2
	lda     _boxSpriteData
	ldy     #$01
	sta     (sp),y
	lda     _boxSpriteData+1
	dey
	sta     (sp),y
	lda     #<(_boxSprite)
	ldx     #>(_boxSprite)
	jsr     _oam_meta_spr
;
; while(1) {
;
	jmp     L0002

.endproc

