;
; File generated by cc65 v 2.19 - Git b75f872
;
	.fopt		compiler,"cc65 v 2.19 - Git b75f872"
	.setcpu		"6502"
	.smart		on
	.autoimport	on
	.case		on
	.debuginfo	off
	.importzp	sp, sreg, regsave, regbank
	.importzp	tmp1, tmp2, tmp3, tmp4, ptr1, ptr2, ptr3, ptr4
	.macpack	longbranch
	.forceimport	__STARTUP__
	.import		_pal_bg
	.import		_pal_spr
	.import		_ppu_wait_nmi
	.import		_ppu_off
	.import		_ppu_on_all
	.import		_oam_clear
	.import		_oam_meta_spr
	.import		_pad_poll
	.import		_bank_spr
	.import		_vram_adr
	.import		_vram_write
	.import		_check_collision
	.import		_set_scroll_y
	.export		_playerSprite
	.export		_playerShootUpSprite
	.export		_playerShootDownSprite
	.export		_playerShootLeftSprite
	.export		_playerShootRightSprite
	.export		_playerShootTopRightSprite
	.export		_playerShootBottomRightSprite
	.export		_playerShootBottomLeftSprite
	.export		_playerShootTopLeftSprite
	.export		_orangePortal
	.export		_bluePortal
	.export		_orangeBulletSprite
	.export		_blueBulletSprite
	.export		_doorSprite
	.export		_playerSpriteData
	.export		_orangePortalSpriteData
	.export		_bluePortalSpriteData
	.export		_orangeBulletSpriteData
	.export		_blueBulletSpriteData
	.export		_doorSpriteData
	.export		_paletteBackground
	.export		_paletteSprite
	.export		_levelPaletteBackground
	.export		_levelOneData
	.export		_levelTwoData
	.export		_levelThreeData
	.export		_levelFourData
	.export		_levelOneCollision
	.export		_levelTwoCollision
	.export		_levelThreeCollision
	.export		_levelFourCollision
	.export		_menu
	.export		_pad1
	.export		_orangePortalCollision
	.export		_bluePortalCollision
	.export		_doorCollision
	.export		_lastPortalUsed
	.export		_mode
	.export		_aimDirectionX
	.export		_aimDirectionY
	.export		_playerVelocity
	.export		_currentLevel
	.export		_gameState
	.export		_blankTiles
	.export		_pressStartTiles
	.export		_bluePortalActive
	.export		_orangePortalActive
	.export		_orangeBulletActive
	.export		_blueBulletActive
	.export		_orangeBulletDirectionX
	.export		_orangeBulletDirectionY
	.export		_blueBulletDirectionX
	.export		_blueBulletDirectionY
	.export		_orangePortalOrientation
	.export		_bluePortalOrientation
	.export		_modeToggle
	.export		_walkMode
	.export		_shootMode
	.export		_portalPlayerCollision
	.export		_wallDetection
	.export		_playerWallCollision
	.export		_spawnOrangeBullet
	.export		_spawnBlueBullet
	.export		_updateBullet
	.export		_drawBullet
	.export		_onGround
	.export		_applyGravity
	.export		_getPlayerSprite
	.export		_drawSprite
	.export		_loadLevel
	.export		_drawMainMenu
	.export		_animatePressStartText
	.export		_drawOrangePortalSprite
	.export		_drawBluePortalSprite
	.export		_getCollisionValue
	.export		_drawDoorSprite
	.export		_doorPlayerCollision
	.export		_disablePortals
	.export		_main

.segment	"DATA"

_playerSpriteData:
	.byte	$10
	.byte	$C8
	.byte	$0F
	.byte	$0E
_orangePortalSpriteData:
	.byte	$00
	.byte	$00
	.byte	$10
	.byte	$10
_bluePortalSpriteData:
	.byte	$00
	.byte	$00
	.byte	$10
	.byte	$10
_orangeBulletSpriteData:
	.byte	$00
	.byte	$00
	.byte	$07
	.byte	$07
_blueBulletSpriteData:
	.byte	$00
	.byte	$00
	.byte	$07
	.byte	$07
_doorSpriteData:
	.byte	$00
	.byte	$00
	.byte	$10
	.byte	$10
_lastPortalUsed:
	.byte	$00
_mode:
	.byte	$00
_aimDirectionX:
	.byte	$00
_aimDirectionY:
	.byte	$00
_playerVelocity:
	.byte	$00
_blankTiles:
	.byte	$00
	.byte	$00
	.byte	$00
	.byte	$00
	.byte	$00
	.byte	$00
	.byte	$00
	.byte	$00
	.byte	$00
	.byte	$00
	.byte	$00
	.byte	$00
_pressStartTiles:
	.byte	$50
	.byte	$52
	.byte	$45
	.byte	$53
	.byte	$53
	.byte	$00
	.byte	$53
	.byte	$54
	.byte	$41
	.byte	$52
	.byte	$54
	.byte	$21
_bluePortalActive:
	.byte	$00
_orangePortalActive:
	.byte	$00
_orangeBulletActive:
	.byte	$00
_blueBulletActive:
	.byte	$00
_orangeBulletDirectionX:
	.byte	$00
_orangeBulletDirectionY:
	.byte	$00
_blueBulletDirectionX:
	.byte	$00
_blueBulletDirectionY:
	.byte	$00
_orangePortalOrientation:
	.byte	$00
_bluePortalOrientation:
	.byte	$00

.segment	"RODATA"

_playerSprite:
	.byte	$00
	.byte	$00
	.byte	$20
	.byte	$00
	.byte	$00
	.byte	$08
	.byte	$30
	.byte	$00
	.byte	$08
	.byte	$00
	.byte	$21
	.byte	$00
	.byte	$08
	.byte	$08
	.byte	$31
	.byte	$00
	.byte	$80
_playerShootUpSprite:
	.byte	$00
	.byte	$00
	.byte	$02
	.byte	$00
	.byte	$00
	.byte	$08
	.byte	$12
	.byte	$00
	.byte	$08
	.byte	$00
	.byte	$03
	.byte	$00
	.byte	$08
	.byte	$08
	.byte	$13
	.byte	$00
	.byte	$80
_playerShootDownSprite:
	.byte	$00
	.byte	$00
	.byte	$06
	.byte	$00
	.byte	$00
	.byte	$08
	.byte	$16
	.byte	$00
	.byte	$08
	.byte	$00
	.byte	$07
	.byte	$00
	.byte	$08
	.byte	$08
	.byte	$17
	.byte	$00
	.byte	$80
_playerShootLeftSprite:
	.byte	$00
	.byte	$00
	.byte	$04
	.byte	$00
	.byte	$00
	.byte	$08
	.byte	$14
	.byte	$00
	.byte	$08
	.byte	$00
	.byte	$05
	.byte	$00
	.byte	$08
	.byte	$08
	.byte	$15
	.byte	$00
	.byte	$80
_playerShootRightSprite:
	.byte	$00
	.byte	$00
	.byte	$00
	.byte	$00
	.byte	$00
	.byte	$08
	.byte	$10
	.byte	$00
	.byte	$08
	.byte	$00
	.byte	$01
	.byte	$00
	.byte	$08
	.byte	$08
	.byte	$11
	.byte	$00
	.byte	$80
_playerShootTopRightSprite:
	.byte	$00
	.byte	$00
	.byte	$08
	.byte	$00
	.byte	$00
	.byte	$08
	.byte	$18
	.byte	$00
	.byte	$08
	.byte	$00
	.byte	$09
	.byte	$00
	.byte	$08
	.byte	$08
	.byte	$19
	.byte	$00
	.byte	$80
_playerShootBottomRightSprite:
	.byte	$00
	.byte	$00
	.byte	$0E
	.byte	$00
	.byte	$00
	.byte	$08
	.byte	$1E
	.byte	$00
	.byte	$08
	.byte	$00
	.byte	$0F
	.byte	$00
	.byte	$08
	.byte	$08
	.byte	$1F
	.byte	$00
	.byte	$80
_playerShootBottomLeftSprite:
	.byte	$00
	.byte	$00
	.byte	$0C
	.byte	$00
	.byte	$00
	.byte	$08
	.byte	$1C
	.byte	$00
	.byte	$08
	.byte	$00
	.byte	$0D
	.byte	$00
	.byte	$08
	.byte	$08
	.byte	$1D
	.byte	$00
	.byte	$80
_playerShootTopLeftSprite:
	.byte	$00
	.byte	$00
	.byte	$0A
	.byte	$00
	.byte	$00
	.byte	$08
	.byte	$1A
	.byte	$00
	.byte	$08
	.byte	$00
	.byte	$0B
	.byte	$00
	.byte	$08
	.byte	$08
	.byte	$1B
	.byte	$00
	.byte	$80
_orangePortal:
	.byte	$00
	.byte	$00
	.byte	$EF
	.byte	$00
	.byte	$00
	.byte	$08
	.byte	$EF
	.byte	$80
	.byte	$08
	.byte	$00
	.byte	$EF
	.byte	$40
	.byte	$08
	.byte	$08
	.byte	$EF
	.byte	$C0
	.byte	$80
_bluePortal:
	.byte	$00
	.byte	$00
	.byte	$EF
	.byte	$02
	.byte	$00
	.byte	$08
	.byte	$EF
	.byte	$82
	.byte	$08
	.byte	$00
	.byte	$EF
	.byte	$42
	.byte	$08
	.byte	$08
	.byte	$EF
	.byte	$C2
	.byte	$80
_orangeBulletSprite:
	.byte	$00
	.byte	$00
	.byte	$FF
	.byte	$00
	.byte	$80
_blueBulletSprite:
	.byte	$00
	.byte	$00
	.byte	$FF
	.byte	$02
	.byte	$80
_doorSprite:
	.byte	$00
	.byte	$00
	.byte	$22
	.byte	$01
	.byte	$00
	.byte	$08
	.byte	$32
	.byte	$01
	.byte	$08
	.byte	$00
	.byte	$22
	.byte	$41
	.byte	$08
	.byte	$08
	.byte	$32
	.byte	$41
	.byte	$80
_paletteBackground:
	.byte	$0F
	.byte	$11
	.byte	$10
	.byte	$30
	.byte	$0F
	.byte	$0F
	.byte	$0F
	.byte	$27
	.byte	$0F
	.byte	$00
	.byte	$10
	.byte	$30
	.byte	$0F
	.byte	$0F
	.byte	$0F
	.byte	$0F
_paletteSprite:
	.byte	$2C
	.byte	$36
	.byte	$30
	.byte	$27
	.byte	$2C
	.byte	$0F
	.byte	$21
	.byte	$10
	.byte	$2C
	.byte	$27
	.byte	$10
	.byte	$11
	.byte	$00
	.byte	$00
	.byte	$00
	.byte	$00
_levelPaletteBackground:
	.byte	$21
	.byte	$00
	.byte	$10
	.byte	$16
	.byte	$21
	.byte	$00
	.byte	$10
	.byte	$2C
	.byte	$21
	.byte	$00
	.byte	$10
	.byte	$30
	.byte	$21
	.byte	$00
	.byte	$10
	.byte	$2A
_levelOneData:
	.byte	$A0
	.byte	$AB
	.byte	$AB
	.byte	$AB
	.byte	$AB
	.byte	$AB
	.byte	$AB
	.byte	$AB
	.byte	$AB
	.byte	$AB
	.byte	$AB
	.byte	$AB
	.byte	$AB
	.byte	$AB
	.byte	$AB
	.byte	$AB
	.byte	$AB
	.byte	$AB
	.byte	$AB
	.byte	$AB
	.byte	$AB
	.byte	$AB
	.byte	$AB
	.byte	$AB
	.byte	$AB
	.byte	$AB
	.byte	$AB
	.byte	$AB
	.byte	$AB
	.byte	$AB
	.byte	$AB
	.byte	$A1
	.byte	$D3
	.byte	$00
	.byte	$00
	.byte	$00
	.byte	$00
	.byte	$00
	.byte	$00
	.byte	$00
	.byte	$00
	.byte	$00
	.byte	$00
	.byte	$00
	.byte	$00
	.byte	$00
	.byte	$00
	.byte	$00
	.byte	$00
	.byte	$00
	.byte	$00
	.byte	$00
	.byte	$00
	.byte	$00
	.byte	$00
	.byte	$00
	.byte	$00
	.byte	$00
	.byte	$00
	.byte	$00
	.byte	$00
	.byte	$00
	.byte	$00
	.byte	$D3
	.byte	$D3
	.byte	$00
	.byte	$00
	.byte	$00
	.byte	$00
	.byte	$00
	.byte	$00
	.byte	$00
	.byte	$00
	.byte	$00
	.byte	$00
	.byte	$00
	.byte	$00
	.byte	$00
	.byte	$00
	.byte	$00
	.byte	$00
	.byte	$00
	.byte	$00
	.byte	$00
	.byte	$00
	.byte	$00
	.byte	$00
	.byte	$00
	.byte	$00
	.byte	$00
	.byte	$00
	.byte	$00
	.byte	$00
	.byte	$00
	.byte	$00
	.byte	$D3
	.byte	$D3
	.byte	$00
	.byte	$00
	.byte	$00
	.byte	$00
	.byte	$00
	.byte	$00
	.byte	$00
	.byte	$00
	.byte	$00
	.byte	$00
	.byte	$00
	.byte	$00
	.byte	$00
	.byte	$00
	.byte	$00
	.byte	$00
	.byte	$00
	.byte	$00
	.byte	$00
	.byte	$00
	.byte	$00
	.byte	$00
	.byte	$00
	.byte	$00
	.byte	$00
	.byte	$00
	.byte	$00
	.byte	$00
	.byte	$00
	.byte	$00
	.byte	$D3
	.byte	$D3
	.byte	$00
	.byte	$00
	.byte	$00
	.byte	$00
	.byte	$00
	.byte	$00
	.byte	$00
	.byte	$00
	.byte	$00
	.byte	$00
	.byte	$00
	.byte	$00
	.byte	$00
	.byte	$00
	.byte	$00
	.byte	$00
	.byte	$00
	.byte	$00
	.byte	$00
	.byte	$00
	.byte	$00
	.byte	$00
	.byte	$00
	.byte	$00
	.byte	$00
	.byte	$00
	.byte	$00
	.byte	$00
	.byte	$00
	.byte	$00
	.byte	$D3
	.byte	$D3
	.byte	$00
	.byte	$00
	.byte	$00
	.byte	$00
	.byte	$00
	.byte	$00
	.byte	$00
	.byte	$00
	.byte	$00
	.byte	$00
	.byte	$00
	.byte	$00
	.byte	$00
	.byte	$00
	.byte	$00
	.byte	$00
	.byte	$00
	.byte	$00
	.byte	$00
	.byte	$00
	.byte	$00
	.byte	$00
	.byte	$00
	.byte	$00
	.byte	$00
	.byte	$00
	.byte	$00
	.byte	$00
	.byte	$00
	.byte	$00
	.byte	$D3
	.byte	$D3
	.byte	$00
	.byte	$00
	.byte	$00
	.byte	$00
	.byte	$00
	.byte	$00
	.byte	$00
	.byte	$00
	.byte	$00
	.byte	$00
	.byte	$00
	.byte	$00
	.byte	$00
	.byte	$00
	.byte	$00
	.byte	$00
	.byte	$00
	.byte	$00
	.byte	$00
	.byte	$00
	.byte	$00
	.byte	$00
	.byte	$00
	.byte	$00
	.byte	$00
	.byte	$00
	.byte	$00
	.byte	$00
	.byte	$00
	.byte	$00
	.byte	$D3
	.byte	$D3
	.byte	$00
	.byte	$00
	.byte	$00
	.byte	$00
	.byte	$00
	.byte	$00
	.byte	$00
	.byte	$00
	.byte	$00
	.byte	$44
	.byte	$50
	.byte	$41
	.byte	$44
	.byte	$00
	.byte	$54
	.byte	$4F
	.byte	$00
	.byte	$4D
	.byte	$4F
	.byte	$56
	.byte	$45
	.byte	$21
	.byte	$00
	.byte	$00
	.byte	$00
	.byte	$00
	.byte	$00
	.byte	$00
	.byte	$00
	.byte	$00
	.byte	$D3
	.byte	$D3
	.byte	$00
	.byte	$00
	.byte	$00
	.byte	$00
	.byte	$00
	.byte	$00
	.byte	$00
	.byte	$00
	.byte	$00
	.byte	$00
	.byte	$00
	.byte	$00
	.byte	$00
	.byte	$00
	.byte	$00
	.byte	$00
	.byte	$00
	.byte	$00
	.byte	$00
	.byte	$00
	.byte	$00
	.byte	$00
	.byte	$00
	.byte	$00
	.byte	$00
	.byte	$00
	.byte	$00
	.byte	$00
	.byte	$00
	.byte	$00
	.byte	$D3
	.byte	$D3
	.byte	$00
	.byte	$00
	.byte	$00
	.byte	$00
	.byte	$00
	.byte	$00
	.byte	$00
	.byte	$00
	.byte	$00
	.byte	$00
	.byte	$00
	.byte	$00
	.byte	$00
	.byte	$00
	.byte	$00
	.byte	$00
	.byte	$00
	.byte	$00
	.byte	$00
	.byte	$00
	.byte	$00
	.byte	$00
	.byte	$00
	.byte	$00
	.byte	$00
	.byte	$00
	.byte	$00
	.byte	$00
	.byte	$00
	.byte	$00
	.byte	$D3
	.byte	$D3
	.byte	$00
	.byte	$00
	.byte	$00
	.byte	$00
	.byte	$00
	.byte	$00
	.byte	$00
	.byte	$00
	.byte	$00
	.byte	$00
	.byte	$00
	.byte	$00
	.byte	$00
	.byte	$00
	.byte	$00
	.byte	$00
	.byte	$00
	.byte	$00
	.byte	$00
	.byte	$00
	.byte	$00
	.byte	$00
	.byte	$00
	.byte	$00
	.byte	$00
	.byte	$00
	.byte	$00
	.byte	$00
	.byte	$00
	.byte	$00
	.byte	$D3
	.byte	$D3
	.byte	$00
	.byte	$00
	.byte	$00
	.byte	$00
	.byte	$00
	.byte	$00
	.byte	$00
	.byte	$00
	.byte	$00
	.byte	$00
	.byte	$00
	.byte	$00
	.byte	$00
	.byte	$00
	.byte	$00
	.byte	$00
	.byte	$00
	.byte	$00
	.byte	$00
	.byte	$00
	.byte	$00
	.byte	$00
	.byte	$00
	.byte	$00
	.byte	$00
	.byte	$00
	.byte	$00
	.byte	$00
	.byte	$00
	.byte	$00
	.byte	$D3
	.byte	$D3
	.byte	$00
	.byte	$00
	.byte	$00
	.byte	$00
	.byte	$00
	.byte	$00
	.byte	$00
	.byte	$00
	.byte	$00
	.byte	$00
	.byte	$00
	.byte	$00
	.byte	$00
	.byte	$00
	.byte	$00
	.byte	$00
	.byte	$00
	.byte	$00
	.byte	$00
	.byte	$00
	.byte	$00
	.byte	$00
	.byte	$00
	.byte	$00
	.byte	$00
	.byte	$00
	.byte	$00
	.byte	$00
	.byte	$00
	.byte	$00
	.byte	$D3
	.byte	$D3
	.byte	$00
	.byte	$00
	.byte	$00
	.byte	$00
	.byte	$00
	.byte	$00
	.byte	$00
	.byte	$00
	.byte	$00
	.byte	$00
	.byte	$00
	.byte	$00
	.byte	$00
	.byte	$00
	.byte	$00
	.byte	$00
	.byte	$00
	.byte	$00
	.byte	$00
	.byte	$00
	.byte	$00
	.byte	$00
	.byte	$00
	.byte	$00
	.byte	$00
	.byte	$00
	.byte	$00
	.byte	$00
	.byte	$00
	.byte	$00
	.byte	$D3
	.byte	$D3
	.byte	$00
	.byte	$00
	.byte	$00
	.byte	$00
	.byte	$00
	.byte	$00
	.byte	$00
	.byte	$00
	.byte	$00
	.byte	$00
	.byte	$00
	.byte	$00
	.byte	$00
	.byte	$00
	.byte	$00
	.byte	$00
	.byte	$00
	.byte	$00
	.byte	$00
	.byte	$00
	.byte	$00
	.byte	$00
	.byte	$00
	.byte	$00
	.byte	$00
	.byte	$00
	.byte	$00
	.byte	$00
	.byte	$00
	.byte	$00
	.byte	$D3
	.byte	$D3
	.byte	$00
	.byte	$00
	.byte	$00
	.byte	$00
	.byte	$00
	.byte	$00
	.byte	$00
	.byte	$00
	.byte	$00
	.byte	$00
	.byte	$00
	.byte	$00
	.byte	$00
	.byte	$00
	.byte	$00
	.byte	$00
	.byte	$00
	.byte	$00
	.byte	$00
	.byte	$00
	.byte	$00
	.byte	$00
	.byte	$00
	.byte	$00
	.byte	$00
	.byte	$00
	.byte	$00
	.byte	$00
	.byte	$00
	.byte	$00
	.byte	$D3
	.byte	$D3
	.byte	$00
	.byte	$00
	.byte	$00
	.byte	$00
	.byte	$00
	.byte	$00
	.byte	$00
	.byte	$00
	.byte	$00
	.byte	$00
	.byte	$00
	.byte	$00
	.byte	$00
	.byte	$00
	.byte	$00
	.byte	$00
	.byte	$00
	.byte	$00
	.byte	$00
	.byte	$00
	.byte	$00
	.byte	$00
	.byte	$00
	.byte	$00
	.byte	$00
	.byte	$00
	.byte	$00
	.byte	$00
	.byte	$00
	.byte	$00
	.byte	$D3
	.byte	$D3
	.byte	$00
	.byte	$00
	.byte	$00
	.byte	$00
	.byte	$00
	.byte	$00
	.byte	$00
	.byte	$00
	.byte	$00
	.byte	$00
	.byte	$00
	.byte	$00
	.byte	$00
	.byte	$00
	.byte	$00
	.byte	$00
	.byte	$00
	.byte	$00
	.byte	$00
	.byte	$00
	.byte	$00
	.byte	$00
	.byte	$00
	.byte	$00
	.byte	$00
	.byte	$00
	.byte	$00
	.byte	$00
	.byte	$00
	.byte	$00
	.byte	$D3
	.byte	$D3
	.byte	$00
	.byte	$00
	.byte	$00
	.byte	$00
	.byte	$00
	.byte	$00
	.byte	$00
	.byte	$00
	.byte	$00
	.byte	$00
	.byte	$00
	.byte	$00
	.byte	$00
	.byte	$00
	.byte	$00
	.byte	$00
	.byte	$00
	.byte	$00
	.byte	$00
	.byte	$00
	.byte	$00
	.byte	$00
	.byte	$00
	.byte	$00
	.byte	$00
	.byte	$00
	.byte	$00
	.byte	$00
	.byte	$00
	.byte	$00
	.byte	$D3
	.byte	$D3
	.byte	$00
	.byte	$00
	.byte	$00
	.byte	$00
	.byte	$00
	.byte	$00
	.byte	$00
	.byte	$00
	.byte	$00
	.byte	$00
	.byte	$00
	.byte	$00
	.byte	$00
	.byte	$00
	.byte	$00
	.byte	$00
	.byte	$00
	.byte	$00
	.byte	$00
	.byte	$00
	.byte	$00
	.byte	$00
	.byte	$00
	.byte	$00
	.byte	$00
	.byte	$00
	.byte	$00
	.byte	$00
	.byte	$00
	.byte	$00
	.byte	$D3
	.byte	$D3
	.byte	$00
	.byte	$00
	.byte	$00
	.byte	$00
	.byte	$00
	.byte	$00
	.byte	$00
	.byte	$00
	.byte	$00
	.byte	$00
	.byte	$00
	.byte	$00
	.byte	$00
	.byte	$00
	.byte	$00
	.byte	$00
	.byte	$00
	.byte	$00
	.byte	$00
	.byte	$00
	.byte	$00
	.byte	$00
	.byte	$00
	.byte	$00
	.byte	$00
	.byte	$00
	.byte	$00
	.byte	$00
	.byte	$00
	.byte	$00
	.byte	$D3
	.byte	$D3
	.byte	$00
	.byte	$00
	.byte	$00
	.byte	$00
	.byte	$00
	.byte	$00
	.byte	$00
	.byte	$00
	.byte	$00
	.byte	$00
	.byte	$00
	.byte	$00
	.byte	$00
	.byte	$00
	.byte	$00
	.byte	$00
	.byte	$00
	.byte	$00
	.byte	$00
	.byte	$00
	.byte	$00
	.byte	$00
	.byte	$00
	.byte	$00
	.byte	$00
	.byte	$00
	.byte	$00
	.byte	$00
	.byte	$00
	.byte	$00
	.byte	$D3
	.byte	$D3
	.byte	$00
	.byte	$00
	.byte	$00
	.byte	$00
	.byte	$00
	.byte	$00
	.byte	$00
	.byte	$00
	.byte	$00
	.byte	$00
	.byte	$00
	.byte	$00
	.byte	$00
	.byte	$00
	.byte	$00
	.byte	$00
	.byte	$00
	.byte	$00
	.byte	$00
	.byte	$00
	.byte	$00
	.byte	$00
	.byte	$00
	.byte	$00
	.byte	$00
	.byte	$00
	.byte	$00
	.byte	$00
	.byte	$00
	.byte	$00
	.byte	$D3
	.byte	$D3
	.byte	$00
	.byte	$00
	.byte	$00
	.byte	$00
	.byte	$00
	.byte	$00
	.byte	$00
	.byte	$00
	.byte	$00
	.byte	$00
	.byte	$00
	.byte	$00
	.byte	$00
	.byte	$00
	.byte	$00
	.byte	$00
	.byte	$00
	.byte	$00
	.byte	$00
	.byte	$00
	.byte	$00
	.byte	$00
	.byte	$00
	.byte	$00
	.byte	$00
	.byte	$00
	.byte	$00
	.byte	$00
	.byte	$00
	.byte	$00
	.byte	$D3
	.byte	$D3
	.byte	$00
	.byte	$00
	.byte	$00
	.byte	$00
	.byte	$00
	.byte	$00
	.byte	$00
	.byte	$00
	.byte	$00
	.byte	$00
	.byte	$00
	.byte	$00
	.byte	$00
	.byte	$00
	.byte	$00
	.byte	$00
	.byte	$00
	.byte	$00
	.byte	$00
	.byte	$00
	.byte	$00
	.byte	$00
	.byte	$00
	.byte	$00
	.byte	$00
	.byte	$00
	.byte	$00
	.byte	$00
	.byte	$00
	.byte	$00
	.byte	$D3
	.byte	$D3
	.byte	$00
	.byte	$00
	.byte	$00
	.byte	$00
	.byte	$00
	.byte	$00
	.byte	$00
	.byte	$00
	.byte	$00
	.byte	$00
	.byte	$00
	.byte	$00
	.byte	$00
	.byte	$00
	.byte	$00
	.byte	$00
	.byte	$00
	.byte	$00
	.byte	$00
	.byte	$00
	.byte	$00
	.byte	$00
	.byte	$00
	.byte	$00
	.byte	$00
	.byte	$00
	.byte	$00
	.byte	$00
	.byte	$00
	.byte	$00
	.byte	$D3
	.byte	$D3
	.byte	$00
	.byte	$00
	.byte	$00
	.byte	$00
	.byte	$00
	.byte	$00
	.byte	$00
	.byte	$00
	.byte	$00
	.byte	$00
	.byte	$00
	.byte	$00
	.byte	$00
	.byte	$00
	.byte	$00
	.byte	$00
	.byte	$00
	.byte	$00
	.byte	$00
	.byte	$00
	.byte	$00
	.byte	$00
	.byte	$00
	.byte	$00
	.byte	$00
	.byte	$00
	.byte	$00
	.byte	$00
	.byte	$00
	.byte	$00
	.byte	$D3
	.byte	$D3
	.byte	$00
	.byte	$00
	.byte	$00
	.byte	$00
	.byte	$00
	.byte	$00
	.byte	$00
	.byte	$00
	.byte	$00
	.byte	$00
	.byte	$00
	.byte	$00
	.byte	$00
	.byte	$00
	.byte	$00
	.byte	$00
	.byte	$00
	.byte	$00
	.byte	$00
	.byte	$00
	.byte	$00
	.byte	$00
	.byte	$00
	.byte	$00
	.byte	$00
	.byte	$00
	.byte	$00
	.byte	$00
	.byte	$00
	.byte	$00
	.byte	$D3
	.byte	$D3
	.byte	$00
	.byte	$00
	.byte	$00
	.byte	$00
	.byte	$00
	.byte	$00
	.byte	$00
	.byte	$00
	.byte	$00
	.byte	$00
	.byte	$00
	.byte	$00
	.byte	$00
	.byte	$00
	.byte	$00
	.byte	$00
	.byte	$00
	.byte	$00
	.byte	$00
	.byte	$00
	.byte	$00
	.byte	$00
	.byte	$00
	.byte	$00
	.byte	$00
	.byte	$00
	.byte	$00
	.byte	$00
	.byte	$00
	.byte	$00
	.byte	$D3
	.byte	$B0
	.byte	$AB
	.byte	$AB
	.byte	$AB
	.byte	$AB
	.byte	$AB
	.byte	$AB
	.byte	$AB
	.byte	$AB
	.byte	$AB
	.byte	$AB
	.byte	$AB
	.byte	$AB
	.byte	$AB
	.byte	$AB
	.byte	$AB
	.byte	$AB
	.byte	$AB
	.byte	$AB
	.byte	$AB
	.byte	$AB
	.byte	$AB
	.byte	$AB
	.byte	$AB
	.byte	$AB
	.byte	$AB
	.byte	$AB
	.byte	$AB
	.byte	$AB
	.byte	$AB
	.byte	$AB
	.byte	$B1
	.byte	$AA
	.byte	$AA
	.byte	$AA
	.byte	$AA
	.byte	$AA
	.byte	$AA
	.byte	$AA
	.byte	$AA
	.byte	$AA
	.byte	$2A
	.byte	$8A
	.byte	$AA
	.byte	$AA
	.byte	$AA
	.byte	$AA
	.byte	$AA
	.byte	$AA
	.byte	$AA
	.byte	$AA
	.byte	$AA
	.byte	$AA
	.byte	$AA
	.byte	$AA
	.byte	$AA
	.byte	$AA
	.byte	$AA
	.byte	$AA
	.byte	$AA
	.byte	$AA
	.byte	$AA
	.byte	$AA
	.byte	$AA
	.byte	$AA
	.byte	$AA
	.byte	$AA
	.byte	$AA
	.byte	$AA
	.byte	$AA
	.byte	$AA
	.byte	$AA
	.byte	$AA
	.byte	$AA
	.byte	$AA
	.byte	$AA
	.byte	$AA
	.byte	$AA
	.byte	$AA
	.byte	$AA
	.byte	$AA
	.byte	$AA
	.byte	$AA
	.byte	$AA
	.byte	$AA
	.byte	$AA
	.byte	$AA
	.byte	$AA
	.byte	$0A
	.byte	$0A
	.byte	$0A
	.byte	$0A
	.byte	$0A
	.byte	$0A
	.byte	$0A
	.byte	$0A
_levelTwoData:
	.byte	$A0
	.byte	$AB
	.byte	$AB
	.byte	$AB
	.byte	$AB
	.byte	$AB
	.byte	$AB
	.byte	$AB
	.byte	$AB
	.byte	$AB
	.byte	$AB
	.byte	$AB
	.byte	$AB
	.byte	$AB
	.byte	$AB
	.byte	$AB
	.byte	$AB
	.byte	$AB
	.byte	$AB
	.byte	$AB
	.byte	$AB
	.byte	$AB
	.byte	$AB
	.byte	$AB
	.byte	$AB
	.byte	$AB
	.byte	$AB
	.byte	$AB
	.byte	$AB
	.byte	$AB
	.byte	$AB
	.byte	$A1
	.byte	$D3
	.byte	$00
	.byte	$00
	.byte	$00
	.byte	$00
	.byte	$00
	.byte	$00
	.byte	$00
	.byte	$00
	.byte	$00
	.byte	$00
	.byte	$00
	.byte	$00
	.byte	$00
	.byte	$00
	.byte	$00
	.byte	$00
	.byte	$00
	.byte	$00
	.byte	$00
	.byte	$00
	.byte	$00
	.byte	$00
	.byte	$00
	.byte	$00
	.byte	$00
	.byte	$00
	.byte	$00
	.byte	$00
	.byte	$00
	.byte	$00
	.byte	$D3
	.byte	$D3
	.byte	$00
	.byte	$00
	.byte	$00
	.byte	$00
	.byte	$00
	.byte	$00
	.byte	$00
	.byte	$00
	.byte	$00
	.byte	$00
	.byte	$00
	.byte	$00
	.byte	$00
	.byte	$00
	.byte	$00
	.byte	$00
	.byte	$00
	.byte	$00
	.byte	$00
	.byte	$00
	.byte	$00
	.byte	$00
	.byte	$00
	.byte	$00
	.byte	$00
	.byte	$00
	.byte	$00
	.byte	$00
	.byte	$00
	.byte	$00
	.byte	$D3
	.byte	$D3
	.byte	$00
	.byte	$00
	.byte	$00
	.byte	$00
	.byte	$00
	.byte	$00
	.byte	$00
	.byte	$00
	.byte	$00
	.byte	$00
	.byte	$00
	.byte	$00
	.byte	$00
	.byte	$00
	.byte	$00
	.byte	$00
	.byte	$00
	.byte	$00
	.byte	$00
	.byte	$00
	.byte	$00
	.byte	$00
	.byte	$00
	.byte	$00
	.byte	$00
	.byte	$00
	.byte	$00
	.byte	$00
	.byte	$00
	.byte	$00
	.byte	$D3
	.byte	$D3
	.byte	$00
	.byte	$00
	.byte	$00
	.byte	$00
	.byte	$00
	.byte	$00
	.byte	$00
	.byte	$00
	.byte	$00
	.byte	$00
	.byte	$00
	.byte	$00
	.byte	$00
	.byte	$00
	.byte	$00
	.byte	$00
	.byte	$00
	.byte	$00
	.byte	$00
	.byte	$00
	.byte	$00
	.byte	$00
	.byte	$00
	.byte	$00
	.byte	$00
	.byte	$00
	.byte	$00
	.byte	$00
	.byte	$00
	.byte	$00
	.byte	$D3
	.byte	$D3
	.byte	$00
	.byte	$00
	.byte	$00
	.byte	$00
	.byte	$00
	.byte	$00
	.byte	$00
	.byte	$00
	.byte	$00
	.byte	$00
	.byte	$00
	.byte	$00
	.byte	$00
	.byte	$00
	.byte	$00
	.byte	$00
	.byte	$00
	.byte	$00
	.byte	$00
	.byte	$00
	.byte	$00
	.byte	$00
	.byte	$00
	.byte	$00
	.byte	$00
	.byte	$00
	.byte	$00
	.byte	$00
	.byte	$00
	.byte	$00
	.byte	$D3
	.byte	$D3
	.byte	$00
	.byte	$53
	.byte	$45
	.byte	$4C
	.byte	$45
	.byte	$43
	.byte	$54
	.byte	$00
	.byte	$54
	.byte	$4F
	.byte	$00
	.byte	$54
	.byte	$4F
	.byte	$47
	.byte	$47
	.byte	$4C
	.byte	$45
	.byte	$00
	.byte	$50
	.byte	$4F
	.byte	$52
	.byte	$54
	.byte	$41
	.byte	$4C
	.byte	$00
	.byte	$47
	.byte	$55
	.byte	$4E
	.byte	$21
	.byte	$00
	.byte	$D3
	.byte	$D3
	.byte	$00
	.byte	$00
	.byte	$00
	.byte	$00
	.byte	$00
	.byte	$00
	.byte	$00
	.byte	$00
	.byte	$00
	.byte	$00
	.byte	$00
	.byte	$00
	.byte	$00
	.byte	$00
	.byte	$00
	.byte	$00
	.byte	$00
	.byte	$00
	.byte	$00
	.byte	$00
	.byte	$00
	.byte	$00
	.byte	$00
	.byte	$00
	.byte	$00
	.byte	$00
	.byte	$00
	.byte	$00
	.byte	$00
	.byte	$00
	.byte	$D3
	.byte	$D3
	.byte	$00
	.byte	$00
	.byte	$41
	.byte	$00
	.byte	$46
	.byte	$4F
	.byte	$52
	.byte	$00
	.byte	$4F
	.byte	$52
	.byte	$41
	.byte	$4E
	.byte	$47
	.byte	$45
	.byte	$00
	.byte	$7C
	.byte	$7C
	.byte	$00
	.byte	$42
	.byte	$00
	.byte	$46
	.byte	$4F
	.byte	$52
	.byte	$00
	.byte	$42
	.byte	$4C
	.byte	$55
	.byte	$45
	.byte	$00
	.byte	$00
	.byte	$D3
	.byte	$D3
	.byte	$00
	.byte	$00
	.byte	$00
	.byte	$00
	.byte	$00
	.byte	$00
	.byte	$00
	.byte	$00
	.byte	$00
	.byte	$00
	.byte	$00
	.byte	$00
	.byte	$00
	.byte	$00
	.byte	$00
	.byte	$00
	.byte	$00
	.byte	$00
	.byte	$00
	.byte	$00
	.byte	$00
	.byte	$00
	.byte	$00
	.byte	$00
	.byte	$00
	.byte	$00
	.byte	$00
	.byte	$00
	.byte	$00
	.byte	$00
	.byte	$D3
	.byte	$D3
	.byte	$00
	.byte	$00
	.byte	$00
	.byte	$00
	.byte	$00
	.byte	$00
	.byte	$00
	.byte	$00
	.byte	$00
	.byte	$00
	.byte	$00
	.byte	$00
	.byte	$00
	.byte	$00
	.byte	$00
	.byte	$00
	.byte	$00
	.byte	$00
	.byte	$00
	.byte	$00
	.byte	$00
	.byte	$00
	.byte	$00
	.byte	$00
	.byte	$00
	.byte	$00
	.byte	$00
	.byte	$00
	.byte	$00
	.byte	$00
	.byte	$D3
	.byte	$D3
	.byte	$00
	.byte	$00
	.byte	$00
	.byte	$00
	.byte	$00
	.byte	$00
	.byte	$00
	.byte	$00
	.byte	$00
	.byte	$00
	.byte	$00
	.byte	$00
	.byte	$00
	.byte	$00
	.byte	$00
	.byte	$00
	.byte	$00
	.byte	$00
	.byte	$00
	.byte	$00
	.byte	$00
	.byte	$00
	.byte	$00
	.byte	$00
	.byte	$00
	.byte	$00
	.byte	$00
	.byte	$00
	.byte	$00
	.byte	$00
	.byte	$D3
	.byte	$D3
	.byte	$00
	.byte	$00
	.byte	$00
	.byte	$00
	.byte	$00
	.byte	$00
	.byte	$00
	.byte	$00
	.byte	$00
	.byte	$00
	.byte	$00
	.byte	$00
	.byte	$00
	.byte	$00
	.byte	$00
	.byte	$00
	.byte	$00
	.byte	$00
	.byte	$00
	.byte	$00
	.byte	$00
	.byte	$00
	.byte	$00
	.byte	$00
	.byte	$00
	.byte	$00
	.byte	$00
	.byte	$00
	.byte	$00
	.byte	$00
	.byte	$D3
	.byte	$D3
	.byte	$00
	.byte	$00
	.byte	$00
	.byte	$00
	.byte	$00
	.byte	$00
	.byte	$00
	.byte	$00
	.byte	$00
	.byte	$00
	.byte	$00
	.byte	$00
	.byte	$00
	.byte	$00
	.byte	$00
	.byte	$00
	.byte	$00
	.byte	$00
	.byte	$00
	.byte	$00
	.byte	$00
	.byte	$00
	.byte	$00
	.byte	$00
	.byte	$00
	.byte	$00
	.byte	$00
	.byte	$00
	.byte	$00
	.byte	$00
	.byte	$D3
	.byte	$D3
	.byte	$00
	.byte	$00
	.byte	$00
	.byte	$00
	.byte	$00
	.byte	$00
	.byte	$00
	.byte	$00
	.byte	$00
	.byte	$00
	.byte	$00
	.byte	$00
	.byte	$00
	.byte	$00
	.byte	$00
	.byte	$00
	.byte	$00
	.byte	$00
	.byte	$00
	.byte	$00
	.byte	$00
	.byte	$00
	.byte	$00
	.byte	$00
	.byte	$00
	.byte	$00
	.byte	$00
	.byte	$00
	.byte	$00
	.byte	$00
	.byte	$D3
	.byte	$D3
	.byte	$00
	.byte	$00
	.byte	$00
	.byte	$00
	.byte	$00
	.byte	$00
	.byte	$00
	.byte	$00
	.byte	$00
	.byte	$00
	.byte	$00
	.byte	$00
	.byte	$00
	.byte	$00
	.byte	$00
	.byte	$00
	.byte	$00
	.byte	$00
	.byte	$00
	.byte	$00
	.byte	$00
	.byte	$00
	.byte	$00
	.byte	$00
	.byte	$00
	.byte	$00
	.byte	$00
	.byte	$00
	.byte	$00
	.byte	$00
	.byte	$D3
	.byte	$D3
	.byte	$00
	.byte	$00
	.byte	$00
	.byte	$00
	.byte	$00
	.byte	$00
	.byte	$00
	.byte	$00
	.byte	$00
	.byte	$00
	.byte	$00
	.byte	$00
	.byte	$00
	.byte	$00
	.byte	$00
	.byte	$00
	.byte	$00
	.byte	$00
	.byte	$00
	.byte	$00
	.byte	$00
	.byte	$00
	.byte	$00
	.byte	$00
	.byte	$00
	.byte	$00
	.byte	$00
	.byte	$00
	.byte	$00
	.byte	$00
	.byte	$D3
	.byte	$D3
	.byte	$00
	.byte	$00
	.byte	$00
	.byte	$00
	.byte	$00
	.byte	$00
	.byte	$00
	.byte	$00
	.byte	$00
	.byte	$00
	.byte	$00
	.byte	$00
	.byte	$00
	.byte	$00
	.byte	$00
	.byte	$00
	.byte	$00
	.byte	$00
	.byte	$00
	.byte	$00
	.byte	$00
	.byte	$00
	.byte	$00
	.byte	$00
	.byte	$00
	.byte	$00
	.byte	$00
	.byte	$00
	.byte	$00
	.byte	$00
	.byte	$D3
	.byte	$D3
	.byte	$00
	.byte	$00
	.byte	$00
	.byte	$00
	.byte	$00
	.byte	$00
	.byte	$00
	.byte	$00
	.byte	$00
	.byte	$00
	.byte	$00
	.byte	$00
	.byte	$00
	.byte	$00
	.byte	$00
	.byte	$00
	.byte	$00
	.byte	$00
	.byte	$00
	.byte	$00
	.byte	$00
	.byte	$00
	.byte	$00
	.byte	$00
	.byte	$00
	.byte	$00
	.byte	$00
	.byte	$00
	.byte	$00
	.byte	$00
	.byte	$D3
	.byte	$D3
	.byte	$00
	.byte	$00
	.byte	$00
	.byte	$00
	.byte	$00
	.byte	$00
	.byte	$00
	.byte	$00
	.byte	$00
	.byte	$00
	.byte	$00
	.byte	$00
	.byte	$00
	.byte	$00
	.byte	$00
	.byte	$00
	.byte	$00
	.byte	$00
	.byte	$00
	.byte	$00
	.byte	$00
	.byte	$00
	.byte	$00
	.byte	$00
	.byte	$00
	.byte	$00
	.byte	$00
	.byte	$00
	.byte	$00
	.byte	$00
	.byte	$D3
	.byte	$D3
	.byte	$00
	.byte	$00
	.byte	$00
	.byte	$00
	.byte	$00
	.byte	$00
	.byte	$00
	.byte	$00
	.byte	$00
	.byte	$00
	.byte	$00
	.byte	$00
	.byte	$00
	.byte	$00
	.byte	$00
	.byte	$00
	.byte	$00
	.byte	$00
	.byte	$00
	.byte	$00
	.byte	$00
	.byte	$00
	.byte	$00
	.byte	$00
	.byte	$00
	.byte	$00
	.byte	$00
	.byte	$00
	.byte	$00
	.byte	$00
	.byte	$D3
	.byte	$D3
	.byte	$00
	.byte	$00
	.byte	$00
	.byte	$00
	.byte	$00
	.byte	$00
	.byte	$00
	.byte	$00
	.byte	$00
	.byte	$00
	.byte	$00
	.byte	$00
	.byte	$00
	.byte	$00
	.byte	$00
	.byte	$00
	.byte	$00
	.byte	$00
	.byte	$00
	.byte	$00
	.byte	$00
	.byte	$00
	.byte	$00
	.byte	$00
	.byte	$00
	.byte	$00
	.byte	$00
	.byte	$00
	.byte	$00
	.byte	$00
	.byte	$D3
	.byte	$D3
	.byte	$00
	.byte	$00
	.byte	$00
	.byte	$00
	.byte	$00
	.byte	$00
	.byte	$00
	.byte	$00
	.byte	$00
	.byte	$00
	.byte	$00
	.byte	$00
	.byte	$00
	.byte	$00
	.byte	$00
	.byte	$00
	.byte	$00
	.byte	$00
	.byte	$00
	.byte	$00
	.byte	$00
	.byte	$00
	.byte	$00
	.byte	$00
	.byte	$00
	.byte	$00
	.byte	$00
	.byte	$00
	.byte	$00
	.byte	$00
	.byte	$D3
	.byte	$B6
	.byte	$00
	.byte	$00
	.byte	$00
	.byte	$00
	.byte	$00
	.byte	$00
	.byte	$00
	.byte	$00
	.byte	$00
	.byte	$00
	.byte	$00
	.byte	$00
	.byte	$00
	.byte	$00
	.byte	$00
	.byte	$00
	.byte	$00
	.byte	$00
	.byte	$00
	.byte	$00
	.byte	$00
	.byte	$00
	.byte	$00
	.byte	$00
	.byte	$00
	.byte	$00
	.byte	$00
	.byte	$00
	.byte	$00
	.byte	$00
	.byte	$D3
	.byte	$02
	.byte	$00
	.byte	$00
	.byte	$00
	.byte	$00
	.byte	$00
	.byte	$00
	.byte	$00
	.byte	$00
	.byte	$00
	.byte	$00
	.byte	$00
	.byte	$00
	.byte	$00
	.byte	$00
	.byte	$00
	.byte	$00
	.byte	$00
	.byte	$00
	.byte	$00
	.byte	$00
	.byte	$A0
	.byte	$AB
	.byte	$AB
	.byte	$AB
	.byte	$AB
	.byte	$AB
	.byte	$AB
	.byte	$AB
	.byte	$AB
	.byte	$AB
	.byte	$B1
	.byte	$02
	.byte	$00
	.byte	$00
	.byte	$00
	.byte	$00
	.byte	$00
	.byte	$00
	.byte	$00
	.byte	$00
	.byte	$00
	.byte	$00
	.byte	$00
	.byte	$00
	.byte	$00
	.byte	$00
	.byte	$00
	.byte	$00
	.byte	$00
	.byte	$00
	.byte	$00
	.byte	$00
	.byte	$D3
	.byte	$00
	.byte	$00
	.byte	$00
	.byte	$00
	.byte	$00
	.byte	$00
	.byte	$00
	.byte	$00
	.byte	$00
	.byte	$02
	.byte	$02
	.byte	$00
	.byte	$00
	.byte	$00
	.byte	$00
	.byte	$00
	.byte	$00
	.byte	$00
	.byte	$00
	.byte	$00
	.byte	$00
	.byte	$00
	.byte	$00
	.byte	$00
	.byte	$00
	.byte	$00
	.byte	$00
	.byte	$00
	.byte	$00
	.byte	$00
	.byte	$00
	.byte	$B6
	.byte	$00
	.byte	$00
	.byte	$00
	.byte	$00
	.byte	$00
	.byte	$00
	.byte	$00
	.byte	$00
	.byte	$00
	.byte	$02
	.byte	$02
	.byte	$00
	.byte	$00
	.byte	$00
	.byte	$00
	.byte	$00
	.byte	$00
	.byte	$00
	.byte	$00
	.byte	$00
	.byte	$00
	.byte	$00
	.byte	$00
	.byte	$00
	.byte	$00
	.byte	$00
	.byte	$00
	.byte	$00
	.byte	$00
	.byte	$00
	.byte	$00
	.byte	$00
	.byte	$00
	.byte	$00
	.byte	$00
	.byte	$00
	.byte	$00
	.byte	$00
	.byte	$00
	.byte	$00
	.byte	$00
	.byte	$02
	.byte	$02
	.byte	$00
	.byte	$00
	.byte	$00
	.byte	$00
	.byte	$00
	.byte	$00
	.byte	$00
	.byte	$00
	.byte	$00
	.byte	$00
	.byte	$00
	.byte	$00
	.byte	$00
	.byte	$00
	.byte	$00
	.byte	$00
	.byte	$00
	.byte	$00
	.byte	$00
	.byte	$00
	.byte	$A6
	.byte	$00
	.byte	$00
	.byte	$00
	.byte	$00
	.byte	$00
	.byte	$00
	.byte	$00
	.byte	$00
	.byte	$00
	.byte	$02
	.byte	$B8
	.byte	$AB
	.byte	$AB
	.byte	$AB
	.byte	$AB
	.byte	$AB
	.byte	$AB
	.byte	$AB
	.byte	$AB
	.byte	$AB
	.byte	$AB
	.byte	$AB
	.byte	$AB
	.byte	$AB
	.byte	$AB
	.byte	$AB
	.byte	$AB
	.byte	$AB
	.byte	$AB
	.byte	$AB
	.byte	$AB
	.byte	$D5
	.byte	$AB
	.byte	$AB
	.byte	$AB
	.byte	$AB
	.byte	$AB
	.byte	$AB
	.byte	$AB
	.byte	$AB
	.byte	$AB
	.byte	$A8
	.byte	$2A
	.byte	$0A
	.byte	$0A
	.byte	$0A
	.byte	$0A
	.byte	$0A
	.byte	$0A
	.byte	$8A
	.byte	$A2
	.byte	$A0
	.byte	$A0
	.byte	$A0
	.byte	$A0
	.byte	$A0
	.byte	$A0
	.byte	$A8
	.byte	$AA
	.byte	$AA
	.byte	$AA
	.byte	$AA
	.byte	$AA
	.byte	$AA
	.byte	$AA
	.byte	$AA
	.byte	$AA
	.byte	$AA
	.byte	$AA
	.byte	$AA
	.byte	$AA
	.byte	$AA
	.byte	$AA
	.byte	$AA
	.byte	$AA
	.byte	$AA
	.byte	$AA
	.byte	$AA
	.byte	$AA
	.byte	$AA
	.byte	$AA
	.byte	$AA
	.byte	$AA
	.byte	$AA
	.byte	$AA
	.byte	$AA
	.byte	$AA
	.byte	$AA
	.byte	$AA
	.byte	$AA
	.byte	$AA
	.byte	$AA
	.byte	$AA
	.byte	$AA
	.byte	$AA
	.byte	$AA
	.byte	$AA
	.byte	$AA
	.byte	$0A
	.byte	$0A
	.byte	$0A
	.byte	$0A
	.byte	$0A
	.byte	$0A
	.byte	$0A
	.byte	$0A
_levelThreeData:
	.byte	$A6
	.byte	$03
	.byte	$03
	.byte	$03
	.byte	$03
	.byte	$03
	.byte	$03
	.byte	$03
	.byte	$03
	.byte	$03
	.byte	$03
	.byte	$03
	.byte	$03
	.byte	$03
	.byte	$B8
	.byte	$AB
	.byte	$AB
	.byte	$AB
	.byte	$AB
	.byte	$AB
	.byte	$AB
	.byte	$AB
	.byte	$D4
	.byte	$AB
	.byte	$AB
	.byte	$AB
	.byte	$AB
	.byte	$AB
	.byte	$AB
	.byte	$AB
	.byte	$AB
	.byte	$A1
	.byte	$D3
	.byte	$00
	.byte	$00
	.byte	$00
	.byte	$00
	.byte	$00
	.byte	$00
	.byte	$00
	.byte	$00
	.byte	$00
	.byte	$00
	.byte	$00
	.byte	$00
	.byte	$00
	.byte	$00
	.byte	$00
	.byte	$00
	.byte	$00
	.byte	$00
	.byte	$00
	.byte	$00
	.byte	$00
	.byte	$D3
	.byte	$00
	.byte	$00
	.byte	$00
	.byte	$00
	.byte	$00
	.byte	$00
	.byte	$00
	.byte	$00
	.byte	$D3
	.byte	$D3
	.byte	$00
	.byte	$00
	.byte	$00
	.byte	$00
	.byte	$00
	.byte	$00
	.byte	$00
	.byte	$00
	.byte	$00
	.byte	$00
	.byte	$00
	.byte	$00
	.byte	$00
	.byte	$00
	.byte	$00
	.byte	$00
	.byte	$00
	.byte	$00
	.byte	$00
	.byte	$00
	.byte	$00
	.byte	$D3
	.byte	$00
	.byte	$00
	.byte	$00
	.byte	$00
	.byte	$00
	.byte	$00
	.byte	$00
	.byte	$00
	.byte	$D3
	.byte	$D3
	.byte	$00
	.byte	$00
	.byte	$00
	.byte	$00
	.byte	$00
	.byte	$00
	.byte	$00
	.byte	$00
	.byte	$00
	.byte	$00
	.byte	$00
	.byte	$00
	.byte	$00
	.byte	$00
	.byte	$00
	.byte	$00
	.byte	$00
	.byte	$00
	.byte	$00
	.byte	$00
	.byte	$00
	.byte	$D3
	.byte	$00
	.byte	$00
	.byte	$00
	.byte	$00
	.byte	$00
	.byte	$00
	.byte	$00
	.byte	$00
	.byte	$D3
	.byte	$D3
	.byte	$00
	.byte	$00
	.byte	$00
	.byte	$00
	.byte	$00
	.byte	$00
	.byte	$00
	.byte	$00
	.byte	$00
	.byte	$00
	.byte	$00
	.byte	$00
	.byte	$00
	.byte	$00
	.byte	$00
	.byte	$00
	.byte	$00
	.byte	$00
	.byte	$00
	.byte	$00
	.byte	$00
	.byte	$D3
	.byte	$00
	.byte	$00
	.byte	$00
	.byte	$00
	.byte	$00
	.byte	$00
	.byte	$00
	.byte	$00
	.byte	$D3
	.byte	$D3
	.byte	$00
	.byte	$00
	.byte	$00
	.byte	$00
	.byte	$00
	.byte	$00
	.byte	$00
	.byte	$00
	.byte	$00
	.byte	$00
	.byte	$00
	.byte	$00
	.byte	$00
	.byte	$00
	.byte	$00
	.byte	$00
	.byte	$00
	.byte	$00
	.byte	$00
	.byte	$00
	.byte	$00
	.byte	$D3
	.byte	$00
	.byte	$00
	.byte	$00
	.byte	$00
	.byte	$00
	.byte	$00
	.byte	$00
	.byte	$00
	.byte	$D3
	.byte	$D3
	.byte	$00
	.byte	$00
	.byte	$00
	.byte	$00
	.byte	$00
	.byte	$00
	.byte	$00
	.byte	$00
	.byte	$00
	.byte	$00
	.byte	$00
	.byte	$00
	.byte	$00
	.byte	$00
	.byte	$00
	.byte	$00
	.byte	$00
	.byte	$00
	.byte	$00
	.byte	$00
	.byte	$00
	.byte	$D3
	.byte	$00
	.byte	$00
	.byte	$00
	.byte	$00
	.byte	$00
	.byte	$00
	.byte	$00
	.byte	$00
	.byte	$D3
	.byte	$D3
	.byte	$00
	.byte	$00
	.byte	$00
	.byte	$00
	.byte	$00
	.byte	$00
	.byte	$00
	.byte	$00
	.byte	$00
	.byte	$00
	.byte	$00
	.byte	$00
	.byte	$00
	.byte	$00
	.byte	$00
	.byte	$00
	.byte	$00
	.byte	$00
	.byte	$00
	.byte	$00
	.byte	$00
	.byte	$D3
	.byte	$00
	.byte	$00
	.byte	$00
	.byte	$00
	.byte	$00
	.byte	$00
	.byte	$00
	.byte	$00
	.byte	$D3
	.byte	$D3
	.byte	$00
	.byte	$00
	.byte	$00
	.byte	$00
	.byte	$00
	.byte	$00
	.byte	$00
	.byte	$00
	.byte	$00
	.byte	$00
	.byte	$00
	.byte	$00
	.byte	$00
	.byte	$00
	.byte	$00
	.byte	$00
	.byte	$00
	.byte	$00
	.byte	$00
	.byte	$00
	.byte	$00
	.byte	$D3
	.byte	$00
	.byte	$00
	.byte	$00
	.byte	$00
	.byte	$00
	.byte	$00
	.byte	$00
	.byte	$00
	.byte	$D3
	.byte	$D3
	.byte	$00
	.byte	$00
	.byte	$00
	.byte	$00
	.byte	$00
	.byte	$00
	.byte	$00
	.byte	$00
	.byte	$00
	.byte	$00
	.byte	$00
	.byte	$00
	.byte	$00
	.byte	$00
	.byte	$00
	.byte	$00
	.byte	$00
	.byte	$00
	.byte	$00
	.byte	$00
	.byte	$00
	.byte	$D3
	.byte	$00
	.byte	$00
	.byte	$00
	.byte	$00
	.byte	$00
	.byte	$00
	.byte	$00
	.byte	$00
	.byte	$D3
	.byte	$D3
	.byte	$00
	.byte	$00
	.byte	$00
	.byte	$00
	.byte	$00
	.byte	$00
	.byte	$00
	.byte	$00
	.byte	$00
	.byte	$00
	.byte	$00
	.byte	$00
	.byte	$00
	.byte	$00
	.byte	$00
	.byte	$00
	.byte	$00
	.byte	$00
	.byte	$00
	.byte	$00
	.byte	$00
	.byte	$D3
	.byte	$00
	.byte	$00
	.byte	$00
	.byte	$00
	.byte	$00
	.byte	$00
	.byte	$00
	.byte	$00
	.byte	$D3
	.byte	$D3
	.byte	$00
	.byte	$00
	.byte	$00
	.byte	$00
	.byte	$00
	.byte	$00
	.byte	$00
	.byte	$00
	.byte	$00
	.byte	$00
	.byte	$00
	.byte	$00
	.byte	$00
	.byte	$00
	.byte	$00
	.byte	$00
	.byte	$00
	.byte	$00
	.byte	$00
	.byte	$00
	.byte	$00
	.byte	$D3
	.byte	$00
	.byte	$00
	.byte	$00
	.byte	$00
	.byte	$00
	.byte	$00
	.byte	$00
	.byte	$00
	.byte	$D3
	.byte	$D3
	.byte	$00
	.byte	$00
	.byte	$00
	.byte	$00
	.byte	$00
	.byte	$00
	.byte	$00
	.byte	$00
	.byte	$00
	.byte	$00
	.byte	$00
	.byte	$00
	.byte	$00
	.byte	$00
	.byte	$00
	.byte	$00
	.byte	$00
	.byte	$00
	.byte	$00
	.byte	$00
	.byte	$00
	.byte	$D3
	.byte	$00
	.byte	$00
	.byte	$00
	.byte	$00
	.byte	$00
	.byte	$00
	.byte	$00
	.byte	$00
	.byte	$D3
	.byte	$B6
	.byte	$00
	.byte	$00
	.byte	$00
	.byte	$00
	.byte	$00
	.byte	$00
	.byte	$00
	.byte	$00
	.byte	$00
	.byte	$00
	.byte	$00
	.byte	$00
	.byte	$00
	.byte	$00
	.byte	$00
	.byte	$00
	.byte	$00
	.byte	$00
	.byte	$00
	.byte	$00
	.byte	$00
	.byte	$D3
	.byte	$00
	.byte	$00
	.byte	$00
	.byte	$00
	.byte	$00
	.byte	$00
	.byte	$00
	.byte	$00
	.byte	$B6
	.byte	$02
	.byte	$00
	.byte	$00
	.byte	$00
	.byte	$00
	.byte	$00
	.byte	$00
	.byte	$00
	.byte	$00
	.byte	$00
	.byte	$00
	.byte	$00
	.byte	$00
	.byte	$00
	.byte	$00
	.byte	$00
	.byte	$00
	.byte	$00
	.byte	$00
	.byte	$00
	.byte	$00
	.byte	$00
	.byte	$D3
	.byte	$00
	.byte	$00
	.byte	$00
	.byte	$00
	.byte	$00
	.byte	$00
	.byte	$00
	.byte	$00
	.byte	$02
	.byte	$02
	.byte	$00
	.byte	$00
	.byte	$00
	.byte	$00
	.byte	$00
	.byte	$00
	.byte	$00
	.byte	$00
	.byte	$00
	.byte	$00
	.byte	$00
	.byte	$00
	.byte	$00
	.byte	$00
	.byte	$00
	.byte	$00
	.byte	$00
	.byte	$00
	.byte	$00
	.byte	$00
	.byte	$00
	.byte	$D3
	.byte	$00
	.byte	$00
	.byte	$00
	.byte	$00
	.byte	$00
	.byte	$00
	.byte	$00
	.byte	$00
	.byte	$02
	.byte	$02
	.byte	$00
	.byte	$00
	.byte	$00
	.byte	$00
	.byte	$00
	.byte	$00
	.byte	$00
	.byte	$00
	.byte	$00
	.byte	$00
	.byte	$00
	.byte	$00
	.byte	$00
	.byte	$00
	.byte	$00
	.byte	$00
	.byte	$00
	.byte	$00
	.byte	$00
	.byte	$00
	.byte	$00
	.byte	$B6
	.byte	$00
	.byte	$00
	.byte	$00
	.byte	$00
	.byte	$00
	.byte	$00
	.byte	$00
	.byte	$00
	.byte	$02
	.byte	$02
	.byte	$00
	.byte	$00
	.byte	$00
	.byte	$00
	.byte	$00
	.byte	$00
	.byte	$00
	.byte	$00
	.byte	$00
	.byte	$00
	.byte	$00
	.byte	$00
	.byte	$00
	.byte	$00
	.byte	$00
	.byte	$00
	.byte	$00
	.byte	$00
	.byte	$00
	.byte	$00
	.byte	$00
	.byte	$00
	.byte	$00
	.byte	$00
	.byte	$00
	.byte	$00
	.byte	$00
	.byte	$00
	.byte	$00
	.byte	$00
	.byte	$02
	.byte	$02
	.byte	$00
	.byte	$00
	.byte	$00
	.byte	$00
	.byte	$00
	.byte	$00
	.byte	$00
	.byte	$00
	.byte	$00
	.byte	$00
	.byte	$00
	.byte	$00
	.byte	$00
	.byte	$00
	.byte	$00
	.byte	$00
	.byte	$00
	.byte	$00
	.byte	$00
	.byte	$00
	.byte	$00
	.byte	$A6
	.byte	$00
	.byte	$00
	.byte	$00
	.byte	$00
	.byte	$00
	.byte	$00
	.byte	$00
	.byte	$00
	.byte	$A6
	.byte	$04
	.byte	$03
	.byte	$03
	.byte	$03
	.byte	$03
	.byte	$A3
	.byte	$AA
	.byte	$AA
	.byte	$AA
	.byte	$AA
	.byte	$AA
	.byte	$AA
	.byte	$A4
	.byte	$00
	.byte	$00
	.byte	$00
	.byte	$00
	.byte	$00
	.byte	$00
	.byte	$00
	.byte	$00
	.byte	$00
	.byte	$D3
	.byte	$00
	.byte	$00
	.byte	$00
	.byte	$00
	.byte	$00
	.byte	$00
	.byte	$00
	.byte	$00
	.byte	$D3
	.byte	$A3
	.byte	$AA
	.byte	$AA
	.byte	$AA
	.byte	$AA
	.byte	$E6
	.byte	$D7
	.byte	$D7
	.byte	$D7
	.byte	$D7
	.byte	$D7
	.byte	$D7
	.byte	$D1
	.byte	$00
	.byte	$00
	.byte	$00
	.byte	$00
	.byte	$00
	.byte	$00
	.byte	$00
	.byte	$00
	.byte	$00
	.byte	$D3
	.byte	$00
	.byte	$00
	.byte	$00
	.byte	$00
	.byte	$00
	.byte	$00
	.byte	$00
	.byte	$00
	.byte	$D3
	.byte	$D0
	.byte	$D7
	.byte	$D7
	.byte	$D7
	.byte	$D7
	.byte	$D7
	.byte	$D7
	.byte	$D7
	.byte	$D7
	.byte	$D7
	.byte	$D7
	.byte	$D7
	.byte	$D1
	.byte	$00
	.byte	$00
	.byte	$00
	.byte	$00
	.byte	$00
	.byte	$00
	.byte	$00
	.byte	$00
	.byte	$00
	.byte	$D3
	.byte	$00
	.byte	$00
	.byte	$00
	.byte	$00
	.byte	$00
	.byte	$00
	.byte	$00
	.byte	$00
	.byte	$D3
	.byte	$D0
	.byte	$D7
	.byte	$D7
	.byte	$D7
	.byte	$D7
	.byte	$D7
	.byte	$D7
	.byte	$D7
	.byte	$D7
	.byte	$D7
	.byte	$D7
	.byte	$D7
	.byte	$D1
	.byte	$00
	.byte	$00
	.byte	$00
	.byte	$00
	.byte	$00
	.byte	$00
	.byte	$00
	.byte	$00
	.byte	$00
	.byte	$D3
	.byte	$00
	.byte	$00
	.byte	$00
	.byte	$00
	.byte	$00
	.byte	$00
	.byte	$00
	.byte	$00
	.byte	$D3
	.byte	$D0
	.byte	$D7
	.byte	$D7
	.byte	$D7
	.byte	$D7
	.byte	$D7
	.byte	$D7
	.byte	$D7
	.byte	$D7
	.byte	$D7
	.byte	$D7
	.byte	$D7
	.byte	$D1
	.byte	$00
	.byte	$00
	.byte	$00
	.byte	$00
	.byte	$00
	.byte	$00
	.byte	$00
	.byte	$00
	.byte	$00
	.byte	$D3
	.byte	$00
	.byte	$00
	.byte	$00
	.byte	$00
	.byte	$00
	.byte	$00
	.byte	$00
	.byte	$00
	.byte	$D3
	.byte	$D0
	.byte	$D7
	.byte	$D7
	.byte	$D7
	.byte	$D7
	.byte	$D7
	.byte	$D7
	.byte	$D7
	.byte	$D7
	.byte	$D7
	.byte	$D7
	.byte	$E7
	.byte	$B4
	.byte	$00
	.byte	$00
	.byte	$00
	.byte	$00
	.byte	$00
	.byte	$00
	.byte	$00
	.byte	$00
	.byte	$00
	.byte	$D3
	.byte	$00
	.byte	$00
	.byte	$00
	.byte	$00
	.byte	$00
	.byte	$00
	.byte	$00
	.byte	$00
	.byte	$D3
	.byte	$D0
	.byte	$D7
	.byte	$D7
	.byte	$D7
	.byte	$D7
	.byte	$D7
	.byte	$D7
	.byte	$D7
	.byte	$D7
	.byte	$D7
	.byte	$D7
	.byte	$D1
	.byte	$02
	.byte	$00
	.byte	$00
	.byte	$00
	.byte	$00
	.byte	$00
	.byte	$00
	.byte	$00
	.byte	$00
	.byte	$00
	.byte	$D3
	.byte	$00
	.byte	$00
	.byte	$00
	.byte	$00
	.byte	$00
	.byte	$00
	.byte	$00
	.byte	$00
	.byte	$D3
	.byte	$D0
	.byte	$D7
	.byte	$D7
	.byte	$D7
	.byte	$D7
	.byte	$D7
	.byte	$D7
	.byte	$D7
	.byte	$D7
	.byte	$D7
	.byte	$D7
	.byte	$D1
	.byte	$02
	.byte	$00
	.byte	$00
	.byte	$00
	.byte	$00
	.byte	$00
	.byte	$00
	.byte	$00
	.byte	$00
	.byte	$00
	.byte	$D3
	.byte	$00
	.byte	$00
	.byte	$00
	.byte	$00
	.byte	$00
	.byte	$00
	.byte	$00
	.byte	$00
	.byte	$D3
	.byte	$D0
	.byte	$D7
	.byte	$D7
	.byte	$D7
	.byte	$D7
	.byte	$D7
	.byte	$D7
	.byte	$D7
	.byte	$D7
	.byte	$D7
	.byte	$D7
	.byte	$D1
	.byte	$02
	.byte	$00
	.byte	$00
	.byte	$00
	.byte	$00
	.byte	$00
	.byte	$00
	.byte	$00
	.byte	$00
	.byte	$00
	.byte	$D3
	.byte	$00
	.byte	$00
	.byte	$00
	.byte	$00
	.byte	$00
	.byte	$00
	.byte	$00
	.byte	$00
	.byte	$D3
	.byte	$D0
	.byte	$D7
	.byte	$D7
	.byte	$D7
	.byte	$D7
	.byte	$D7
	.byte	$D7
	.byte	$D7
	.byte	$D7
	.byte	$D7
	.byte	$D7
	.byte	$D1
	.byte	$02
	.byte	$00
	.byte	$00
	.byte	$00
	.byte	$00
	.byte	$00
	.byte	$00
	.byte	$00
	.byte	$00
	.byte	$00
	.byte	$D3
	.byte	$00
	.byte	$00
	.byte	$00
	.byte	$00
	.byte	$00
	.byte	$00
	.byte	$00
	.byte	$00
	.byte	$D3
	.byte	$B3
	.byte	$DB
	.byte	$DB
	.byte	$DB
	.byte	$DB
	.byte	$DB
	.byte	$DB
	.byte	$DB
	.byte	$DB
	.byte	$DB
	.byte	$DB
	.byte	$D9
	.byte	$AB
	.byte	$AB
	.byte	$AB
	.byte	$AB
	.byte	$AB
	.byte	$AB
	.byte	$AB
	.byte	$AB
	.byte	$AB
	.byte	$AB
	.byte	$D5
	.byte	$AB
	.byte	$AB
	.byte	$AB
	.byte	$AB
	.byte	$AB
	.byte	$AB
	.byte	$AB
	.byte	$AB
	.byte	$B1
	.byte	$AA
	.byte	$AA
	.byte	$AA
	.byte	$AA
	.byte	$AA
	.byte	$AA
	.byte	$AA
	.byte	$AA
	.byte	$AA
	.byte	$AA
	.byte	$AA
	.byte	$AA
	.byte	$AA
	.byte	$AA
	.byte	$AA
	.byte	$AA
	.byte	$AA
	.byte	$AA
	.byte	$AA
	.byte	$AA
	.byte	$AA
	.byte	$AA
	.byte	$AA
	.byte	$AA
	.byte	$AA
	.byte	$AA
	.byte	$AA
	.byte	$AA
	.byte	$AA
	.byte	$AA
	.byte	$AA
	.byte	$AA
	.byte	$AA
	.byte	$AA
	.byte	$AA
	.byte	$AA
	.byte	$AA
	.byte	$AA
	.byte	$AA
	.byte	$AA
	.byte	$AA
	.byte	$AA
	.byte	$AA
	.byte	$AA
	.byte	$AA
	.byte	$AA
	.byte	$AA
	.byte	$AA
	.byte	$AA
	.byte	$AA
	.byte	$AA
	.byte	$AA
	.byte	$AA
	.byte	$AA
	.byte	$AA
	.byte	$AA
	.byte	$0A
	.byte	$0A
	.byte	$0A
	.byte	$0A
	.byte	$0A
	.byte	$0A
	.byte	$0A
	.byte	$0A
_levelFourData:
	.byte	$A0
	.byte	$AB
	.byte	$AB
	.byte	$03
	.byte	$03
	.byte	$03
	.byte	$03
	.byte	$03
	.byte	$AB
	.byte	$AB
	.byte	$D4
	.byte	$AB
	.byte	$AB
	.byte	$AB
	.byte	$AB
	.byte	$AB
	.byte	$AB
	.byte	$AB
	.byte	$AB
	.byte	$AB
	.byte	$AB
	.byte	$AB
	.byte	$AB
	.byte	$AB
	.byte	$AB
	.byte	$AB
	.byte	$AB
	.byte	$AB
	.byte	$AB
	.byte	$AB
	.byte	$AB
	.byte	$A1
	.byte	$D3
	.byte	$00
	.byte	$00
	.byte	$00
	.byte	$00
	.byte	$00
	.byte	$00
	.byte	$00
	.byte	$00
	.byte	$00
	.byte	$D3
	.byte	$00
	.byte	$00
	.byte	$00
	.byte	$00
	.byte	$00
	.byte	$00
	.byte	$00
	.byte	$00
	.byte	$00
	.byte	$00
	.byte	$00
	.byte	$00
	.byte	$00
	.byte	$00
	.byte	$00
	.byte	$00
	.byte	$00
	.byte	$00
	.byte	$00
	.byte	$00
	.byte	$D3
	.byte	$D3
	.byte	$00
	.byte	$00
	.byte	$00
	.byte	$00
	.byte	$00
	.byte	$00
	.byte	$00
	.byte	$00
	.byte	$00
	.byte	$D3
	.byte	$00
	.byte	$00
	.byte	$00
	.byte	$00
	.byte	$00
	.byte	$00
	.byte	$00
	.byte	$00
	.byte	$00
	.byte	$00
	.byte	$00
	.byte	$00
	.byte	$00
	.byte	$00
	.byte	$00
	.byte	$00
	.byte	$00
	.byte	$00
	.byte	$00
	.byte	$00
	.byte	$D3
	.byte	$D3
	.byte	$00
	.byte	$00
	.byte	$00
	.byte	$00
	.byte	$00
	.byte	$00
	.byte	$00
	.byte	$00
	.byte	$00
	.byte	$D3
	.byte	$00
	.byte	$00
	.byte	$00
	.byte	$00
	.byte	$00
	.byte	$00
	.byte	$00
	.byte	$00
	.byte	$00
	.byte	$00
	.byte	$00
	.byte	$00
	.byte	$00
	.byte	$00
	.byte	$00
	.byte	$00
	.byte	$00
	.byte	$00
	.byte	$00
	.byte	$00
	.byte	$D3
	.byte	$D3
	.byte	$00
	.byte	$00
	.byte	$00
	.byte	$00
	.byte	$00
	.byte	$00
	.byte	$00
	.byte	$00
	.byte	$00
	.byte	$D3
	.byte	$00
	.byte	$00
	.byte	$00
	.byte	$00
	.byte	$00
	.byte	$00
	.byte	$00
	.byte	$00
	.byte	$00
	.byte	$00
	.byte	$00
	.byte	$00
	.byte	$00
	.byte	$00
	.byte	$00
	.byte	$00
	.byte	$00
	.byte	$00
	.byte	$00
	.byte	$00
	.byte	$D3
	.byte	$D3
	.byte	$00
	.byte	$00
	.byte	$00
	.byte	$00
	.byte	$00
	.byte	$00
	.byte	$00
	.byte	$00
	.byte	$00
	.byte	$D3
	.byte	$00
	.byte	$00
	.byte	$52
	.byte	$45
	.byte	$44
	.byte	$00
	.byte	$42
	.byte	$4C
	.byte	$4F
	.byte	$43
	.byte	$4B
	.byte	$53
	.byte	$00
	.byte	$59
	.byte	$4F
	.byte	$55
	.byte	$2E
	.byte	$2E
	.byte	$2E
	.byte	$00
	.byte	$D3
	.byte	$D3
	.byte	$00
	.byte	$00
	.byte	$00
	.byte	$00
	.byte	$00
	.byte	$00
	.byte	$00
	.byte	$00
	.byte	$00
	.byte	$D3
	.byte	$00
	.byte	$00
	.byte	$00
	.byte	$00
	.byte	$00
	.byte	$00
	.byte	$00
	.byte	$00
	.byte	$00
	.byte	$00
	.byte	$00
	.byte	$00
	.byte	$00
	.byte	$00
	.byte	$00
	.byte	$00
	.byte	$00
	.byte	$00
	.byte	$00
	.byte	$00
	.byte	$D3
	.byte	$D3
	.byte	$00
	.byte	$00
	.byte	$00
	.byte	$00
	.byte	$00
	.byte	$00
	.byte	$00
	.byte	$00
	.byte	$00
	.byte	$B6
	.byte	$00
	.byte	$00
	.byte	$00
	.byte	$00
	.byte	$00
	.byte	$00
	.byte	$00
	.byte	$00
	.byte	$00
	.byte	$00
	.byte	$00
	.byte	$00
	.byte	$00
	.byte	$00
	.byte	$00
	.byte	$00
	.byte	$00
	.byte	$00
	.byte	$00
	.byte	$00
	.byte	$D3
	.byte	$D3
	.byte	$00
	.byte	$00
	.byte	$00
	.byte	$00
	.byte	$00
	.byte	$00
	.byte	$00
	.byte	$00
	.byte	$00
	.byte	$80
	.byte	$00
	.byte	$00
	.byte	$00
	.byte	$00
	.byte	$00
	.byte	$00
	.byte	$00
	.byte	$00
	.byte	$00
	.byte	$00
	.byte	$00
	.byte	$00
	.byte	$00
	.byte	$00
	.byte	$00
	.byte	$00
	.byte	$00
	.byte	$00
	.byte	$00
	.byte	$00
	.byte	$02
	.byte	$D3
	.byte	$00
	.byte	$00
	.byte	$00
	.byte	$00
	.byte	$00
	.byte	$00
	.byte	$00
	.byte	$00
	.byte	$00
	.byte	$80
	.byte	$00
	.byte	$00
	.byte	$00
	.byte	$00
	.byte	$00
	.byte	$00
	.byte	$00
	.byte	$00
	.byte	$00
	.byte	$00
	.byte	$00
	.byte	$00
	.byte	$00
	.byte	$00
	.byte	$00
	.byte	$00
	.byte	$00
	.byte	$00
	.byte	$00
	.byte	$00
	.byte	$02
	.byte	$D3
	.byte	$00
	.byte	$00
	.byte	$00
	.byte	$00
	.byte	$00
	.byte	$00
	.byte	$00
	.byte	$00
	.byte	$00
	.byte	$80
	.byte	$00
	.byte	$00
	.byte	$00
	.byte	$00
	.byte	$00
	.byte	$00
	.byte	$00
	.byte	$00
	.byte	$00
	.byte	$00
	.byte	$00
	.byte	$00
	.byte	$00
	.byte	$00
	.byte	$00
	.byte	$00
	.byte	$00
	.byte	$00
	.byte	$00
	.byte	$00
	.byte	$02
	.byte	$D3
	.byte	$00
	.byte	$00
	.byte	$00
	.byte	$00
	.byte	$00
	.byte	$00
	.byte	$00
	.byte	$00
	.byte	$00
	.byte	$80
	.byte	$00
	.byte	$00
	.byte	$00
	.byte	$00
	.byte	$00
	.byte	$00
	.byte	$00
	.byte	$00
	.byte	$00
	.byte	$00
	.byte	$00
	.byte	$00
	.byte	$00
	.byte	$00
	.byte	$00
	.byte	$00
	.byte	$00
	.byte	$00
	.byte	$00
	.byte	$00
	.byte	$02
	.byte	$D3
	.byte	$00
	.byte	$00
	.byte	$00
	.byte	$00
	.byte	$00
	.byte	$00
	.byte	$00
	.byte	$00
	.byte	$00
	.byte	$A6
	.byte	$00
	.byte	$00
	.byte	$00
	.byte	$00
	.byte	$00
	.byte	$00
	.byte	$00
	.byte	$00
	.byte	$00
	.byte	$00
	.byte	$00
	.byte	$00
	.byte	$00
	.byte	$00
	.byte	$00
	.byte	$00
	.byte	$00
	.byte	$00
	.byte	$00
	.byte	$00
	.byte	$D3
	.byte	$D3
	.byte	$00
	.byte	$00
	.byte	$00
	.byte	$00
	.byte	$00
	.byte	$00
	.byte	$00
	.byte	$00
	.byte	$00
	.byte	$D3
	.byte	$00
	.byte	$00
	.byte	$00
	.byte	$00
	.byte	$00
	.byte	$00
	.byte	$00
	.byte	$00
	.byte	$00
	.byte	$00
	.byte	$00
	.byte	$00
	.byte	$00
	.byte	$00
	.byte	$00
	.byte	$00
	.byte	$00
	.byte	$00
	.byte	$00
	.byte	$00
	.byte	$D3
	.byte	$D3
	.byte	$00
	.byte	$00
	.byte	$00
	.byte	$00
	.byte	$00
	.byte	$00
	.byte	$00
	.byte	$00
	.byte	$00
	.byte	$D3
	.byte	$00
	.byte	$00
	.byte	$00
	.byte	$00
	.byte	$00
	.byte	$00
	.byte	$00
	.byte	$00
	.byte	$00
	.byte	$00
	.byte	$00
	.byte	$00
	.byte	$00
	.byte	$00
	.byte	$00
	.byte	$00
	.byte	$00
	.byte	$00
	.byte	$00
	.byte	$00
	.byte	$D3
	.byte	$D3
	.byte	$00
	.byte	$00
	.byte	$00
	.byte	$00
	.byte	$00
	.byte	$00
	.byte	$00
	.byte	$00
	.byte	$00
	.byte	$D3
	.byte	$00
	.byte	$00
	.byte	$00
	.byte	$00
	.byte	$00
	.byte	$00
	.byte	$00
	.byte	$00
	.byte	$00
	.byte	$00
	.byte	$00
	.byte	$00
	.byte	$00
	.byte	$00
	.byte	$00
	.byte	$00
	.byte	$00
	.byte	$00
	.byte	$00
	.byte	$00
	.byte	$D3
	.byte	$D3
	.byte	$00
	.byte	$00
	.byte	$00
	.byte	$00
	.byte	$00
	.byte	$00
	.byte	$00
	.byte	$00
	.byte	$00
	.byte	$D3
	.byte	$00
	.byte	$00
	.byte	$00
	.byte	$00
	.byte	$00
	.byte	$00
	.byte	$00
	.byte	$00
	.byte	$00
	.byte	$00
	.byte	$00
	.byte	$00
	.byte	$00
	.byte	$00
	.byte	$00
	.byte	$00
	.byte	$00
	.byte	$00
	.byte	$00
	.byte	$00
	.byte	$D3
	.byte	$D3
	.byte	$00
	.byte	$00
	.byte	$00
	.byte	$00
	.byte	$00
	.byte	$00
	.byte	$00
	.byte	$00
	.byte	$00
	.byte	$D3
	.byte	$00
	.byte	$00
	.byte	$00
	.byte	$00
	.byte	$00
	.byte	$00
	.byte	$00
	.byte	$00
	.byte	$00
	.byte	$00
	.byte	$00
	.byte	$00
	.byte	$00
	.byte	$00
	.byte	$00
	.byte	$00
	.byte	$00
	.byte	$00
	.byte	$00
	.byte	$00
	.byte	$D3
	.byte	$D3
	.byte	$00
	.byte	$00
	.byte	$00
	.byte	$00
	.byte	$00
	.byte	$00
	.byte	$00
	.byte	$00
	.byte	$00
	.byte	$D3
	.byte	$00
	.byte	$00
	.byte	$00
	.byte	$00
	.byte	$00
	.byte	$00
	.byte	$00
	.byte	$00
	.byte	$00
	.byte	$00
	.byte	$00
	.byte	$00
	.byte	$00
	.byte	$00
	.byte	$00
	.byte	$00
	.byte	$00
	.byte	$00
	.byte	$00
	.byte	$00
	.byte	$D3
	.byte	$D3
	.byte	$00
	.byte	$00
	.byte	$00
	.byte	$00
	.byte	$00
	.byte	$00
	.byte	$00
	.byte	$00
	.byte	$00
	.byte	$D3
	.byte	$00
	.byte	$00
	.byte	$00
	.byte	$00
	.byte	$00
	.byte	$00
	.byte	$00
	.byte	$00
	.byte	$00
	.byte	$00
	.byte	$00
	.byte	$00
	.byte	$00
	.byte	$00
	.byte	$00
	.byte	$00
	.byte	$00
	.byte	$00
	.byte	$00
	.byte	$00
	.byte	$D3
	.byte	$D3
	.byte	$00
	.byte	$00
	.byte	$00
	.byte	$00
	.byte	$00
	.byte	$00
	.byte	$00
	.byte	$00
	.byte	$00
	.byte	$D3
	.byte	$00
	.byte	$00
	.byte	$00
	.byte	$00
	.byte	$00
	.byte	$00
	.byte	$00
	.byte	$00
	.byte	$00
	.byte	$00
	.byte	$00
	.byte	$00
	.byte	$00
	.byte	$00
	.byte	$00
	.byte	$00
	.byte	$00
	.byte	$00
	.byte	$00
	.byte	$00
	.byte	$D3
	.byte	$D3
	.byte	$00
	.byte	$00
	.byte	$00
	.byte	$00
	.byte	$00
	.byte	$00
	.byte	$00
	.byte	$00
	.byte	$00
	.byte	$D3
	.byte	$00
	.byte	$00
	.byte	$00
	.byte	$00
	.byte	$00
	.byte	$00
	.byte	$00
	.byte	$00
	.byte	$00
	.byte	$00
	.byte	$00
	.byte	$00
	.byte	$00
	.byte	$00
	.byte	$00
	.byte	$00
	.byte	$00
	.byte	$00
	.byte	$00
	.byte	$00
	.byte	$D3
	.byte	$D3
	.byte	$00
	.byte	$00
	.byte	$00
	.byte	$00
	.byte	$00
	.byte	$00
	.byte	$00
	.byte	$00
	.byte	$00
	.byte	$D3
	.byte	$00
	.byte	$00
	.byte	$00
	.byte	$00
	.byte	$00
	.byte	$00
	.byte	$00
	.byte	$00
	.byte	$00
	.byte	$00
	.byte	$00
	.byte	$00
	.byte	$00
	.byte	$00
	.byte	$00
	.byte	$00
	.byte	$00
	.byte	$00
	.byte	$00
	.byte	$00
	.byte	$D3
	.byte	$D3
	.byte	$00
	.byte	$00
	.byte	$00
	.byte	$00
	.byte	$00
	.byte	$00
	.byte	$00
	.byte	$00
	.byte	$00
	.byte	$D3
	.byte	$00
	.byte	$00
	.byte	$00
	.byte	$00
	.byte	$00
	.byte	$00
	.byte	$00
	.byte	$00
	.byte	$00
	.byte	$00
	.byte	$00
	.byte	$00
	.byte	$00
	.byte	$00
	.byte	$00
	.byte	$00
	.byte	$00
	.byte	$00
	.byte	$00
	.byte	$00
	.byte	$D3
	.byte	$C6
	.byte	$AB
	.byte	$AB
	.byte	$A8
	.byte	$00
	.byte	$00
	.byte	$00
	.byte	$B8
	.byte	$AB
	.byte	$AB
	.byte	$D6
	.byte	$00
	.byte	$00
	.byte	$00
	.byte	$00
	.byte	$00
	.byte	$00
	.byte	$00
	.byte	$00
	.byte	$00
	.byte	$00
	.byte	$00
	.byte	$00
	.byte	$00
	.byte	$00
	.byte	$00
	.byte	$00
	.byte	$00
	.byte	$00
	.byte	$00
	.byte	$00
	.byte	$D3
	.byte	$D3
	.byte	$00
	.byte	$00
	.byte	$00
	.byte	$00
	.byte	$00
	.byte	$00
	.byte	$00
	.byte	$00
	.byte	$00
	.byte	$D3
	.byte	$00
	.byte	$00
	.byte	$00
	.byte	$00
	.byte	$00
	.byte	$00
	.byte	$00
	.byte	$00
	.byte	$00
	.byte	$00
	.byte	$00
	.byte	$00
	.byte	$00
	.byte	$00
	.byte	$00
	.byte	$00
	.byte	$00
	.byte	$00
	.byte	$00
	.byte	$00
	.byte	$D3
	.byte	$D3
	.byte	$00
	.byte	$00
	.byte	$00
	.byte	$00
	.byte	$00
	.byte	$00
	.byte	$00
	.byte	$00
	.byte	$00
	.byte	$D3
	.byte	$00
	.byte	$00
	.byte	$00
	.byte	$00
	.byte	$00
	.byte	$00
	.byte	$00
	.byte	$00
	.byte	$00
	.byte	$00
	.byte	$00
	.byte	$00
	.byte	$00
	.byte	$00
	.byte	$00
	.byte	$00
	.byte	$00
	.byte	$00
	.byte	$00
	.byte	$00
	.byte	$D3
	.byte	$D3
	.byte	$00
	.byte	$00
	.byte	$00
	.byte	$00
	.byte	$00
	.byte	$00
	.byte	$00
	.byte	$00
	.byte	$00
	.byte	$D3
	.byte	$00
	.byte	$00
	.byte	$00
	.byte	$00
	.byte	$00
	.byte	$00
	.byte	$00
	.byte	$00
	.byte	$00
	.byte	$00
	.byte	$00
	.byte	$00
	.byte	$00
	.byte	$00
	.byte	$00
	.byte	$00
	.byte	$00
	.byte	$00
	.byte	$00
	.byte	$00
	.byte	$D3
	.byte	$D3
	.byte	$00
	.byte	$00
	.byte	$00
	.byte	$00
	.byte	$00
	.byte	$00
	.byte	$00
	.byte	$00
	.byte	$00
	.byte	$D3
	.byte	$00
	.byte	$00
	.byte	$00
	.byte	$00
	.byte	$00
	.byte	$00
	.byte	$00
	.byte	$00
	.byte	$00
	.byte	$00
	.byte	$00
	.byte	$00
	.byte	$00
	.byte	$00
	.byte	$00
	.byte	$00
	.byte	$00
	.byte	$00
	.byte	$00
	.byte	$00
	.byte	$D3
	.byte	$B0
	.byte	$AB
	.byte	$AB
	.byte	$AB
	.byte	$03
	.byte	$03
	.byte	$03
	.byte	$AB
	.byte	$AB
	.byte	$AB
	.byte	$D5
	.byte	$AB
	.byte	$AB
	.byte	$AB
	.byte	$AB
	.byte	$AB
	.byte	$AB
	.byte	$AB
	.byte	$AB
	.byte	$AB
	.byte	$AB
	.byte	$AB
	.byte	$AB
	.byte	$AB
	.byte	$AB
	.byte	$AB
	.byte	$AB
	.byte	$AB
	.byte	$AB
	.byte	$AB
	.byte	$AB
	.byte	$B1
	.byte	$2A
	.byte	$0A
	.byte	$8A
	.byte	$0A
	.byte	$0A
	.byte	$0A
	.byte	$0A
	.byte	$8A
	.byte	$22
	.byte	$00
	.byte	$88
	.byte	$0A
	.byte	$0A
	.byte	$0A
	.byte	$0A
	.byte	$8A
	.byte	$22
	.byte	$00
	.byte	$00
	.byte	$A0
	.byte	$A0
	.byte	$A0
	.byte	$A0
	.byte	$A8
	.byte	$22
	.byte	$00
	.byte	$88
	.byte	$00
	.byte	$00
	.byte	$00
	.byte	$00
	.byte	$88
	.byte	$22
	.byte	$00
	.byte	$88
	.byte	$00
	.byte	$00
	.byte	$00
	.byte	$00
	.byte	$88
	.byte	$22
	.byte	$00
	.byte	$88
	.byte	$00
	.byte	$00
	.byte	$00
	.byte	$00
	.byte	$88
	.byte	$2A
	.byte	$0A
	.byte	$8A
	.byte	$00
	.byte	$00
	.byte	$00
	.byte	$00
	.byte	$88
	.byte	$0A
	.byte	$0A
	.byte	$0A
	.byte	$0A
	.byte	$0A
	.byte	$0A
	.byte	$0A
	.byte	$0A
_levelOneCollision:
	.byte	$01
	.byte	$01
	.byte	$01
	.byte	$01
	.byte	$01
	.byte	$01
	.byte	$01
	.byte	$01
	.byte	$01
	.byte	$01
	.byte	$01
	.byte	$01
	.byte	$01
	.byte	$01
	.byte	$01
	.byte	$01
	.byte	$01
	.byte	$01
	.byte	$01
	.byte	$01
	.byte	$01
	.byte	$01
	.byte	$01
	.byte	$01
	.byte	$01
	.byte	$01
	.byte	$01
	.byte	$01
	.byte	$01
	.byte	$01
	.byte	$01
	.byte	$01
	.byte	$01
	.byte	$00
	.byte	$00
	.byte	$00
	.byte	$00
	.byte	$00
	.byte	$00
	.byte	$00
	.byte	$00
	.byte	$00
	.byte	$00
	.byte	$00
	.byte	$00
	.byte	$00
	.byte	$00
	.byte	$00
	.byte	$00
	.byte	$00
	.byte	$00
	.byte	$00
	.byte	$00
	.byte	$00
	.byte	$00
	.byte	$00
	.byte	$00
	.byte	$00
	.byte	$00
	.byte	$00
	.byte	$00
	.byte	$00
	.byte	$00
	.byte	$01
	.byte	$01
	.byte	$00
	.byte	$00
	.byte	$00
	.byte	$00
	.byte	$00
	.byte	$00
	.byte	$00
	.byte	$00
	.byte	$00
	.byte	$00
	.byte	$00
	.byte	$00
	.byte	$00
	.byte	$00
	.byte	$00
	.byte	$00
	.byte	$00
	.byte	$00
	.byte	$00
	.byte	$00
	.byte	$00
	.byte	$00
	.byte	$00
	.byte	$00
	.byte	$00
	.byte	$00
	.byte	$00
	.byte	$00
	.byte	$00
	.byte	$00
	.byte	$01
	.byte	$01
	.byte	$00
	.byte	$00
	.byte	$00
	.byte	$00
	.byte	$00
	.byte	$00
	.byte	$00
	.byte	$00
	.byte	$00
	.byte	$00
	.byte	$00
	.byte	$00
	.byte	$00
	.byte	$00
	.byte	$00
	.byte	$00
	.byte	$00
	.byte	$00
	.byte	$00
	.byte	$00
	.byte	$00
	.byte	$00
	.byte	$00
	.byte	$00
	.byte	$00
	.byte	$00
	.byte	$00
	.byte	$00
	.byte	$00
	.byte	$00
	.byte	$01
	.byte	$01
	.byte	$00
	.byte	$00
	.byte	$00
	.byte	$00
	.byte	$00
	.byte	$00
	.byte	$00
	.byte	$00
	.byte	$00
	.byte	$00
	.byte	$00
	.byte	$00
	.byte	$00
	.byte	$00
	.byte	$00
	.byte	$00
	.byte	$00
	.byte	$00
	.byte	$00
	.byte	$00
	.byte	$00
	.byte	$00
	.byte	$00
	.byte	$00
	.byte	$00
	.byte	$00
	.byte	$00
	.byte	$00
	.byte	$00
	.byte	$00
	.byte	$01
	.byte	$01
	.byte	$00
	.byte	$00
	.byte	$00
	.byte	$00
	.byte	$00
	.byte	$00
	.byte	$00
	.byte	$00
	.byte	$00
	.byte	$00
	.byte	$00
	.byte	$00
	.byte	$00
	.byte	$00
	.byte	$00
	.byte	$00
	.byte	$00
	.byte	$00
	.byte	$00
	.byte	$00
	.byte	$00
	.byte	$00
	.byte	$00
	.byte	$00
	.byte	$00
	.byte	$00
	.byte	$00
	.byte	$00
	.byte	$00
	.byte	$00
	.byte	$01
	.byte	$01
	.byte	$00
	.byte	$00
	.byte	$00
	.byte	$00
	.byte	$00
	.byte	$00
	.byte	$00
	.byte	$00
	.byte	$00
	.byte	$00
	.byte	$00
	.byte	$00
	.byte	$00
	.byte	$00
	.byte	$00
	.byte	$00
	.byte	$00
	.byte	$00
	.byte	$00
	.byte	$00
	.byte	$00
	.byte	$00
	.byte	$00
	.byte	$00
	.byte	$00
	.byte	$00
	.byte	$00
	.byte	$00
	.byte	$00
	.byte	$00
	.byte	$01
	.byte	$01
	.byte	$00
	.byte	$00
	.byte	$00
	.byte	$00
	.byte	$00
	.byte	$00
	.byte	$00
	.byte	$00
	.byte	$00
	.byte	$00
	.byte	$00
	.byte	$00
	.byte	$00
	.byte	$00
	.byte	$00
	.byte	$00
	.byte	$00
	.byte	$00
	.byte	$00
	.byte	$00
	.byte	$00
	.byte	$00
	.byte	$00
	.byte	$00
	.byte	$00
	.byte	$00
	.byte	$00
	.byte	$00
	.byte	$00
	.byte	$00
	.byte	$01
	.byte	$01
	.byte	$00
	.byte	$00
	.byte	$00
	.byte	$00
	.byte	$00
	.byte	$00
	.byte	$00
	.byte	$00
	.byte	$00
	.byte	$00
	.byte	$00
	.byte	$00
	.byte	$00
	.byte	$00
	.byte	$00
	.byte	$00
	.byte	$00
	.byte	$00
	.byte	$00
	.byte	$00
	.byte	$00
	.byte	$00
	.byte	$00
	.byte	$00
	.byte	$00
	.byte	$00
	.byte	$00
	.byte	$00
	.byte	$00
	.byte	$00
	.byte	$01
	.byte	$01
	.byte	$00
	.byte	$00
	.byte	$00
	.byte	$00
	.byte	$00
	.byte	$00
	.byte	$00
	.byte	$00
	.byte	$00
	.byte	$00
	.byte	$00
	.byte	$00
	.byte	$00
	.byte	$00
	.byte	$00
	.byte	$00
	.byte	$00
	.byte	$00
	.byte	$00
	.byte	$00
	.byte	$00
	.byte	$00
	.byte	$00
	.byte	$00
	.byte	$00
	.byte	$00
	.byte	$00
	.byte	$00
	.byte	$00
	.byte	$00
	.byte	$01
	.byte	$01
	.byte	$00
	.byte	$00
	.byte	$00
	.byte	$00
	.byte	$00
	.byte	$00
	.byte	$00
	.byte	$00
	.byte	$00
	.byte	$00
	.byte	$00
	.byte	$00
	.byte	$00
	.byte	$00
	.byte	$00
	.byte	$00
	.byte	$00
	.byte	$00
	.byte	$00
	.byte	$00
	.byte	$00
	.byte	$00
	.byte	$00
	.byte	$00
	.byte	$00
	.byte	$00
	.byte	$00
	.byte	$00
	.byte	$00
	.byte	$00
	.byte	$01
	.byte	$01
	.byte	$00
	.byte	$00
	.byte	$00
	.byte	$00
	.byte	$00
	.byte	$00
	.byte	$00
	.byte	$00
	.byte	$00
	.byte	$00
	.byte	$00
	.byte	$00
	.byte	$00
	.byte	$00
	.byte	$00
	.byte	$00
	.byte	$00
	.byte	$00
	.byte	$00
	.byte	$00
	.byte	$00
	.byte	$00
	.byte	$00
	.byte	$00
	.byte	$00
	.byte	$00
	.byte	$00
	.byte	$00
	.byte	$00
	.byte	$00
	.byte	$01
	.byte	$01
	.byte	$00
	.byte	$00
	.byte	$00
	.byte	$00
	.byte	$00
	.byte	$00
	.byte	$00
	.byte	$00
	.byte	$00
	.byte	$00
	.byte	$00
	.byte	$00
	.byte	$00
	.byte	$00
	.byte	$00
	.byte	$00
	.byte	$00
	.byte	$00
	.byte	$00
	.byte	$00
	.byte	$00
	.byte	$00
	.byte	$00
	.byte	$00
	.byte	$00
	.byte	$00
	.byte	$00
	.byte	$00
	.byte	$00
	.byte	$00
	.byte	$01
	.byte	$01
	.byte	$00
	.byte	$00
	.byte	$00
	.byte	$00
	.byte	$00
	.byte	$00
	.byte	$00
	.byte	$00
	.byte	$00
	.byte	$00
	.byte	$00
	.byte	$00
	.byte	$00
	.byte	$00
	.byte	$00
	.byte	$00
	.byte	$00
	.byte	$00
	.byte	$00
	.byte	$00
	.byte	$00
	.byte	$00
	.byte	$00
	.byte	$00
	.byte	$00
	.byte	$00
	.byte	$00
	.byte	$00
	.byte	$00
	.byte	$00
	.byte	$01
	.byte	$01
	.byte	$00
	.byte	$00
	.byte	$00
	.byte	$00
	.byte	$00
	.byte	$00
	.byte	$00
	.byte	$00
	.byte	$00
	.byte	$00
	.byte	$00
	.byte	$00
	.byte	$00
	.byte	$00
	.byte	$00
	.byte	$00
	.byte	$00
	.byte	$00
	.byte	$00
	.byte	$00
	.byte	$00
	.byte	$00
	.byte	$00
	.byte	$00
	.byte	$00
	.byte	$00
	.byte	$00
	.byte	$00
	.byte	$00
	.byte	$00
	.byte	$01
	.byte	$01
	.byte	$00
	.byte	$00
	.byte	$00
	.byte	$00
	.byte	$00
	.byte	$00
	.byte	$00
	.byte	$00
	.byte	$00
	.byte	$00
	.byte	$00
	.byte	$00
	.byte	$00
	.byte	$00
	.byte	$00
	.byte	$00
	.byte	$00
	.byte	$00
	.byte	$00
	.byte	$00
	.byte	$00
	.byte	$00
	.byte	$00
	.byte	$00
	.byte	$00
	.byte	$00
	.byte	$00
	.byte	$00
	.byte	$00
	.byte	$00
	.byte	$01
	.byte	$01
	.byte	$00
	.byte	$00
	.byte	$00
	.byte	$00
	.byte	$00
	.byte	$00
	.byte	$00
	.byte	$00
	.byte	$00
	.byte	$00
	.byte	$00
	.byte	$00
	.byte	$00
	.byte	$00
	.byte	$00
	.byte	$00
	.byte	$00
	.byte	$00
	.byte	$00
	.byte	$00
	.byte	$00
	.byte	$00
	.byte	$00
	.byte	$00
	.byte	$00
	.byte	$00
	.byte	$00
	.byte	$00
	.byte	$00
	.byte	$00
	.byte	$01
	.byte	$01
	.byte	$00
	.byte	$00
	.byte	$00
	.byte	$00
	.byte	$00
	.byte	$00
	.byte	$00
	.byte	$00
	.byte	$00
	.byte	$00
	.byte	$00
	.byte	$00
	.byte	$00
	.byte	$00
	.byte	$00
	.byte	$00
	.byte	$00
	.byte	$00
	.byte	$00
	.byte	$00
	.byte	$00
	.byte	$00
	.byte	$00
	.byte	$00
	.byte	$00
	.byte	$00
	.byte	$00
	.byte	$00
	.byte	$00
	.byte	$00
	.byte	$01
	.byte	$01
	.byte	$00
	.byte	$00
	.byte	$00
	.byte	$00
	.byte	$00
	.byte	$00
	.byte	$00
	.byte	$00
	.byte	$00
	.byte	$00
	.byte	$00
	.byte	$00
	.byte	$00
	.byte	$00
	.byte	$00
	.byte	$00
	.byte	$00
	.byte	$00
	.byte	$00
	.byte	$00
	.byte	$00
	.byte	$00
	.byte	$00
	.byte	$00
	.byte	$00
	.byte	$00
	.byte	$00
	.byte	$00
	.byte	$00
	.byte	$00
	.byte	$01
	.byte	$01
	.byte	$00
	.byte	$00
	.byte	$00
	.byte	$00
	.byte	$00
	.byte	$00
	.byte	$00
	.byte	$00
	.byte	$00
	.byte	$00
	.byte	$00
	.byte	$00
	.byte	$00
	.byte	$00
	.byte	$00
	.byte	$00
	.byte	$00
	.byte	$00
	.byte	$00
	.byte	$00
	.byte	$00
	.byte	$00
	.byte	$00
	.byte	$00
	.byte	$00
	.byte	$00
	.byte	$00
	.byte	$00
	.byte	$00
	.byte	$00
	.byte	$01
	.byte	$01
	.byte	$00
	.byte	$00
	.byte	$00
	.byte	$00
	.byte	$00
	.byte	$00
	.byte	$00
	.byte	$00
	.byte	$00
	.byte	$00
	.byte	$00
	.byte	$00
	.byte	$00
	.byte	$00
	.byte	$00
	.byte	$00
	.byte	$00
	.byte	$00
	.byte	$00
	.byte	$00
	.byte	$00
	.byte	$00
	.byte	$00
	.byte	$00
	.byte	$00
	.byte	$00
	.byte	$00
	.byte	$00
	.byte	$00
	.byte	$00
	.byte	$01
	.byte	$01
	.byte	$00
	.byte	$00
	.byte	$00
	.byte	$00
	.byte	$00
	.byte	$00
	.byte	$00
	.byte	$00
	.byte	$00
	.byte	$00
	.byte	$00
	.byte	$00
	.byte	$00
	.byte	$00
	.byte	$00
	.byte	$00
	.byte	$00
	.byte	$00
	.byte	$00
	.byte	$00
	.byte	$00
	.byte	$00
	.byte	$00
	.byte	$00
	.byte	$00
	.byte	$00
	.byte	$00
	.byte	$00
	.byte	$00
	.byte	$00
	.byte	$01
	.byte	$01
	.byte	$00
	.byte	$00
	.byte	$00
	.byte	$00
	.byte	$00
	.byte	$00
	.byte	$00
	.byte	$00
	.byte	$00
	.byte	$00
	.byte	$00
	.byte	$00
	.byte	$00
	.byte	$00
	.byte	$00
	.byte	$00
	.byte	$00
	.byte	$00
	.byte	$00
	.byte	$00
	.byte	$00
	.byte	$00
	.byte	$00
	.byte	$00
	.byte	$00
	.byte	$00
	.byte	$00
	.byte	$00
	.byte	$00
	.byte	$00
	.byte	$01
	.byte	$01
	.byte	$00
	.byte	$00
	.byte	$00
	.byte	$00
	.byte	$00
	.byte	$00
	.byte	$00
	.byte	$00
	.byte	$00
	.byte	$00
	.byte	$00
	.byte	$00
	.byte	$00
	.byte	$00
	.byte	$00
	.byte	$00
	.byte	$00
	.byte	$00
	.byte	$00
	.byte	$00
	.byte	$00
	.byte	$00
	.byte	$00
	.byte	$00
	.byte	$00
	.byte	$00
	.byte	$00
	.byte	$00
	.byte	$00
	.byte	$00
	.byte	$01
	.byte	$01
	.byte	$00
	.byte	$00
	.byte	$00
	.byte	$00
	.byte	$00
	.byte	$00
	.byte	$00
	.byte	$00
	.byte	$00
	.byte	$00
	.byte	$00
	.byte	$00
	.byte	$00
	.byte	$00
	.byte	$00
	.byte	$00
	.byte	$00
	.byte	$00
	.byte	$00
	.byte	$00
	.byte	$00
	.byte	$00
	.byte	$00
	.byte	$00
	.byte	$00
	.byte	$00
	.byte	$00
	.byte	$00
	.byte	$00
	.byte	$00
	.byte	$01
	.byte	$01
	.byte	$00
	.byte	$00
	.byte	$00
	.byte	$00
	.byte	$00
	.byte	$00
	.byte	$00
	.byte	$00
	.byte	$00
	.byte	$00
	.byte	$00
	.byte	$00
	.byte	$00
	.byte	$00
	.byte	$00
	.byte	$00
	.byte	$00
	.byte	$00
	.byte	$00
	.byte	$00
	.byte	$00
	.byte	$00
	.byte	$00
	.byte	$00
	.byte	$00
	.byte	$00
	.byte	$00
	.byte	$00
	.byte	$00
	.byte	$00
	.byte	$01
	.byte	$01
	.byte	$00
	.byte	$00
	.byte	$00
	.byte	$00
	.byte	$00
	.byte	$00
	.byte	$00
	.byte	$00
	.byte	$00
	.byte	$00
	.byte	$00
	.byte	$00
	.byte	$00
	.byte	$00
	.byte	$00
	.byte	$00
	.byte	$00
	.byte	$00
	.byte	$00
	.byte	$00
	.byte	$00
	.byte	$00
	.byte	$00
	.byte	$00
	.byte	$00
	.byte	$00
	.byte	$00
	.byte	$00
	.byte	$00
	.byte	$00
	.byte	$01
	.byte	$01
	.byte	$00
	.byte	$00
	.byte	$00
	.byte	$00
	.byte	$00
	.byte	$00
	.byte	$00
	.byte	$00
	.byte	$00
	.byte	$00
	.byte	$00
	.byte	$00
	.byte	$00
	.byte	$00
	.byte	$00
	.byte	$00
	.byte	$00
	.byte	$00
	.byte	$00
	.byte	$00
	.byte	$00
	.byte	$00
	.byte	$00
	.byte	$00
	.byte	$00
	.byte	$00
	.byte	$00
	.byte	$00
	.byte	$00
	.byte	$00
	.byte	$01
	.byte	$01
	.byte	$00
	.byte	$00
	.byte	$00
	.byte	$00
	.byte	$00
	.byte	$00
	.byte	$00
	.byte	$00
	.byte	$00
	.byte	$00
	.byte	$00
	.byte	$00
	.byte	$00
	.byte	$00
	.byte	$00
	.byte	$00
	.byte	$00
	.byte	$00
	.byte	$00
	.byte	$00
	.byte	$00
	.byte	$00
	.byte	$00
	.byte	$00
	.byte	$00
	.byte	$00
	.byte	$00
	.byte	$00
	.byte	$00
	.byte	$00
	.byte	$01
	.byte	$01
	.byte	$01
	.byte	$01
	.byte	$01
	.byte	$01
	.byte	$01
	.byte	$01
	.byte	$01
	.byte	$01
	.byte	$01
	.byte	$01
	.byte	$01
	.byte	$01
	.byte	$01
	.byte	$01
	.byte	$01
	.byte	$01
	.byte	$01
	.byte	$01
	.byte	$01
	.byte	$01
	.byte	$01
	.byte	$01
	.byte	$01
	.byte	$01
	.byte	$01
	.byte	$01
	.byte	$01
	.byte	$01
	.byte	$01
	.byte	$01
	.byte	$01
	.byte	$AA
	.byte	$AA
	.byte	$AA
	.byte	$AA
	.byte	$AA
	.byte	$AA
	.byte	$AA
	.byte	$AA
	.byte	$AA
	.byte	$AA
	.byte	$AA
	.byte	$AA
	.byte	$AA
	.byte	$AA
	.byte	$AA
	.byte	$AA
	.byte	$AA
	.byte	$AA
	.byte	$AA
	.byte	$AA
	.byte	$AA
	.byte	$AA
	.byte	$AA
	.byte	$AA
	.byte	$AA
	.byte	$AA
	.byte	$AA
	.byte	$AA
	.byte	$AA
	.byte	$AA
	.byte	$AA
	.byte	$AA
	.byte	$AA
	.byte	$AA
	.byte	$AA
	.byte	$AA
	.byte	$AA
	.byte	$AA
	.byte	$AA
	.byte	$AA
	.byte	$AA
	.byte	$AA
	.byte	$AA
	.byte	$AA
	.byte	$AA
	.byte	$AA
	.byte	$AA
	.byte	$AA
	.byte	$AA
	.byte	$AA
	.byte	$AA
	.byte	$AA
	.byte	$AA
	.byte	$AA
	.byte	$AA
	.byte	$AA
	.byte	$0A
	.byte	$0A
	.byte	$0A
	.byte	$0A
	.byte	$0A
	.byte	$0A
	.byte	$0A
	.byte	$0A
_levelTwoCollision:
	.byte	$01
	.byte	$01
	.byte	$01
	.byte	$01
	.byte	$01
	.byte	$01
	.byte	$01
	.byte	$01
	.byte	$01
	.byte	$01
	.byte	$01
	.byte	$01
	.byte	$01
	.byte	$01
	.byte	$01
	.byte	$01
	.byte	$01
	.byte	$01
	.byte	$01
	.byte	$01
	.byte	$01
	.byte	$01
	.byte	$01
	.byte	$01
	.byte	$01
	.byte	$01
	.byte	$01
	.byte	$01
	.byte	$01
	.byte	$01
	.byte	$01
	.byte	$01
	.byte	$01
	.byte	$00
	.byte	$00
	.byte	$00
	.byte	$00
	.byte	$00
	.byte	$00
	.byte	$00
	.byte	$00
	.byte	$00
	.byte	$00
	.byte	$00
	.byte	$00
	.byte	$00
	.byte	$00
	.byte	$00
	.byte	$00
	.byte	$00
	.byte	$00
	.byte	$00
	.byte	$00
	.byte	$00
	.byte	$00
	.byte	$00
	.byte	$00
	.byte	$00
	.byte	$00
	.byte	$00
	.byte	$00
	.byte	$00
	.byte	$00
	.byte	$01
	.byte	$01
	.byte	$00
	.byte	$00
	.byte	$00
	.byte	$00
	.byte	$00
	.byte	$00
	.byte	$00
	.byte	$00
	.byte	$00
	.byte	$00
	.byte	$00
	.byte	$00
	.byte	$00
	.byte	$00
	.byte	$00
	.byte	$00
	.byte	$00
	.byte	$00
	.byte	$00
	.byte	$00
	.byte	$00
	.byte	$00
	.byte	$00
	.byte	$00
	.byte	$00
	.byte	$00
	.byte	$00
	.byte	$00
	.byte	$00
	.byte	$00
	.byte	$01
	.byte	$01
	.byte	$00
	.byte	$00
	.byte	$00
	.byte	$00
	.byte	$00
	.byte	$00
	.byte	$00
	.byte	$00
	.byte	$00
	.byte	$00
	.byte	$00
	.byte	$00
	.byte	$00
	.byte	$00
	.byte	$00
	.byte	$00
	.byte	$00
	.byte	$00
	.byte	$00
	.byte	$00
	.byte	$00
	.byte	$00
	.byte	$00
	.byte	$00
	.byte	$00
	.byte	$00
	.byte	$00
	.byte	$00
	.byte	$00
	.byte	$00
	.byte	$01
	.byte	$01
	.byte	$00
	.byte	$00
	.byte	$00
	.byte	$00
	.byte	$00
	.byte	$00
	.byte	$00
	.byte	$00
	.byte	$00
	.byte	$00
	.byte	$00
	.byte	$00
	.byte	$00
	.byte	$00
	.byte	$00
	.byte	$00
	.byte	$00
	.byte	$00
	.byte	$00
	.byte	$00
	.byte	$00
	.byte	$00
	.byte	$00
	.byte	$00
	.byte	$00
	.byte	$00
	.byte	$00
	.byte	$00
	.byte	$00
	.byte	$00
	.byte	$01
	.byte	$01
	.byte	$00
	.byte	$00
	.byte	$00
	.byte	$00
	.byte	$00
	.byte	$00
	.byte	$00
	.byte	$00
	.byte	$00
	.byte	$00
	.byte	$00
	.byte	$00
	.byte	$00
	.byte	$00
	.byte	$00
	.byte	$00
	.byte	$00
	.byte	$00
	.byte	$00
	.byte	$00
	.byte	$00
	.byte	$00
	.byte	$00
	.byte	$00
	.byte	$00
	.byte	$00
	.byte	$00
	.byte	$00
	.byte	$00
	.byte	$00
	.byte	$01
	.byte	$01
	.byte	$00
	.byte	$00
	.byte	$00
	.byte	$00
	.byte	$00
	.byte	$00
	.byte	$00
	.byte	$00
	.byte	$00
	.byte	$00
	.byte	$00
	.byte	$00
	.byte	$00
	.byte	$00
	.byte	$00
	.byte	$00
	.byte	$00
	.byte	$00
	.byte	$00
	.byte	$00
	.byte	$00
	.byte	$00
	.byte	$00
	.byte	$00
	.byte	$00
	.byte	$00
	.byte	$00
	.byte	$00
	.byte	$00
	.byte	$00
	.byte	$01
	.byte	$01
	.byte	$00
	.byte	$00
	.byte	$00
	.byte	$00
	.byte	$00
	.byte	$00
	.byte	$00
	.byte	$00
	.byte	$00
	.byte	$00
	.byte	$00
	.byte	$00
	.byte	$00
	.byte	$00
	.byte	$00
	.byte	$00
	.byte	$00
	.byte	$00
	.byte	$00
	.byte	$00
	.byte	$00
	.byte	$00
	.byte	$00
	.byte	$00
	.byte	$00
	.byte	$00
	.byte	$00
	.byte	$00
	.byte	$00
	.byte	$00
	.byte	$01
	.byte	$01
	.byte	$00
	.byte	$00
	.byte	$00
	.byte	$00
	.byte	$00
	.byte	$00
	.byte	$00
	.byte	$00
	.byte	$00
	.byte	$00
	.byte	$00
	.byte	$00
	.byte	$00
	.byte	$00
	.byte	$00
	.byte	$00
	.byte	$00
	.byte	$00
	.byte	$00
	.byte	$00
	.byte	$00
	.byte	$00
	.byte	$00
	.byte	$00
	.byte	$00
	.byte	$00
	.byte	$00
	.byte	$00
	.byte	$00
	.byte	$00
	.byte	$01
	.byte	$01
	.byte	$00
	.byte	$00
	.byte	$00
	.byte	$00
	.byte	$00
	.byte	$00
	.byte	$00
	.byte	$00
	.byte	$00
	.byte	$00
	.byte	$00
	.byte	$00
	.byte	$00
	.byte	$00
	.byte	$00
	.byte	$00
	.byte	$00
	.byte	$00
	.byte	$00
	.byte	$00
	.byte	$00
	.byte	$00
	.byte	$00
	.byte	$00
	.byte	$00
	.byte	$00
	.byte	$00
	.byte	$00
	.byte	$00
	.byte	$00
	.byte	$01
	.byte	$01
	.byte	$00
	.byte	$00
	.byte	$00
	.byte	$00
	.byte	$00
	.byte	$00
	.byte	$00
	.byte	$00
	.byte	$00
	.byte	$00
	.byte	$00
	.byte	$00
	.byte	$00
	.byte	$00
	.byte	$00
	.byte	$00
	.byte	$00
	.byte	$00
	.byte	$00
	.byte	$00
	.byte	$00
	.byte	$00
	.byte	$00
	.byte	$00
	.byte	$00
	.byte	$00
	.byte	$00
	.byte	$00
	.byte	$00
	.byte	$00
	.byte	$01
	.byte	$01
	.byte	$00
	.byte	$00
	.byte	$00
	.byte	$00
	.byte	$00
	.byte	$00
	.byte	$00
	.byte	$00
	.byte	$00
	.byte	$00
	.byte	$00
	.byte	$00
	.byte	$00
	.byte	$00
	.byte	$00
	.byte	$00
	.byte	$00
	.byte	$00
	.byte	$00
	.byte	$00
	.byte	$00
	.byte	$00
	.byte	$00
	.byte	$00
	.byte	$00
	.byte	$00
	.byte	$00
	.byte	$00
	.byte	$00
	.byte	$00
	.byte	$01
	.byte	$01
	.byte	$00
	.byte	$00
	.byte	$00
	.byte	$00
	.byte	$00
	.byte	$00
	.byte	$00
	.byte	$00
	.byte	$00
	.byte	$00
	.byte	$00
	.byte	$00
	.byte	$00
	.byte	$00
	.byte	$00
	.byte	$00
	.byte	$00
	.byte	$00
	.byte	$00
	.byte	$00
	.byte	$00
	.byte	$00
	.byte	$00
	.byte	$00
	.byte	$00
	.byte	$00
	.byte	$00
	.byte	$00
	.byte	$00
	.byte	$00
	.byte	$01
	.byte	$01
	.byte	$00
	.byte	$00
	.byte	$00
	.byte	$00
	.byte	$00
	.byte	$00
	.byte	$00
	.byte	$00
	.byte	$00
	.byte	$00
	.byte	$00
	.byte	$00
	.byte	$00
	.byte	$00
	.byte	$00
	.byte	$00
	.byte	$00
	.byte	$00
	.byte	$00
	.byte	$00
	.byte	$00
	.byte	$00
	.byte	$00
	.byte	$00
	.byte	$00
	.byte	$00
	.byte	$00
	.byte	$00
	.byte	$00
	.byte	$00
	.byte	$01
	.byte	$01
	.byte	$00
	.byte	$00
	.byte	$00
	.byte	$00
	.byte	$00
	.byte	$00
	.byte	$00
	.byte	$00
	.byte	$00
	.byte	$00
	.byte	$00
	.byte	$00
	.byte	$00
	.byte	$00
	.byte	$00
	.byte	$00
	.byte	$00
	.byte	$00
	.byte	$00
	.byte	$00
	.byte	$00
	.byte	$00
	.byte	$00
	.byte	$00
	.byte	$00
	.byte	$00
	.byte	$00
	.byte	$00
	.byte	$00
	.byte	$00
	.byte	$01
	.byte	$01
	.byte	$00
	.byte	$00
	.byte	$00
	.byte	$00
	.byte	$00
	.byte	$00
	.byte	$00
	.byte	$00
	.byte	$00
	.byte	$00
	.byte	$00
	.byte	$00
	.byte	$00
	.byte	$00
	.byte	$00
	.byte	$00
	.byte	$00
	.byte	$00
	.byte	$00
	.byte	$00
	.byte	$00
	.byte	$00
	.byte	$00
	.byte	$00
	.byte	$00
	.byte	$00
	.byte	$00
	.byte	$00
	.byte	$00
	.byte	$00
	.byte	$01
	.byte	$01
	.byte	$00
	.byte	$00
	.byte	$00
	.byte	$00
	.byte	$00
	.byte	$00
	.byte	$00
	.byte	$00
	.byte	$00
	.byte	$00
	.byte	$00
	.byte	$00
	.byte	$00
	.byte	$00
	.byte	$00
	.byte	$00
	.byte	$00
	.byte	$00
	.byte	$00
	.byte	$00
	.byte	$00
	.byte	$00
	.byte	$00
	.byte	$00
	.byte	$00
	.byte	$00
	.byte	$00
	.byte	$00
	.byte	$00
	.byte	$00
	.byte	$01
	.byte	$01
	.byte	$00
	.byte	$00
	.byte	$00
	.byte	$00
	.byte	$00
	.byte	$00
	.byte	$00
	.byte	$00
	.byte	$00
	.byte	$00
	.byte	$00
	.byte	$00
	.byte	$00
	.byte	$00
	.byte	$00
	.byte	$00
	.byte	$00
	.byte	$00
	.byte	$00
	.byte	$00
	.byte	$00
	.byte	$00
	.byte	$00
	.byte	$00
	.byte	$00
	.byte	$00
	.byte	$00
	.byte	$00
	.byte	$00
	.byte	$00
	.byte	$01
	.byte	$01
	.byte	$00
	.byte	$00
	.byte	$00
	.byte	$00
	.byte	$00
	.byte	$00
	.byte	$00
	.byte	$00
	.byte	$00
	.byte	$00
	.byte	$00
	.byte	$00
	.byte	$00
	.byte	$00
	.byte	$00
	.byte	$00
	.byte	$00
	.byte	$00
	.byte	$00
	.byte	$00
	.byte	$00
	.byte	$00
	.byte	$00
	.byte	$00
	.byte	$00
	.byte	$00
	.byte	$00
	.byte	$00
	.byte	$00
	.byte	$00
	.byte	$01
	.byte	$01
	.byte	$00
	.byte	$00
	.byte	$00
	.byte	$00
	.byte	$00
	.byte	$00
	.byte	$00
	.byte	$00
	.byte	$00
	.byte	$00
	.byte	$00
	.byte	$00
	.byte	$00
	.byte	$00
	.byte	$00
	.byte	$00
	.byte	$00
	.byte	$00
	.byte	$00
	.byte	$00
	.byte	$00
	.byte	$00
	.byte	$00
	.byte	$00
	.byte	$00
	.byte	$00
	.byte	$00
	.byte	$00
	.byte	$00
	.byte	$00
	.byte	$01
	.byte	$01
	.byte	$00
	.byte	$00
	.byte	$00
	.byte	$00
	.byte	$00
	.byte	$00
	.byte	$00
	.byte	$00
	.byte	$00
	.byte	$00
	.byte	$00
	.byte	$00
	.byte	$00
	.byte	$00
	.byte	$00
	.byte	$00
	.byte	$00
	.byte	$00
	.byte	$00
	.byte	$00
	.byte	$00
	.byte	$00
	.byte	$00
	.byte	$00
	.byte	$00
	.byte	$00
	.byte	$00
	.byte	$00
	.byte	$00
	.byte	$00
	.byte	$01
	.byte	$01
	.byte	$00
	.byte	$00
	.byte	$00
	.byte	$00
	.byte	$00
	.byte	$00
	.byte	$00
	.byte	$00
	.byte	$00
	.byte	$00
	.byte	$00
	.byte	$00
	.byte	$00
	.byte	$00
	.byte	$00
	.byte	$00
	.byte	$00
	.byte	$00
	.byte	$00
	.byte	$00
	.byte	$00
	.byte	$00
	.byte	$00
	.byte	$00
	.byte	$00
	.byte	$00
	.byte	$00
	.byte	$00
	.byte	$00
	.byte	$00
	.byte	$01
	.byte	$01
	.byte	$00
	.byte	$00
	.byte	$00
	.byte	$00
	.byte	$00
	.byte	$00
	.byte	$00
	.byte	$00
	.byte	$00
	.byte	$00
	.byte	$00
	.byte	$00
	.byte	$00
	.byte	$00
	.byte	$00
	.byte	$00
	.byte	$00
	.byte	$00
	.byte	$00
	.byte	$00
	.byte	$00
	.byte	$00
	.byte	$00
	.byte	$00
	.byte	$00
	.byte	$00
	.byte	$00
	.byte	$00
	.byte	$00
	.byte	$00
	.byte	$01
	.byte	$01
	.byte	$00
	.byte	$00
	.byte	$00
	.byte	$00
	.byte	$00
	.byte	$00
	.byte	$00
	.byte	$00
	.byte	$00
	.byte	$00
	.byte	$00
	.byte	$00
	.byte	$00
	.byte	$00
	.byte	$00
	.byte	$00
	.byte	$00
	.byte	$00
	.byte	$00
	.byte	$00
	.byte	$00
	.byte	$00
	.byte	$00
	.byte	$00
	.byte	$00
	.byte	$00
	.byte	$00
	.byte	$00
	.byte	$00
	.byte	$00
	.byte	$01
	.byte	$02
	.byte	$00
	.byte	$00
	.byte	$00
	.byte	$00
	.byte	$00
	.byte	$00
	.byte	$00
	.byte	$00
	.byte	$00
	.byte	$00
	.byte	$00
	.byte	$00
	.byte	$00
	.byte	$00
	.byte	$00
	.byte	$00
	.byte	$00
	.byte	$00
	.byte	$00
	.byte	$00
	.byte	$01
	.byte	$01
	.byte	$01
	.byte	$01
	.byte	$01
	.byte	$01
	.byte	$01
	.byte	$01
	.byte	$01
	.byte	$01
	.byte	$01
	.byte	$02
	.byte	$00
	.byte	$00
	.byte	$00
	.byte	$00
	.byte	$00
	.byte	$00
	.byte	$00
	.byte	$00
	.byte	$00
	.byte	$00
	.byte	$00
	.byte	$00
	.byte	$00
	.byte	$00
	.byte	$00
	.byte	$00
	.byte	$00
	.byte	$00
	.byte	$00
	.byte	$00
	.byte	$01
	.byte	$00
	.byte	$00
	.byte	$00
	.byte	$00
	.byte	$00
	.byte	$00
	.byte	$00
	.byte	$00
	.byte	$00
	.byte	$02
	.byte	$02
	.byte	$00
	.byte	$00
	.byte	$00
	.byte	$00
	.byte	$00
	.byte	$00
	.byte	$00
	.byte	$00
	.byte	$00
	.byte	$00
	.byte	$00
	.byte	$00
	.byte	$00
	.byte	$00
	.byte	$00
	.byte	$00
	.byte	$00
	.byte	$00
	.byte	$00
	.byte	$00
	.byte	$01
	.byte	$00
	.byte	$00
	.byte	$00
	.byte	$00
	.byte	$00
	.byte	$00
	.byte	$00
	.byte	$00
	.byte	$00
	.byte	$02
	.byte	$02
	.byte	$00
	.byte	$00
	.byte	$00
	.byte	$00
	.byte	$00
	.byte	$00
	.byte	$00
	.byte	$00
	.byte	$00
	.byte	$00
	.byte	$00
	.byte	$00
	.byte	$00
	.byte	$00
	.byte	$00
	.byte	$00
	.byte	$00
	.byte	$00
	.byte	$00
	.byte	$00
	.byte	$00
	.byte	$00
	.byte	$00
	.byte	$00
	.byte	$00
	.byte	$00
	.byte	$00
	.byte	$00
	.byte	$00
	.byte	$00
	.byte	$02
	.byte	$02
	.byte	$00
	.byte	$00
	.byte	$00
	.byte	$00
	.byte	$00
	.byte	$00
	.byte	$00
	.byte	$00
	.byte	$00
	.byte	$00
	.byte	$00
	.byte	$00
	.byte	$00
	.byte	$00
	.byte	$00
	.byte	$00
	.byte	$00
	.byte	$00
	.byte	$00
	.byte	$00
	.byte	$01
	.byte	$00
	.byte	$00
	.byte	$00
	.byte	$00
	.byte	$00
	.byte	$00
	.byte	$00
	.byte	$00
	.byte	$00
	.byte	$02
	.byte	$01
	.byte	$01
	.byte	$01
	.byte	$01
	.byte	$01
	.byte	$01
	.byte	$01
	.byte	$01
	.byte	$01
	.byte	$01
	.byte	$01
	.byte	$01
	.byte	$01
	.byte	$01
	.byte	$01
	.byte	$01
	.byte	$01
	.byte	$01
	.byte	$01
	.byte	$01
	.byte	$01
	.byte	$01
	.byte	$01
	.byte	$01
	.byte	$01
	.byte	$01
	.byte	$01
	.byte	$01
	.byte	$01
	.byte	$01
	.byte	$01
	.byte	$01
	.byte	$2A
	.byte	$0A
	.byte	$0A
	.byte	$0A
	.byte	$0A
	.byte	$0A
	.byte	$8A
	.byte	$AA
	.byte	$22
	.byte	$00
	.byte	$00
	.byte	$00
	.byte	$00
	.byte	$00
	.byte	$A0
	.byte	$A8
	.byte	$A2
	.byte	$A0
	.byte	$A8
	.byte	$AA
	.byte	$AA
	.byte	$AA
	.byte	$AA
	.byte	$AA
	.byte	$AA
	.byte	$AA
	.byte	$AA
	.byte	$AA
	.byte	$AA
	.byte	$AA
	.byte	$AA
	.byte	$AA
	.byte	$AA
	.byte	$AA
	.byte	$AA
	.byte	$AA
	.byte	$AA
	.byte	$AA
	.byte	$AA
	.byte	$AA
	.byte	$AA
	.byte	$AA
	.byte	$AA
	.byte	$AA
	.byte	$AA
	.byte	$AA
	.byte	$AA
	.byte	$AA
	.byte	$AA
	.byte	$AA
	.byte	$AA
	.byte	$AA
	.byte	$AA
	.byte	$AA
	.byte	$AA
	.byte	$AA
	.byte	$0A
	.byte	$0A
	.byte	$0A
	.byte	$0A
	.byte	$0A
	.byte	$0A
	.byte	$0A
	.byte	$0A
_levelThreeCollision:
	.byte	$01
	.byte	$02
	.byte	$02
	.byte	$02
	.byte	$02
	.byte	$02
	.byte	$02
	.byte	$02
	.byte	$02
	.byte	$02
	.byte	$02
	.byte	$02
	.byte	$02
	.byte	$02
	.byte	$01
	.byte	$01
	.byte	$01
	.byte	$01
	.byte	$01
	.byte	$01
	.byte	$01
	.byte	$01
	.byte	$01
	.byte	$01
	.byte	$01
	.byte	$01
	.byte	$01
	.byte	$01
	.byte	$01
	.byte	$01
	.byte	$01
	.byte	$01
	.byte	$01
	.byte	$00
	.byte	$00
	.byte	$00
	.byte	$00
	.byte	$00
	.byte	$00
	.byte	$00
	.byte	$00
	.byte	$00
	.byte	$00
	.byte	$00
	.byte	$00
	.byte	$00
	.byte	$00
	.byte	$00
	.byte	$00
	.byte	$00
	.byte	$00
	.byte	$00
	.byte	$00
	.byte	$00
	.byte	$01
	.byte	$00
	.byte	$00
	.byte	$00
	.byte	$00
	.byte	$00
	.byte	$00
	.byte	$00
	.byte	$00
	.byte	$01
	.byte	$01
	.byte	$00
	.byte	$00
	.byte	$00
	.byte	$00
	.byte	$00
	.byte	$00
	.byte	$00
	.byte	$00
	.byte	$00
	.byte	$00
	.byte	$00
	.byte	$00
	.byte	$00
	.byte	$00
	.byte	$00
	.byte	$00
	.byte	$00
	.byte	$00
	.byte	$00
	.byte	$00
	.byte	$00
	.byte	$01
	.byte	$00
	.byte	$00
	.byte	$00
	.byte	$00
	.byte	$00
	.byte	$00
	.byte	$00
	.byte	$00
	.byte	$01
	.byte	$01
	.byte	$00
	.byte	$00
	.byte	$00
	.byte	$00
	.byte	$00
	.byte	$00
	.byte	$00
	.byte	$00
	.byte	$00
	.byte	$00
	.byte	$00
	.byte	$00
	.byte	$00
	.byte	$00
	.byte	$00
	.byte	$00
	.byte	$00
	.byte	$00
	.byte	$00
	.byte	$00
	.byte	$00
	.byte	$01
	.byte	$00
	.byte	$00
	.byte	$00
	.byte	$00
	.byte	$00
	.byte	$00
	.byte	$00
	.byte	$00
	.byte	$01
	.byte	$01
	.byte	$00
	.byte	$00
	.byte	$00
	.byte	$00
	.byte	$00
	.byte	$00
	.byte	$00
	.byte	$00
	.byte	$00
	.byte	$00
	.byte	$00
	.byte	$00
	.byte	$00
	.byte	$00
	.byte	$00
	.byte	$00
	.byte	$00
	.byte	$00
	.byte	$00
	.byte	$00
	.byte	$00
	.byte	$01
	.byte	$00
	.byte	$00
	.byte	$00
	.byte	$00
	.byte	$00
	.byte	$00
	.byte	$00
	.byte	$00
	.byte	$01
	.byte	$01
	.byte	$00
	.byte	$00
	.byte	$00
	.byte	$00
	.byte	$00
	.byte	$00
	.byte	$00
	.byte	$00
	.byte	$00
	.byte	$00
	.byte	$00
	.byte	$00
	.byte	$00
	.byte	$00
	.byte	$00
	.byte	$00
	.byte	$00
	.byte	$00
	.byte	$00
	.byte	$00
	.byte	$00
	.byte	$01
	.byte	$00
	.byte	$00
	.byte	$00
	.byte	$00
	.byte	$00
	.byte	$00
	.byte	$00
	.byte	$00
	.byte	$01
	.byte	$01
	.byte	$00
	.byte	$00
	.byte	$00
	.byte	$00
	.byte	$00
	.byte	$00
	.byte	$00
	.byte	$00
	.byte	$00
	.byte	$00
	.byte	$00
	.byte	$00
	.byte	$00
	.byte	$00
	.byte	$00
	.byte	$00
	.byte	$00
	.byte	$00
	.byte	$00
	.byte	$00
	.byte	$00
	.byte	$01
	.byte	$00
	.byte	$00
	.byte	$00
	.byte	$00
	.byte	$00
	.byte	$00
	.byte	$00
	.byte	$00
	.byte	$01
	.byte	$01
	.byte	$00
	.byte	$00
	.byte	$00
	.byte	$00
	.byte	$00
	.byte	$00
	.byte	$00
	.byte	$00
	.byte	$00
	.byte	$00
	.byte	$00
	.byte	$00
	.byte	$00
	.byte	$00
	.byte	$00
	.byte	$00
	.byte	$00
	.byte	$00
	.byte	$00
	.byte	$00
	.byte	$00
	.byte	$01
	.byte	$00
	.byte	$00
	.byte	$00
	.byte	$00
	.byte	$00
	.byte	$00
	.byte	$00
	.byte	$00
	.byte	$01
	.byte	$01
	.byte	$00
	.byte	$00
	.byte	$00
	.byte	$00
	.byte	$00
	.byte	$00
	.byte	$00
	.byte	$00
	.byte	$00
	.byte	$00
	.byte	$00
	.byte	$00
	.byte	$00
	.byte	$00
	.byte	$00
	.byte	$00
	.byte	$00
	.byte	$00
	.byte	$00
	.byte	$00
	.byte	$00
	.byte	$01
	.byte	$00
	.byte	$00
	.byte	$00
	.byte	$00
	.byte	$00
	.byte	$00
	.byte	$00
	.byte	$00
	.byte	$01
	.byte	$01
	.byte	$00
	.byte	$00
	.byte	$00
	.byte	$00
	.byte	$00
	.byte	$00
	.byte	$00
	.byte	$00
	.byte	$00
	.byte	$00
	.byte	$00
	.byte	$00
	.byte	$00
	.byte	$00
	.byte	$00
	.byte	$00
	.byte	$00
	.byte	$00
	.byte	$00
	.byte	$00
	.byte	$00
	.byte	$01
	.byte	$00
	.byte	$00
	.byte	$00
	.byte	$00
	.byte	$00
	.byte	$00
	.byte	$00
	.byte	$00
	.byte	$01
	.byte	$01
	.byte	$00
	.byte	$00
	.byte	$00
	.byte	$00
	.byte	$00
	.byte	$00
	.byte	$00
	.byte	$00
	.byte	$00
	.byte	$00
	.byte	$00
	.byte	$00
	.byte	$00
	.byte	$00
	.byte	$00
	.byte	$00
	.byte	$00
	.byte	$00
	.byte	$00
	.byte	$00
	.byte	$00
	.byte	$01
	.byte	$00
	.byte	$00
	.byte	$00
	.byte	$00
	.byte	$00
	.byte	$00
	.byte	$00
	.byte	$00
	.byte	$01
	.byte	$01
	.byte	$00
	.byte	$00
	.byte	$00
	.byte	$00
	.byte	$00
	.byte	$00
	.byte	$00
	.byte	$00
	.byte	$00
	.byte	$00
	.byte	$00
	.byte	$00
	.byte	$00
	.byte	$00
	.byte	$00
	.byte	$00
	.byte	$00
	.byte	$00
	.byte	$00
	.byte	$00
	.byte	$00
	.byte	$01
	.byte	$00
	.byte	$00
	.byte	$00
	.byte	$00
	.byte	$00
	.byte	$00
	.byte	$00
	.byte	$00
	.byte	$01
	.byte	$01
	.byte	$00
	.byte	$00
	.byte	$00
	.byte	$00
	.byte	$00
	.byte	$00
	.byte	$00
	.byte	$00
	.byte	$00
	.byte	$00
	.byte	$00
	.byte	$00
	.byte	$00
	.byte	$00
	.byte	$00
	.byte	$00
	.byte	$00
	.byte	$00
	.byte	$00
	.byte	$00
	.byte	$00
	.byte	$01
	.byte	$00
	.byte	$00
	.byte	$00
	.byte	$00
	.byte	$00
	.byte	$00
	.byte	$00
	.byte	$00
	.byte	$01
	.byte	$01
	.byte	$00
	.byte	$00
	.byte	$00
	.byte	$00
	.byte	$00
	.byte	$00
	.byte	$00
	.byte	$00
	.byte	$00
	.byte	$00
	.byte	$00
	.byte	$00
	.byte	$00
	.byte	$00
	.byte	$00
	.byte	$00
	.byte	$00
	.byte	$00
	.byte	$00
	.byte	$00
	.byte	$00
	.byte	$01
	.byte	$00
	.byte	$00
	.byte	$00
	.byte	$00
	.byte	$00
	.byte	$00
	.byte	$00
	.byte	$00
	.byte	$01
	.byte	$02
	.byte	$00
	.byte	$00
	.byte	$00
	.byte	$00
	.byte	$00
	.byte	$00
	.byte	$00
	.byte	$00
	.byte	$00
	.byte	$00
	.byte	$00
	.byte	$00
	.byte	$00
	.byte	$00
	.byte	$00
	.byte	$00
	.byte	$00
	.byte	$00
	.byte	$00
	.byte	$00
	.byte	$00
	.byte	$01
	.byte	$00
	.byte	$00
	.byte	$00
	.byte	$00
	.byte	$00
	.byte	$00
	.byte	$00
	.byte	$00
	.byte	$02
	.byte	$02
	.byte	$00
	.byte	$00
	.byte	$00
	.byte	$00
	.byte	$00
	.byte	$00
	.byte	$00
	.byte	$00
	.byte	$00
	.byte	$00
	.byte	$00
	.byte	$00
	.byte	$00
	.byte	$00
	.byte	$00
	.byte	$00
	.byte	$00
	.byte	$00
	.byte	$00
	.byte	$00
	.byte	$00
	.byte	$01
	.byte	$00
	.byte	$00
	.byte	$00
	.byte	$00
	.byte	$00
	.byte	$00
	.byte	$00
	.byte	$00
	.byte	$02
	.byte	$02
	.byte	$00
	.byte	$00
	.byte	$00
	.byte	$00
	.byte	$00
	.byte	$00
	.byte	$00
	.byte	$00
	.byte	$00
	.byte	$00
	.byte	$00
	.byte	$00
	.byte	$00
	.byte	$00
	.byte	$00
	.byte	$00
	.byte	$00
	.byte	$00
	.byte	$00
	.byte	$00
	.byte	$00
	.byte	$01
	.byte	$00
	.byte	$00
	.byte	$00
	.byte	$00
	.byte	$00
	.byte	$00
	.byte	$00
	.byte	$00
	.byte	$02
	.byte	$02
	.byte	$00
	.byte	$00
	.byte	$00
	.byte	$00
	.byte	$00
	.byte	$00
	.byte	$00
	.byte	$00
	.byte	$00
	.byte	$00
	.byte	$00
	.byte	$00
	.byte	$00
	.byte	$00
	.byte	$00
	.byte	$00
	.byte	$00
	.byte	$00
	.byte	$00
	.byte	$00
	.byte	$00
	.byte	$00
	.byte	$00
	.byte	$00
	.byte	$00
	.byte	$00
	.byte	$00
	.byte	$00
	.byte	$00
	.byte	$00
	.byte	$02
	.byte	$02
	.byte	$00
	.byte	$00
	.byte	$00
	.byte	$00
	.byte	$00
	.byte	$00
	.byte	$00
	.byte	$00
	.byte	$00
	.byte	$00
	.byte	$00
	.byte	$00
	.byte	$00
	.byte	$00
	.byte	$00
	.byte	$00
	.byte	$00
	.byte	$00
	.byte	$00
	.byte	$00
	.byte	$00
	.byte	$01
	.byte	$00
	.byte	$00
	.byte	$00
	.byte	$00
	.byte	$00
	.byte	$00
	.byte	$00
	.byte	$00
	.byte	$01
	.byte	$02
	.byte	$02
	.byte	$02
	.byte	$02
	.byte	$02
	.byte	$01
	.byte	$01
	.byte	$01
	.byte	$01
	.byte	$01
	.byte	$01
	.byte	$01
	.byte	$01
	.byte	$00
	.byte	$00
	.byte	$00
	.byte	$00
	.byte	$00
	.byte	$00
	.byte	$00
	.byte	$00
	.byte	$00
	.byte	$01
	.byte	$00
	.byte	$00
	.byte	$00
	.byte	$00
	.byte	$00
	.byte	$00
	.byte	$00
	.byte	$00
	.byte	$01
	.byte	$01
	.byte	$01
	.byte	$01
	.byte	$01
	.byte	$01
	.byte	$01
	.byte	$01
	.byte	$01
	.byte	$01
	.byte	$01
	.byte	$01
	.byte	$01
	.byte	$01
	.byte	$00
	.byte	$00
	.byte	$00
	.byte	$00
	.byte	$00
	.byte	$00
	.byte	$00
	.byte	$00
	.byte	$00
	.byte	$01
	.byte	$00
	.byte	$00
	.byte	$00
	.byte	$00
	.byte	$00
	.byte	$00
	.byte	$00
	.byte	$00
	.byte	$01
	.byte	$01
	.byte	$01
	.byte	$01
	.byte	$01
	.byte	$01
	.byte	$01
	.byte	$01
	.byte	$01
	.byte	$01
	.byte	$01
	.byte	$01
	.byte	$01
	.byte	$01
	.byte	$00
	.byte	$00
	.byte	$00
	.byte	$00
	.byte	$00
	.byte	$00
	.byte	$00
	.byte	$00
	.byte	$00
	.byte	$01
	.byte	$00
	.byte	$00
	.byte	$00
	.byte	$00
	.byte	$00
	.byte	$00
	.byte	$00
	.byte	$00
	.byte	$01
	.byte	$01
	.byte	$01
	.byte	$01
	.byte	$01
	.byte	$01
	.byte	$01
	.byte	$01
	.byte	$01
	.byte	$01
	.byte	$01
	.byte	$01
	.byte	$01
	.byte	$01
	.byte	$00
	.byte	$00
	.byte	$00
	.byte	$00
	.byte	$00
	.byte	$00
	.byte	$00
	.byte	$00
	.byte	$00
	.byte	$01
	.byte	$00
	.byte	$00
	.byte	$00
	.byte	$00
	.byte	$00
	.byte	$00
	.byte	$00
	.byte	$00
	.byte	$01
	.byte	$01
	.byte	$01
	.byte	$01
	.byte	$01
	.byte	$01
	.byte	$01
	.byte	$01
	.byte	$01
	.byte	$01
	.byte	$01
	.byte	$01
	.byte	$01
	.byte	$01
	.byte	$00
	.byte	$00
	.byte	$00
	.byte	$00
	.byte	$00
	.byte	$00
	.byte	$00
	.byte	$00
	.byte	$00
	.byte	$01
	.byte	$00
	.byte	$00
	.byte	$00
	.byte	$00
	.byte	$00
	.byte	$00
	.byte	$00
	.byte	$00
	.byte	$01
	.byte	$01
	.byte	$01
	.byte	$01
	.byte	$01
	.byte	$01
	.byte	$01
	.byte	$01
	.byte	$01
	.byte	$01
	.byte	$01
	.byte	$01
	.byte	$01
	.byte	$01
	.byte	$00
	.byte	$00
	.byte	$00
	.byte	$00
	.byte	$00
	.byte	$00
	.byte	$00
	.byte	$00
	.byte	$00
	.byte	$01
	.byte	$00
	.byte	$00
	.byte	$00
	.byte	$00
	.byte	$00
	.byte	$00
	.byte	$00
	.byte	$00
	.byte	$01
	.byte	$01
	.byte	$01
	.byte	$01
	.byte	$01
	.byte	$01
	.byte	$01
	.byte	$01
	.byte	$01
	.byte	$01
	.byte	$01
	.byte	$01
	.byte	$01
	.byte	$02
	.byte	$00
	.byte	$00
	.byte	$00
	.byte	$00
	.byte	$00
	.byte	$00
	.byte	$00
	.byte	$00
	.byte	$00
	.byte	$01
	.byte	$00
	.byte	$00
	.byte	$00
	.byte	$00
	.byte	$00
	.byte	$00
	.byte	$00
	.byte	$00
	.byte	$01
	.byte	$01
	.byte	$01
	.byte	$01
	.byte	$01
	.byte	$01
	.byte	$01
	.byte	$01
	.byte	$01
	.byte	$01
	.byte	$01
	.byte	$01
	.byte	$01
	.byte	$02
	.byte	$00
	.byte	$00
	.byte	$00
	.byte	$00
	.byte	$00
	.byte	$00
	.byte	$00
	.byte	$00
	.byte	$00
	.byte	$01
	.byte	$00
	.byte	$00
	.byte	$00
	.byte	$00
	.byte	$00
	.byte	$00
	.byte	$00
	.byte	$00
	.byte	$01
	.byte	$01
	.byte	$01
	.byte	$01
	.byte	$01
	.byte	$01
	.byte	$01
	.byte	$01
	.byte	$01
	.byte	$01
	.byte	$01
	.byte	$01
	.byte	$01
	.byte	$02
	.byte	$00
	.byte	$00
	.byte	$00
	.byte	$00
	.byte	$00
	.byte	$00
	.byte	$00
	.byte	$00
	.byte	$00
	.byte	$01
	.byte	$00
	.byte	$00
	.byte	$00
	.byte	$00
	.byte	$00
	.byte	$00
	.byte	$00
	.byte	$00
	.byte	$01
	.byte	$01
	.byte	$01
	.byte	$01
	.byte	$01
	.byte	$01
	.byte	$01
	.byte	$01
	.byte	$01
	.byte	$01
	.byte	$01
	.byte	$01
	.byte	$01
	.byte	$02
	.byte	$00
	.byte	$00
	.byte	$00
	.byte	$00
	.byte	$00
	.byte	$00
	.byte	$00
	.byte	$00
	.byte	$00
	.byte	$01
	.byte	$00
	.byte	$00
	.byte	$00
	.byte	$00
	.byte	$00
	.byte	$00
	.byte	$00
	.byte	$00
	.byte	$01
	.byte	$01
	.byte	$01
	.byte	$01
	.byte	$01
	.byte	$01
	.byte	$01
	.byte	$01
	.byte	$01
	.byte	$01
	.byte	$01
	.byte	$01
	.byte	$01
	.byte	$01
	.byte	$01
	.byte	$01
	.byte	$01
	.byte	$01
	.byte	$01
	.byte	$01
	.byte	$01
	.byte	$01
	.byte	$01
	.byte	$01
	.byte	$01
	.byte	$01
	.byte	$01
	.byte	$01
	.byte	$01
	.byte	$01
	.byte	$01
	.byte	$01
	.byte	$01
	.byte	$AA
	.byte	$AA
	.byte	$AA
	.byte	$AA
	.byte	$AA
	.byte	$AA
	.byte	$AA
	.byte	$AA
	.byte	$AA
	.byte	$AA
	.byte	$AA
	.byte	$AA
	.byte	$AA
	.byte	$AA
	.byte	$AA
	.byte	$AA
	.byte	$AA
	.byte	$AA
	.byte	$AA
	.byte	$AA
	.byte	$AA
	.byte	$AA
	.byte	$AA
	.byte	$AA
	.byte	$AA
	.byte	$AA
	.byte	$AA
	.byte	$AA
	.byte	$AA
	.byte	$AA
	.byte	$AA
	.byte	$AA
	.byte	$AA
	.byte	$AA
	.byte	$AA
	.byte	$AA
	.byte	$AA
	.byte	$AA
	.byte	$AA
	.byte	$AA
	.byte	$AA
	.byte	$AA
	.byte	$AA
	.byte	$AA
	.byte	$AA
	.byte	$AA
	.byte	$AA
	.byte	$AA
	.byte	$AA
	.byte	$AA
	.byte	$AA
	.byte	$AA
	.byte	$AA
	.byte	$AA
	.byte	$AA
	.byte	$AA
	.byte	$0A
	.byte	$0A
	.byte	$0A
	.byte	$0A
	.byte	$0A
	.byte	$0A
	.byte	$0A
	.byte	$0A
_levelFourCollision:
	.byte	$01
	.byte	$01
	.byte	$01
	.byte	$02
	.byte	$02
	.byte	$02
	.byte	$02
	.byte	$02
	.byte	$01
	.byte	$01
	.byte	$01
	.byte	$01
	.byte	$01
	.byte	$01
	.byte	$01
	.byte	$01
	.byte	$01
	.byte	$01
	.byte	$01
	.byte	$01
	.byte	$01
	.byte	$01
	.byte	$01
	.byte	$01
	.byte	$01
	.byte	$01
	.byte	$01
	.byte	$01
	.byte	$01
	.byte	$01
	.byte	$01
	.byte	$01
	.byte	$01
	.byte	$00
	.byte	$00
	.byte	$00
	.byte	$00
	.byte	$00
	.byte	$00
	.byte	$00
	.byte	$00
	.byte	$00
	.byte	$01
	.byte	$00
	.byte	$00
	.byte	$00
	.byte	$00
	.byte	$00
	.byte	$00
	.byte	$00
	.byte	$00
	.byte	$00
	.byte	$00
	.byte	$00
	.byte	$00
	.byte	$00
	.byte	$00
	.byte	$00
	.byte	$00
	.byte	$00
	.byte	$00
	.byte	$00
	.byte	$00
	.byte	$01
	.byte	$01
	.byte	$00
	.byte	$00
	.byte	$00
	.byte	$00
	.byte	$00
	.byte	$00
	.byte	$00
	.byte	$00
	.byte	$00
	.byte	$01
	.byte	$00
	.byte	$00
	.byte	$00
	.byte	$00
	.byte	$00
	.byte	$00
	.byte	$00
	.byte	$00
	.byte	$00
	.byte	$00
	.byte	$00
	.byte	$00
	.byte	$00
	.byte	$00
	.byte	$00
	.byte	$00
	.byte	$00
	.byte	$00
	.byte	$00
	.byte	$00
	.byte	$01
	.byte	$01
	.byte	$00
	.byte	$00
	.byte	$00
	.byte	$00
	.byte	$00
	.byte	$00
	.byte	$00
	.byte	$00
	.byte	$00
	.byte	$01
	.byte	$00
	.byte	$00
	.byte	$00
	.byte	$00
	.byte	$00
	.byte	$00
	.byte	$00
	.byte	$00
	.byte	$00
	.byte	$00
	.byte	$00
	.byte	$00
	.byte	$00
	.byte	$00
	.byte	$00
	.byte	$00
	.byte	$00
	.byte	$00
	.byte	$00
	.byte	$00
	.byte	$01
	.byte	$01
	.byte	$00
	.byte	$00
	.byte	$00
	.byte	$00
	.byte	$00
	.byte	$00
	.byte	$00
	.byte	$00
	.byte	$00
	.byte	$01
	.byte	$00
	.byte	$01
	.byte	$01
	.byte	$01
	.byte	$00
	.byte	$01
	.byte	$01
	.byte	$00
	.byte	$01
	.byte	$01
	.byte	$01
	.byte	$00
	.byte	$01
	.byte	$01
	.byte	$01
	.byte	$00
	.byte	$01
	.byte	$01
	.byte	$01
	.byte	$01
	.byte	$01
	.byte	$01
	.byte	$00
	.byte	$00
	.byte	$00
	.byte	$00
	.byte	$00
	.byte	$00
	.byte	$00
	.byte	$00
	.byte	$00
	.byte	$01
	.byte	$00
	.byte	$00
	.byte	$00
	.byte	$00
	.byte	$00
	.byte	$00
	.byte	$00
	.byte	$00
	.byte	$00
	.byte	$00
	.byte	$00
	.byte	$00
	.byte	$00
	.byte	$00
	.byte	$00
	.byte	$00
	.byte	$00
	.byte	$00
	.byte	$00
	.byte	$00
	.byte	$01
	.byte	$01
	.byte	$00
	.byte	$00
	.byte	$00
	.byte	$00
	.byte	$00
	.byte	$00
	.byte	$00
	.byte	$00
	.byte	$00
	.byte	$01
	.byte	$00
	.byte	$00
	.byte	$00
	.byte	$00
	.byte	$00
	.byte	$00
	.byte	$00
	.byte	$00
	.byte	$00
	.byte	$00
	.byte	$00
	.byte	$00
	.byte	$00
	.byte	$00
	.byte	$00
	.byte	$00
	.byte	$00
	.byte	$00
	.byte	$00
	.byte	$00
	.byte	$01
	.byte	$01
	.byte	$00
	.byte	$00
	.byte	$00
	.byte	$00
	.byte	$00
	.byte	$00
	.byte	$00
	.byte	$00
	.byte	$00
	.byte	$01
	.byte	$00
	.byte	$00
	.byte	$00
	.byte	$00
	.byte	$00
	.byte	$00
	.byte	$00
	.byte	$00
	.byte	$00
	.byte	$00
	.byte	$00
	.byte	$00
	.byte	$00
	.byte	$00
	.byte	$00
	.byte	$00
	.byte	$00
	.byte	$00
	.byte	$00
	.byte	$00
	.byte	$01
	.byte	$01
	.byte	$00
	.byte	$00
	.byte	$00
	.byte	$00
	.byte	$00
	.byte	$00
	.byte	$00
	.byte	$00
	.byte	$00
	.byte	$03
	.byte	$00
	.byte	$00
	.byte	$00
	.byte	$00
	.byte	$00
	.byte	$00
	.byte	$00
	.byte	$00
	.byte	$00
	.byte	$00
	.byte	$00
	.byte	$00
	.byte	$00
	.byte	$00
	.byte	$00
	.byte	$00
	.byte	$00
	.byte	$00
	.byte	$00
	.byte	$00
	.byte	$02
	.byte	$01
	.byte	$00
	.byte	$00
	.byte	$00
	.byte	$00
	.byte	$00
	.byte	$00
	.byte	$00
	.byte	$00
	.byte	$00
	.byte	$03
	.byte	$00
	.byte	$00
	.byte	$00
	.byte	$00
	.byte	$00
	.byte	$00
	.byte	$00
	.byte	$00
	.byte	$00
	.byte	$00
	.byte	$00
	.byte	$00
	.byte	$00
	.byte	$00
	.byte	$00
	.byte	$00
	.byte	$00
	.byte	$00
	.byte	$00
	.byte	$00
	.byte	$02
	.byte	$01
	.byte	$00
	.byte	$00
	.byte	$00
	.byte	$00
	.byte	$00
	.byte	$00
	.byte	$00
	.byte	$00
	.byte	$00
	.byte	$03
	.byte	$00
	.byte	$00
	.byte	$00
	.byte	$00
	.byte	$00
	.byte	$00
	.byte	$00
	.byte	$00
	.byte	$00
	.byte	$00
	.byte	$00
	.byte	$00
	.byte	$00
	.byte	$00
	.byte	$00
	.byte	$00
	.byte	$00
	.byte	$00
	.byte	$00
	.byte	$00
	.byte	$02
	.byte	$01
	.byte	$00
	.byte	$00
	.byte	$00
	.byte	$00
	.byte	$00
	.byte	$00
	.byte	$00
	.byte	$00
	.byte	$00
	.byte	$03
	.byte	$00
	.byte	$00
	.byte	$00
	.byte	$00
	.byte	$00
	.byte	$00
	.byte	$00
	.byte	$00
	.byte	$00
	.byte	$00
	.byte	$00
	.byte	$00
	.byte	$00
	.byte	$00
	.byte	$00
	.byte	$00
	.byte	$00
	.byte	$00
	.byte	$00
	.byte	$00
	.byte	$02
	.byte	$01
	.byte	$00
	.byte	$00
	.byte	$00
	.byte	$00
	.byte	$00
	.byte	$00
	.byte	$00
	.byte	$00
	.byte	$00
	.byte	$01
	.byte	$00
	.byte	$00
	.byte	$00
	.byte	$00
	.byte	$00
	.byte	$00
	.byte	$00
	.byte	$00
	.byte	$00
	.byte	$00
	.byte	$00
	.byte	$00
	.byte	$00
	.byte	$00
	.byte	$00
	.byte	$00
	.byte	$00
	.byte	$00
	.byte	$00
	.byte	$00
	.byte	$01
	.byte	$01
	.byte	$00
	.byte	$00
	.byte	$00
	.byte	$00
	.byte	$00
	.byte	$00
	.byte	$00
	.byte	$00
	.byte	$00
	.byte	$01
	.byte	$00
	.byte	$00
	.byte	$00
	.byte	$00
	.byte	$00
	.byte	$00
	.byte	$00
	.byte	$00
	.byte	$00
	.byte	$00
	.byte	$00
	.byte	$00
	.byte	$00
	.byte	$00
	.byte	$00
	.byte	$00
	.byte	$00
	.byte	$00
	.byte	$00
	.byte	$00
	.byte	$01
	.byte	$01
	.byte	$00
	.byte	$00
	.byte	$00
	.byte	$00
	.byte	$00
	.byte	$00
	.byte	$00
	.byte	$00
	.byte	$00
	.byte	$01
	.byte	$00
	.byte	$00
	.byte	$00
	.byte	$00
	.byte	$00
	.byte	$00
	.byte	$00
	.byte	$00
	.byte	$00
	.byte	$00
	.byte	$00
	.byte	$00
	.byte	$00
	.byte	$00
	.byte	$00
	.byte	$00
	.byte	$00
	.byte	$00
	.byte	$00
	.byte	$00
	.byte	$01
	.byte	$01
	.byte	$00
	.byte	$00
	.byte	$00
	.byte	$00
	.byte	$00
	.byte	$00
	.byte	$00
	.byte	$00
	.byte	$00
	.byte	$01
	.byte	$00
	.byte	$00
	.byte	$00
	.byte	$00
	.byte	$00
	.byte	$00
	.byte	$00
	.byte	$00
	.byte	$00
	.byte	$00
	.byte	$00
	.byte	$00
	.byte	$00
	.byte	$00
	.byte	$00
	.byte	$00
	.byte	$00
	.byte	$00
	.byte	$00
	.byte	$00
	.byte	$01
	.byte	$01
	.byte	$00
	.byte	$00
	.byte	$00
	.byte	$00
	.byte	$00
	.byte	$00
	.byte	$00
	.byte	$00
	.byte	$00
	.byte	$01
	.byte	$00
	.byte	$00
	.byte	$00
	.byte	$00
	.byte	$00
	.byte	$00
	.byte	$00
	.byte	$00
	.byte	$00
	.byte	$00
	.byte	$00
	.byte	$00
	.byte	$00
	.byte	$00
	.byte	$00
	.byte	$00
	.byte	$00
	.byte	$00
	.byte	$00
	.byte	$00
	.byte	$01
	.byte	$01
	.byte	$00
	.byte	$00
	.byte	$00
	.byte	$00
	.byte	$00
	.byte	$00
	.byte	$00
	.byte	$00
	.byte	$00
	.byte	$01
	.byte	$00
	.byte	$00
	.byte	$00
	.byte	$00
	.byte	$00
	.byte	$00
	.byte	$00
	.byte	$00
	.byte	$00
	.byte	$00
	.byte	$00
	.byte	$00
	.byte	$00
	.byte	$00
	.byte	$00
	.byte	$00
	.byte	$00
	.byte	$00
	.byte	$00
	.byte	$00
	.byte	$01
	.byte	$01
	.byte	$00
	.byte	$00
	.byte	$00
	.byte	$00
	.byte	$00
	.byte	$00
	.byte	$00
	.byte	$00
	.byte	$00
	.byte	$01
	.byte	$00
	.byte	$00
	.byte	$00
	.byte	$00
	.byte	$00
	.byte	$00
	.byte	$00
	.byte	$00
	.byte	$00
	.byte	$00
	.byte	$00
	.byte	$00
	.byte	$00
	.byte	$00
	.byte	$00
	.byte	$00
	.byte	$00
	.byte	$00
	.byte	$00
	.byte	$00
	.byte	$01
	.byte	$01
	.byte	$00
	.byte	$00
	.byte	$00
	.byte	$00
	.byte	$00
	.byte	$00
	.byte	$00
	.byte	$00
	.byte	$00
	.byte	$01
	.byte	$00
	.byte	$00
	.byte	$00
	.byte	$00
	.byte	$00
	.byte	$00
	.byte	$00
	.byte	$00
	.byte	$00
	.byte	$00
	.byte	$00
	.byte	$00
	.byte	$00
	.byte	$00
	.byte	$00
	.byte	$00
	.byte	$00
	.byte	$00
	.byte	$00
	.byte	$00
	.byte	$01
	.byte	$01
	.byte	$00
	.byte	$00
	.byte	$00
	.byte	$00
	.byte	$00
	.byte	$00
	.byte	$00
	.byte	$00
	.byte	$00
	.byte	$01
	.byte	$00
	.byte	$00
	.byte	$00
	.byte	$00
	.byte	$00
	.byte	$00
	.byte	$00
	.byte	$00
	.byte	$00
	.byte	$00
	.byte	$00
	.byte	$00
	.byte	$00
	.byte	$00
	.byte	$00
	.byte	$00
	.byte	$00
	.byte	$00
	.byte	$00
	.byte	$00
	.byte	$01
	.byte	$01
	.byte	$00
	.byte	$00
	.byte	$00
	.byte	$00
	.byte	$00
	.byte	$00
	.byte	$00
	.byte	$00
	.byte	$00
	.byte	$01
	.byte	$00
	.byte	$00
	.byte	$00
	.byte	$00
	.byte	$00
	.byte	$00
	.byte	$00
	.byte	$00
	.byte	$00
	.byte	$00
	.byte	$00
	.byte	$00
	.byte	$00
	.byte	$00
	.byte	$00
	.byte	$00
	.byte	$00
	.byte	$00
	.byte	$00
	.byte	$00
	.byte	$01
	.byte	$01
	.byte	$00
	.byte	$00
	.byte	$00
	.byte	$00
	.byte	$00
	.byte	$00
	.byte	$00
	.byte	$00
	.byte	$00
	.byte	$01
	.byte	$00
	.byte	$00
	.byte	$00
	.byte	$00
	.byte	$00
	.byte	$00
	.byte	$00
	.byte	$00
	.byte	$00
	.byte	$00
	.byte	$00
	.byte	$00
	.byte	$00
	.byte	$00
	.byte	$00
	.byte	$00
	.byte	$00
	.byte	$00
	.byte	$00
	.byte	$00
	.byte	$01
	.byte	$01
	.byte	$00
	.byte	$00
	.byte	$00
	.byte	$00
	.byte	$00
	.byte	$00
	.byte	$00
	.byte	$00
	.byte	$00
	.byte	$01
	.byte	$00
	.byte	$00
	.byte	$00
	.byte	$00
	.byte	$00
	.byte	$00
	.byte	$00
	.byte	$00
	.byte	$00
	.byte	$00
	.byte	$00
	.byte	$00
	.byte	$00
	.byte	$00
	.byte	$00
	.byte	$00
	.byte	$00
	.byte	$00
	.byte	$00
	.byte	$00
	.byte	$01
	.byte	$01
	.byte	$01
	.byte	$01
	.byte	$01
	.byte	$00
	.byte	$00
	.byte	$00
	.byte	$01
	.byte	$01
	.byte	$01
	.byte	$01
	.byte	$00
	.byte	$00
	.byte	$00
	.byte	$00
	.byte	$00
	.byte	$00
	.byte	$00
	.byte	$00
	.byte	$00
	.byte	$00
	.byte	$00
	.byte	$00
	.byte	$00
	.byte	$00
	.byte	$00
	.byte	$00
	.byte	$00
	.byte	$00
	.byte	$00
	.byte	$00
	.byte	$01
	.byte	$01
	.byte	$00
	.byte	$00
	.byte	$00
	.byte	$00
	.byte	$00
	.byte	$00
	.byte	$00
	.byte	$00
	.byte	$00
	.byte	$01
	.byte	$00
	.byte	$00
	.byte	$00
	.byte	$00
	.byte	$00
	.byte	$00
	.byte	$00
	.byte	$00
	.byte	$00
	.byte	$00
	.byte	$00
	.byte	$00
	.byte	$00
	.byte	$00
	.byte	$00
	.byte	$00
	.byte	$00
	.byte	$00
	.byte	$00
	.byte	$00
	.byte	$01
	.byte	$01
	.byte	$00
	.byte	$00
	.byte	$00
	.byte	$00
	.byte	$00
	.byte	$00
	.byte	$00
	.byte	$00
	.byte	$00
	.byte	$01
	.byte	$00
	.byte	$00
	.byte	$00
	.byte	$00
	.byte	$00
	.byte	$00
	.byte	$00
	.byte	$00
	.byte	$00
	.byte	$00
	.byte	$00
	.byte	$00
	.byte	$00
	.byte	$00
	.byte	$00
	.byte	$00
	.byte	$00
	.byte	$00
	.byte	$00
	.byte	$00
	.byte	$01
	.byte	$01
	.byte	$00
	.byte	$00
	.byte	$00
	.byte	$00
	.byte	$00
	.byte	$00
	.byte	$00
	.byte	$00
	.byte	$00
	.byte	$01
	.byte	$00
	.byte	$00
	.byte	$00
	.byte	$00
	.byte	$00
	.byte	$00
	.byte	$00
	.byte	$00
	.byte	$00
	.byte	$00
	.byte	$00
	.byte	$00
	.byte	$00
	.byte	$00
	.byte	$00
	.byte	$00
	.byte	$00
	.byte	$00
	.byte	$00
	.byte	$00
	.byte	$01
	.byte	$01
	.byte	$00
	.byte	$00
	.byte	$00
	.byte	$00
	.byte	$00
	.byte	$00
	.byte	$00
	.byte	$00
	.byte	$00
	.byte	$01
	.byte	$00
	.byte	$00
	.byte	$00
	.byte	$00
	.byte	$00
	.byte	$00
	.byte	$00
	.byte	$00
	.byte	$00
	.byte	$00
	.byte	$00
	.byte	$00
	.byte	$00
	.byte	$00
	.byte	$00
	.byte	$00
	.byte	$00
	.byte	$00
	.byte	$00
	.byte	$00
	.byte	$01
	.byte	$01
	.byte	$01
	.byte	$01
	.byte	$01
	.byte	$02
	.byte	$02
	.byte	$02
	.byte	$01
	.byte	$01
	.byte	$01
	.byte	$01
	.byte	$01
	.byte	$01
	.byte	$01
	.byte	$01
	.byte	$01
	.byte	$01
	.byte	$01
	.byte	$01
	.byte	$01
	.byte	$01
	.byte	$01
	.byte	$01
	.byte	$01
	.byte	$01
	.byte	$01
	.byte	$01
	.byte	$01
	.byte	$01
	.byte	$01
	.byte	$01
	.byte	$01
	.byte	$01
	.byte	$01
	.byte	$01
	.byte	$01
	.byte	$01
	.byte	$01
	.byte	$01
	.byte	$01
	.byte	$01
	.byte	$00
	.byte	$01
	.byte	$01
	.byte	$01
	.byte	$01
	.byte	$01
	.byte	$01
	.byte	$01
	.byte	$00
	.byte	$01
	.byte	$01
	.byte	$01
	.byte	$01
	.byte	$01
	.byte	$01
	.byte	$01
	.byte	$00
	.byte	$01
	.byte	$00
	.byte	$00
	.byte	$00
	.byte	$00
	.byte	$01
	.byte	$01
	.byte	$00
	.byte	$01
	.byte	$00
	.byte	$00
	.byte	$00
	.byte	$00
	.byte	$01
	.byte	$01
	.byte	$00
	.byte	$01
	.byte	$00
	.byte	$00
	.byte	$00
	.byte	$00
	.byte	$01
	.byte	$01
	.byte	$01
	.byte	$01
	.byte	$00
	.byte	$00
	.byte	$00
	.byte	$00
	.byte	$01
	.byte	$01
	.byte	$01
	.byte	$01
	.byte	$01
	.byte	$01
	.byte	$01
	.byte	$01
	.byte	$01
_menu:
	.byte	$00
	.byte	$00
	.byte	$00
	.byte	$00
	.byte	$00
	.byte	$00
	.byte	$00
	.byte	$00
	.byte	$00
	.byte	$00
	.byte	$00
	.byte	$00
	.byte	$00
	.byte	$00
	.byte	$00
	.byte	$00
	.byte	$00
	.byte	$00
	.byte	$00
	.byte	$00
	.byte	$00
	.byte	$00
	.byte	$00
	.byte	$00
	.byte	$00
	.byte	$00
	.byte	$00
	.byte	$00
	.byte	$00
	.byte	$00
	.byte	$00
	.byte	$00
	.byte	$00
	.byte	$00
	.byte	$00
	.byte	$F0
	.byte	$F1
	.byte	$F1
	.byte	$F1
	.byte	$F1
	.byte	$F1
	.byte	$F1
	.byte	$F1
	.byte	$F1
	.byte	$F1
	.byte	$F1
	.byte	$F1
	.byte	$F1
	.byte	$F1
	.byte	$F1
	.byte	$F1
	.byte	$F1
	.byte	$F1
	.byte	$F1
	.byte	$F1
	.byte	$F1
	.byte	$F1
	.byte	$F1
	.byte	$F1
	.byte	$00
	.byte	$00
	.byte	$00
	.byte	$00
	.byte	$00
	.byte	$00
	.byte	$00
	.byte	$00
	.byte	$F1
	.byte	$F1
	.byte	$F1
	.byte	$F1
	.byte	$F1
	.byte	$F1
	.byte	$F1
	.byte	$F1
	.byte	$F1
	.byte	$F1
	.byte	$F1
	.byte	$F1
	.byte	$F1
	.byte	$F1
	.byte	$F1
	.byte	$F1
	.byte	$F1
	.byte	$F1
	.byte	$F1
	.byte	$F1
	.byte	$F1
	.byte	$F1
	.byte	$F1
	.byte	$F1
	.byte	$F1
	.byte	$00
	.byte	$00
	.byte	$00
	.byte	$00
	.byte	$00
	.byte	$00
	.byte	$F2
	.byte	$F2
	.byte	$F2
	.byte	$F2
	.byte	$00
	.byte	$00
	.byte	$00
	.byte	$00
	.byte	$00
	.byte	$00
	.byte	$00
	.byte	$00
	.byte	$00
	.byte	$00
	.byte	$00
	.byte	$00
	.byte	$F2
	.byte	$F3
	.byte	$00
	.byte	$F0
	.byte	$00
	.byte	$00
	.byte	$00
	.byte	$00
	.byte	$F1
	.byte	$F1
	.byte	$F2
	.byte	$F3
	.byte	$00
	.byte	$00
	.byte	$00
	.byte	$F2
	.byte	$F3
	.byte	$F3
	.byte	$F3
	.byte	$F3
	.byte	$F3
	.byte	$00
	.byte	$00
	.byte	$00
	.byte	$00
	.byte	$00
	.byte	$00
	.byte	$00
	.byte	$00
	.byte	$00
	.byte	$00
	.byte	$00
	.byte	$F2
	.byte	$F3
	.byte	$00
	.byte	$00
	.byte	$00
	.byte	$00
	.byte	$00
	.byte	$00
	.byte	$00
	.byte	$F1
	.byte	$F2
	.byte	$F3
	.byte	$00
	.byte	$00
	.byte	$00
	.byte	$F2
	.byte	$F3
	.byte	$F2
	.byte	$F2
	.byte	$F3
	.byte	$F3
	.byte	$00
	.byte	$00
	.byte	$00
	.byte	$00
	.byte	$00
	.byte	$00
	.byte	$00
	.byte	$00
	.byte	$00
	.byte	$00
	.byte	$F2
	.byte	$F3
	.byte	$F3
	.byte	$F3
	.byte	$00
	.byte	$00
	.byte	$00
	.byte	$00
	.byte	$00
	.byte	$00
	.byte	$F1
	.byte	$F2
	.byte	$F3
	.byte	$00
	.byte	$00
	.byte	$00
	.byte	$F2
	.byte	$F3
	.byte	$F3
	.byte	$F3
	.byte	$F3
	.byte	$F3
	.byte	$F0
	.byte	$F0
	.byte	$00
	.byte	$00
	.byte	$00
	.byte	$00
	.byte	$00
	.byte	$00
	.byte	$00
	.byte	$00
	.byte	$F2
	.byte	$F3
	.byte	$F3
	.byte	$F3
	.byte	$00
	.byte	$F2
	.byte	$F2
	.byte	$F2
	.byte	$00
	.byte	$00
	.byte	$F1
	.byte	$F2
	.byte	$F3
	.byte	$00
	.byte	$00
	.byte	$00
	.byte	$F2
	.byte	$F3
	.byte	$F3
	.byte	$F3
	.byte	$F3
	.byte	$00
	.byte	$F2
	.byte	$F2
	.byte	$F2
	.byte	$F0
	.byte	$00
	.byte	$F2
	.byte	$F2
	.byte	$00
	.byte	$F2
	.byte	$F2
	.byte	$00
	.byte	$F2
	.byte	$F3
	.byte	$00
	.byte	$F2
	.byte	$F3
	.byte	$F3
	.byte	$F3
	.byte	$F3
	.byte	$00
	.byte	$F1
	.byte	$F2
	.byte	$F3
	.byte	$00
	.byte	$00
	.byte	$00
	.byte	$F2
	.byte	$F3
	.byte	$F3
	.byte	$F1
	.byte	$00
	.byte	$F2
	.byte	$F3
	.byte	$F3
	.byte	$F3
	.byte	$F3
	.byte	$00
	.byte	$F2
	.byte	$F3
	.byte	$F2
	.byte	$F3
	.byte	$F3
	.byte	$00
	.byte	$F2
	.byte	$F3
	.byte	$00
	.byte	$F2
	.byte	$F3
	.byte	$F2
	.byte	$F3
	.byte	$F3
	.byte	$00
	.byte	$F1
	.byte	$F2
	.byte	$F3
	.byte	$00
	.byte	$00
	.byte	$00
	.byte	$F2
	.byte	$F3
	.byte	$F3
	.byte	$F1
	.byte	$00
	.byte	$F2
	.byte	$F3
	.byte	$F2
	.byte	$F3
	.byte	$F3
	.byte	$00
	.byte	$F2
	.byte	$F3
	.byte	$F3
	.byte	$00
	.byte	$00
	.byte	$00
	.byte	$F2
	.byte	$F3
	.byte	$00
	.byte	$F2
	.byte	$F3
	.byte	$F2
	.byte	$F3
	.byte	$F3
	.byte	$00
	.byte	$F1
	.byte	$F2
	.byte	$F3
	.byte	$00
	.byte	$00
	.byte	$00
	.byte	$F2
	.byte	$F3
	.byte	$F3
	.byte	$F1
	.byte	$00
	.byte	$F2
	.byte	$F3
	.byte	$F3
	.byte	$F3
	.byte	$F3
	.byte	$00
	.byte	$F2
	.byte	$F3
	.byte	$00
	.byte	$00
	.byte	$00
	.byte	$00
	.byte	$F2
	.byte	$F3
	.byte	$00
	.byte	$F2
	.byte	$F3
	.byte	$F3
	.byte	$F3
	.byte	$F3
	.byte	$F3
	.byte	$F1
	.byte	$F2
	.byte	$F3
	.byte	$F3
	.byte	$00
	.byte	$00
	.byte	$F2
	.byte	$F3
	.byte	$F3
	.byte	$F1
	.byte	$00
	.byte	$00
	.byte	$F3
	.byte	$F3
	.byte	$F3
	.byte	$00
	.byte	$00
	.byte	$F2
	.byte	$F3
	.byte	$00
	.byte	$00
	.byte	$00
	.byte	$00
	.byte	$F2
	.byte	$F3
	.byte	$00
	.byte	$00
	.byte	$F2
	.byte	$F3
	.byte	$F3
	.byte	$00
	.byte	$F3
	.byte	$F1
	.byte	$F2
	.byte	$F2
	.byte	$F2
	.byte	$00
	.byte	$00
	.byte	$00
	.byte	$00
	.byte	$F1
	.byte	$F1
	.byte	$00
	.byte	$00
	.byte	$00
	.byte	$00
	.byte	$00
	.byte	$00
	.byte	$00
	.byte	$00
	.byte	$00
	.byte	$00
	.byte	$00
	.byte	$00
	.byte	$00
	.byte	$00
	.byte	$00
	.byte	$00
	.byte	$00
	.byte	$00
	.byte	$00
	.byte	$00
	.byte	$00
	.byte	$00
	.byte	$F1
	.byte	$F1
	.byte	$00
	.byte	$00
	.byte	$00
	.byte	$00
	.byte	$00
	.byte	$00
	.byte	$F1
	.byte	$F1
	.byte	$00
	.byte	$00
	.byte	$00
	.byte	$00
	.byte	$00
	.byte	$00
	.byte	$00
	.byte	$00
	.byte	$00
	.byte	$00
	.byte	$00
	.byte	$00
	.byte	$00
	.byte	$00
	.byte	$00
	.byte	$00
	.byte	$00
	.byte	$00
	.byte	$00
	.byte	$00
	.byte	$00
	.byte	$00
	.byte	$F1
	.byte	$F1
	.byte	$00
	.byte	$00
	.byte	$00
	.byte	$00
	.byte	$00
	.byte	$00
	.byte	$F1
	.byte	$F1
	.byte	$00
	.byte	$00
	.byte	$00
	.byte	$00
	.byte	$00
	.byte	$00
	.byte	$00
	.byte	$00
	.byte	$00
	.byte	$00
	.byte	$00
	.byte	$00
	.byte	$00
	.byte	$00
	.byte	$00
	.byte	$00
	.byte	$00
	.byte	$00
	.byte	$00
	.byte	$00
	.byte	$00
	.byte	$00
	.byte	$F1
	.byte	$F1
	.byte	$00
	.byte	$00
	.byte	$00
	.byte	$00
	.byte	$00
	.byte	$00
	.byte	$F1
	.byte	$F1
	.byte	$00
	.byte	$00
	.byte	$00
	.byte	$00
	.byte	$00
	.byte	$00
	.byte	$00
	.byte	$00
	.byte	$00
	.byte	$00
	.byte	$00
	.byte	$00
	.byte	$00
	.byte	$00
	.byte	$00
	.byte	$00
	.byte	$00
	.byte	$00
	.byte	$00
	.byte	$00
	.byte	$00
	.byte	$00
	.byte	$F1
	.byte	$F1
	.byte	$00
	.byte	$00
	.byte	$00
	.byte	$00
	.byte	$00
	.byte	$00
	.byte	$F3
	.byte	$F3
	.byte	$00
	.byte	$00
	.byte	$00
	.byte	$00
	.byte	$00
	.byte	$00
	.byte	$00
	.byte	$00
	.byte	$00
	.byte	$00
	.byte	$00
	.byte	$00
	.byte	$00
	.byte	$00
	.byte	$00
	.byte	$00
	.byte	$00
	.byte	$00
	.byte	$00
	.byte	$00
	.byte	$00
	.byte	$00
	.byte	$F3
	.byte	$F3
	.byte	$00
	.byte	$00
	.byte	$00
	.byte	$00
	.byte	$00
	.byte	$00
	.byte	$F3
	.byte	$F3
	.byte	$00
	.byte	$00
	.byte	$00
	.byte	$00
	.byte	$00
	.byte	$50
	.byte	$52
	.byte	$45
	.byte	$53
	.byte	$53
	.byte	$00
	.byte	$53
	.byte	$54
	.byte	$41
	.byte	$52
	.byte	$54
	.byte	$21
	.byte	$00
	.byte	$00
	.byte	$00
	.byte	$00
	.byte	$00
	.byte	$F3
	.byte	$F3
	.byte	$00
	.byte	$00
	.byte	$00
	.byte	$00
	.byte	$00
	.byte	$00
	.byte	$F3
	.byte	$F3
	.byte	$00
	.byte	$00
	.byte	$00
	.byte	$00
	.byte	$00
	.byte	$00
	.byte	$00
	.byte	$00
	.byte	$00
	.byte	$00
	.byte	$00
	.byte	$00
	.byte	$00
	.byte	$00
	.byte	$00
	.byte	$00
	.byte	$00
	.byte	$00
	.byte	$00
	.byte	$00
	.byte	$00
	.byte	$00
	.byte	$F3
	.byte	$F3
	.byte	$00
	.byte	$00
	.byte	$00
	.byte	$00
	.byte	$00
	.byte	$00
	.byte	$F3
	.byte	$F3
	.byte	$00
	.byte	$00
	.byte	$00
	.byte	$00
	.byte	$00
	.byte	$00
	.byte	$00
	.byte	$00
	.byte	$00
	.byte	$00
	.byte	$00
	.byte	$00
	.byte	$00
	.byte	$00
	.byte	$00
	.byte	$00
	.byte	$00
	.byte	$00
	.byte	$00
	.byte	$00
	.byte	$00
	.byte	$00
	.byte	$F3
	.byte	$F3
	.byte	$00
	.byte	$00
	.byte	$00
	.byte	$00
	.byte	$00
	.byte	$00
	.byte	$F3
	.byte	$F3
	.byte	$00
	.byte	$00
	.byte	$00
	.byte	$00
	.byte	$00
	.byte	$00
	.byte	$00
	.byte	$00
	.byte	$00
	.byte	$00
	.byte	$00
	.byte	$00
	.byte	$00
	.byte	$00
	.byte	$00
	.byte	$00
	.byte	$00
	.byte	$00
	.byte	$00
	.byte	$00
	.byte	$00
	.byte	$00
	.byte	$F3
	.byte	$F3
	.byte	$00
	.byte	$00
	.byte	$00
	.byte	$00
	.byte	$00
	.byte	$00
	.byte	$F3
	.byte	$F3
	.byte	$00
	.byte	$00
	.byte	$00
	.byte	$00
	.byte	$00
	.byte	$00
	.byte	$00
	.byte	$00
	.byte	$00
	.byte	$00
	.byte	$00
	.byte	$00
	.byte	$00
	.byte	$00
	.byte	$00
	.byte	$00
	.byte	$00
	.byte	$00
	.byte	$00
	.byte	$00
	.byte	$00
	.byte	$00
	.byte	$F3
	.byte	$F3
	.byte	$00
	.byte	$00
	.byte	$00
	.byte	$00
	.byte	$00
	.byte	$00
	.byte	$F3
	.byte	$F3
	.byte	$00
	.byte	$00
	.byte	$00
	.byte	$00
	.byte	$00
	.byte	$00
	.byte	$00
	.byte	$00
	.byte	$00
	.byte	$00
	.byte	$00
	.byte	$00
	.byte	$00
	.byte	$00
	.byte	$00
	.byte	$00
	.byte	$00
	.byte	$00
	.byte	$00
	.byte	$00
	.byte	$00
	.byte	$00
	.byte	$F3
	.byte	$F3
	.byte	$00
	.byte	$00
	.byte	$00
	.byte	$00
	.byte	$00
	.byte	$00
	.byte	$F3
	.byte	$F3
	.byte	$00
	.byte	$00
	.byte	$00
	.byte	$00
	.byte	$00
	.byte	$00
	.byte	$00
	.byte	$00
	.byte	$00
	.byte	$00
	.byte	$00
	.byte	$00
	.byte	$00
	.byte	$00
	.byte	$00
	.byte	$00
	.byte	$00
	.byte	$00
	.byte	$00
	.byte	$00
	.byte	$00
	.byte	$00
	.byte	$F3
	.byte	$F3
	.byte	$00
	.byte	$00
	.byte	$00
	.byte	$00
	.byte	$00
	.byte	$00
	.byte	$F3
	.byte	$F3
	.byte	$00
	.byte	$00
	.byte	$00
	.byte	$00
	.byte	$00
	.byte	$00
	.byte	$00
	.byte	$00
	.byte	$00
	.byte	$00
	.byte	$00
	.byte	$00
	.byte	$00
	.byte	$00
	.byte	$00
	.byte	$00
	.byte	$00
	.byte	$00
	.byte	$00
	.byte	$00
	.byte	$00
	.byte	$00
	.byte	$F3
	.byte	$F3
	.byte	$00
	.byte	$00
	.byte	$00
	.byte	$00
	.byte	$00
	.byte	$00
	.byte	$F3
	.byte	$F3
	.byte	$00
	.byte	$00
	.byte	$00
	.byte	$00
	.byte	$00
	.byte	$00
	.byte	$00
	.byte	$00
	.byte	$00
	.byte	$00
	.byte	$00
	.byte	$00
	.byte	$00
	.byte	$00
	.byte	$00
	.byte	$00
	.byte	$00
	.byte	$00
	.byte	$00
	.byte	$00
	.byte	$00
	.byte	$00
	.byte	$F3
	.byte	$F3
	.byte	$00
	.byte	$00
	.byte	$00
	.byte	$00
	.byte	$00
	.byte	$00
	.byte	$F3
	.byte	$F3
	.byte	$00
	.byte	$00
	.byte	$00
	.byte	$00
	.byte	$40
	.byte	$43
	.byte	$61
	.byte	$69
	.byte	$6E
	.byte	$65
	.byte	$74
	.byte	$69
	.byte	$6E
	.byte	$79
	.byte	$61
	.byte	$72
	.byte	$6D
	.byte	$73
	.byte	$00
	.byte	$00
	.byte	$00
	.byte	$00
	.byte	$F3
	.byte	$F3
	.byte	$00
	.byte	$00
	.byte	$00
	.byte	$00
	.byte	$00
	.byte	$00
	.byte	$00
	.byte	$F3
	.byte	$F3
	.byte	$00
	.byte	$00
	.byte	$00
	.byte	$00
	.byte	$00
	.byte	$00
	.byte	$00
	.byte	$00
	.byte	$00
	.byte	$00
	.byte	$00
	.byte	$00
	.byte	$00
	.byte	$00
	.byte	$00
	.byte	$00
	.byte	$00
	.byte	$00
	.byte	$00
	.byte	$00
	.byte	$F3
	.byte	$F3
	.byte	$00
	.byte	$00
	.byte	$00
	.byte	$00
	.byte	$00
	.byte	$00
	.byte	$00
	.byte	$00
	.byte	$F3
	.byte	$F3
	.byte	$F3
	.byte	$F3
	.byte	$F3
	.byte	$F3
	.byte	$F3
	.byte	$F3
	.byte	$F3
	.byte	$F3
	.byte	$F3
	.byte	$F3
	.byte	$F3
	.byte	$F3
	.byte	$F3
	.byte	$F3
	.byte	$F3
	.byte	$F3
	.byte	$F3
	.byte	$F3
	.byte	$F3
	.byte	$F3
	.byte	$F3
	.byte	$F3
	.byte	$00
	.byte	$00
	.byte	$00
	.byte	$00
	.byte	$00
	.byte	$00
	.byte	$00
	.byte	$00
	.byte	$00
	.byte	$00
	.byte	$F3
	.byte	$F3
	.byte	$F3
	.byte	$F3
	.byte	$F3
	.byte	$F3
	.byte	$F3
	.byte	$F3
	.byte	$F3
	.byte	$F3
	.byte	$F3
	.byte	$F3
	.byte	$F3
	.byte	$F3
	.byte	$F3
	.byte	$F3
	.byte	$F3
	.byte	$F3
	.byte	$F3
	.byte	$F3
	.byte	$00
	.byte	$00
	.byte	$00
	.byte	$00
	.byte	$00
	.byte	$00
	.byte	$00
	.byte	$00
	.byte	$00
	.byte	$00
	.byte	$00
	.byte	$00
	.byte	$00
	.byte	$00
	.byte	$00
	.byte	$00
	.byte	$00
	.byte	$00
	.byte	$00
	.byte	$00
	.byte	$00
	.byte	$00
	.byte	$00
	.byte	$00
	.byte	$00
	.byte	$00
	.byte	$00
	.byte	$00
	.byte	$00
	.byte	$00
	.byte	$00
	.byte	$00
	.byte	$00
	.byte	$00
	.byte	$00
	.byte	$00
	.byte	$00
	.byte	$00
	.byte	$44
	.byte	$11
	.byte	$00
	.byte	$00
	.byte	$00
	.byte	$00
	.byte	$44
	.byte	$11
	.byte	$44
	.byte	$11
	.byte	$00
	.byte	$00
	.byte	$00
	.byte	$00
	.byte	$44
	.byte	$11
	.byte	$44
	.byte	$11
	.byte	$00
	.byte	$00
	.byte	$00
	.byte	$00
	.byte	$44
	.byte	$11
	.byte	$00
	.byte	$05
	.byte	$05
	.byte	$05
	.byte	$05
	.byte	$05
	.byte	$05
	.byte	$00

.segment	"BSS"

.segment	"ZEROPAGE"
_pad1:
	.res	1,$00
_orangePortalCollision:
	.res	1,$00
_bluePortalCollision:
	.res	1,$00
_doorCollision:
	.res	1,$00
_currentLevel:
	.res	1,$00
_gameState:
	.res	1,$00

; ---------------------------------------------------------------
; void __near__ modeToggle (void)
; ---------------------------------------------------------------

.segment	"CODE"

.proc	_modeToggle: near

.segment	"CODE"

;
; unsigned char newSelect = (pad1 & PAD_SELECT); // Sets the new select value.
;
	lda     _pad1
	and     #$20
	jsr     pusha
;
; if (newSelect && !oldSelect) // If the value changed from not pressed to pressed.
;
	ldy     #$00
	lda     (sp),y
	beq     L000A
	lda     M0001
	bne     L000A
;
; mode = !mode; // Flip the mode value.
;
	lda     _mode
	jsr     bnega
	sta     _mode
;
; oldSelect = newSelect; 
;
L000A:	lda     (sp),y
	sta     M0001
;
; }
;
	jmp     incsp1

.segment	"DATA"

M0001:
	.byte	$00

.endproc

; ---------------------------------------------------------------
; void __near__ walkMode (void)
; ---------------------------------------------------------------

.segment	"CODE"

.proc	_walkMode: near

.segment	"CODE"

;
; if (pad1 & PAD_LEFT) // If Left on the DPAD is pressed.
;
	lda     _pad1
	and     #$02
	beq     L0007
;
; playerSpriteData.X--; // Move the player to the left.
;
	dec     _playerSpriteData
;
; if (playerWallCollision(&playerSpriteData)) // If the player is now colliding with a wall.
;
	lda     #<(_playerSpriteData)
	ldx     #>(_playerSpriteData)
	jsr     _playerWallCollision
	tax
	beq     L0006
;
; playerSpriteData.X++; // Move the player to the right, so they're not in the wall anymore.
;
	inc     _playerSpriteData
;
; else if (pad1 & PAD_RIGHT) // If Right on the DPAD is pressed.
;
	rts
L0007:	lda     _pad1
	and     #$01
	beq     L0006
;
; playerSpriteData.X++; // Move the player to the right.
;
	inc     _playerSpriteData
;
; if (playerWallCollision(&playerSpriteData)) // If the player is now colliding with a wall.
;
	lda     #<(_playerSpriteData)
	ldx     #>(_playerSpriteData)
	jsr     _playerWallCollision
	tax
	beq     L0006
;
; playerSpriteData.X--; // Move the player to the left, so they're not in the wall anymore.
;
	dec     _playerSpriteData
;
; }
;
L0006:	rts

.endproc

; ---------------------------------------------------------------
; void __near__ shootMode (void)
; ---------------------------------------------------------------

.segment	"CODE"

.proc	_shootMode: near

.segment	"CODE"

;
; signed char newDirectionX = 0; // Resets the X aiming direction.
;
	lda     #$00
	jsr     pusha
;
; signed char newDirectionY = 0; // Resets the Y aiming direction.
;
	jsr     pusha
;
; if(pad1 & PAD_UP) // If Up on the DPAD is pressed.
;
	lda     _pad1
	and     #$08
	beq     L0019
;
; newDirectionY = -1; // Set the new Y aiming direction to -1, to signify up.
;
	lda     #$FF
;
; else if(pad1 & PAD_DOWN) // If Down on the DPAD is pressed.  
;
	jmp     L001E
L0019:	lda     _pad1
	and     #$04
	beq     L001A
;
; newDirectionY = 1; // Set the new Y aiming direction to 1, to signify down.
;
	lda     #$01
L001E:	ldy     #$00
	sta     (sp),y
;
; if(pad1 & PAD_LEFT) // If Left on the DPAD is pressed.
;
L001A:	lda     _pad1
	and     #$02
	beq     L001B
;
; newDirectionX = -1; // Set the new X aiming direction to -1, to signify left.
;
	lda     #$FF
;
; else if(pad1 & PAD_RIGHT) // If Right on the DPAD is pressed.
;
	jmp     L001F
L001B:	lda     _pad1
	and     #$01
	beq     L0007
;
; newDirectionX = 1; // Set the new X aiming direction to 1, to signify right.
;
	lda     #$01
L001F:	ldy     #$01
	sta     (sp),y
;
; if(newDirectionX != 0 || newDirectionY != 0) // If the player has aimed somewhere.
;
L0007:	ldy     #$01
	lda     (sp),y
	bne     L0020
	dey
	lda     (sp),y
	beq     L0008
;
; aimDirectionX = newDirectionX; // Set the global X aiming direction to the new X aiming direction.
;
	iny
L0020:	lda     (sp),y
	sta     _aimDirectionX
;
; aimDirectionY = newDirectionY; // Set the global Y aiming direction to the new Y aiming direction.
;
	dey
	lda     (sp),y
	sta     _aimDirectionY
;
; if(!orangeBulletActive && (pad1 & PAD_A)) // If there is not a orange bullet, and A is pressed.
;
L0008:	lda     _orangeBulletActive
	bne     L000F
	lda     _pad1
	and     #$80
	beq     L000F
;
; spawnOrangeBullet(); // Spawn an orange bullet.
;
	jsr     _spawnOrangeBullet
;
; if(!blueBulletActive && (pad1 & PAD_B)) // If there is not a blue bullet, and B is pressed.
;
L000F:	lda     _blueBulletActive
	bne     L0013
	lda     _pad1
	and     #$40
	beq     L0013
;
; spawnBlueBullet(); // Spawn a blue bullet.
;
	jsr     _spawnBlueBullet
;
; }
;
L0013:	jmp     incsp2

.endproc

; ---------------------------------------------------------------
; void __near__ portalPlayerCollision (void)
; ---------------------------------------------------------------

.segment	"CODE"

.proc	_portalPlayerCollision: near

.segment	"CODE"

;
; orangePortalCollision = check_collision(&playerSpriteData, &orangePortalSpriteData); // Checks if the player is colliding with the orange portal.
;
	lda     #<(_playerSpriteData)
	ldx     #>(_playerSpriteData)
	jsr     pushax
	lda     #<(_orangePortalSpriteData)
	ldx     #>(_orangePortalSpriteData)
	jsr     _check_collision
	sta     _orangePortalCollision
;
; bluePortalCollision   = check_collision(&playerSpriteData, &bluePortalSpriteData);   // Checks if the player is colliding with the blue portal.
;
	lda     #<(_playerSpriteData)
	ldx     #>(_playerSpriteData)
	jsr     pushax
	lda     #<(_bluePortalSpriteData)
	ldx     #>(_bluePortalSpriteData)
	jsr     _check_collision
	sta     _bluePortalCollision
;
; if(!bluePortalActive || !orangePortalActive) // If both portals aren't active, don't do anything.
;
	lda     _bluePortalActive
	beq     L0003
	lda     _orangePortalActive
	bne     L0002
;
; return;
;
L0003:	rts
;
; if(orangePortalCollision && lastPortalUsed != 1) // If the player is touching the orange portal, and hasn't just teleported into it. 
;
L0002:	lda     _orangePortalCollision
	beq     L0005
	lda     _lastPortalUsed
	cmp     #$01
	beq     L0005
;
; playerSpriteData.X = bluePortalSpriteData.X; // Set the player X data to the blue portal X data.
;
	lda     _bluePortalSpriteData
	sta     _playerSpriteData
;
; playerSpriteData.Y = bluePortalSpriteData.Y; // Set the player Y data to the blue portal Y data.
;
	lda     _bluePortalSpriteData+1
	sta     _playerSpriteData+1
;
; lastPortalUsed = 2;  // Set the last used portal to 2, meaning they have just arrived at the blue portal.
;
	lda     #$02
	sta     _lastPortalUsed
;
; if(playerWallCollision(&playerSpriteData)) // If the user is now stuck in a wall after teleporting.
;
	lda     #<(_playerSpriteData)
	ldx     #>(_playerSpriteData)
	jsr     _playerWallCollision
	tax
	bne     L0032
;
; }
;
	rts
;
; switch(bluePortalOrientation) // Change based on what orientation the portal was shot from.
;
L0032:	lda     _bluePortalOrientation
;
; }
;
	beq     L0024
	cmp     #$01
	beq     L0025
	cmp     #$02
	beq     L0026
	cmp     #$03
	beq     L0027
	rts
;
; playerSpriteData.Y += 8; // Move the player down.
;
L0024:	lda     #$08
	clc
	adc     _playerSpriteData+1
	sta     _playerSpriteData+1
;
; break;
;
	rts
;
; playerSpriteData.X -= 8; // Move the player left.
;
L0025:	lda     _playerSpriteData
	sec
	sbc     #$08
	sta     _playerSpriteData
;
; break;
;
	rts
;
; playerSpriteData.Y -= 8; // Move the player up.
;
L0026:	lda     _playerSpriteData+1
	sec
	sbc     #$08
	sta     _playerSpriteData+1
;
; break;
;
	rts
;
; playerSpriteData.X += 8; // Move the player right.
;
L0027:	lda     #$08
	clc
	adc     _playerSpriteData
	sta     _playerSpriteData
;
; break;
;
	rts
;
; else if(bluePortalCollision && lastPortalUsed != 2) // If the player is touching the blue portal, and hasn't just teleported into it.
;
L0005:	lda     _bluePortalCollision
	beq     L0011
	lda     _lastPortalUsed
	cmp     #$02
	beq     L0011
;
; playerSpriteData.X = orangePortalSpriteData.X; // Sets the player X data to the orange X data.
;
	lda     _orangePortalSpriteData
	sta     _playerSpriteData
;
; playerSpriteData.Y = orangePortalSpriteData.Y; // Sets the player Y data to the orange Y data.
;
	lda     _orangePortalSpriteData+1
	sta     _playerSpriteData+1
;
; lastPortalUsed = 1;  // Sets the last portal used to 1, meaning they have just arrived at the orange portal.
;
	lda     #$01
	sta     _lastPortalUsed
;
; if(playerWallCollision(&playerSpriteData)) // If the user is now stuck in a wall after teleporting.
;
	lda     #<(_playerSpriteData)
	ldx     #>(_playerSpriteData)
	jsr     _playerWallCollision
	tax
	beq     L001D
;
; switch(orangePortalOrientation) // Change based on what orientation the portal was shot from.
;
	lda     _orangePortalOrientation
;
; }
;
	beq     L002B
	cmp     #$01
	beq     L002C
	cmp     #$02
	beq     L002D
	cmp     #$03
	beq     L002E
	rts
;
; playerSpriteData.Y += 8; // Move the player down.
;
L002B:	lda     #$08
	clc
	adc     _playerSpriteData+1
	sta     _playerSpriteData+1
;
; break;
;
	rts
;
; playerSpriteData.X -= 8; // Move the player left.
;
L002C:	lda     _playerSpriteData
	sec
	sbc     #$08
	sta     _playerSpriteData
;
; break;
;
	rts
;
; playerSpriteData.Y -= 8; // Move the player up.
;
L002D:	lda     _playerSpriteData+1
	sec
	sbc     #$08
	sta     _playerSpriteData+1
;
; break;
;
	rts
;
; playerSpriteData.X += 8; // Move the player right.
;
L002E:	lda     #$08
	clc
	adc     _playerSpriteData
	sta     _playerSpriteData
;
; break;
;
	rts
;
; if(!orangePortalCollision && !bluePortalCollision) // If the player is not touching any portal.
;
L0011:	lda     _orangePortalCollision
	bne     L002F
	lda     _bluePortalCollision
	beq     L0031
L002F:	rts
;
; lastPortalUsed = 0; // Set the last portal used to 0, meaning the player can now use any portal.
;
L0031:	sta     _lastPortalUsed
;
; }
;
L001D:	rts

.endproc

; ---------------------------------------------------------------
; unsigned char __near__ wallDetection (unsigned char x, unsigned char y)
; ---------------------------------------------------------------

.segment	"CODE"

.proc	_wallDetection: near

.segment	"CODE"

;
; {
;
	jsr     pusha
;
; if(x >= 32 || y >= 30) // Checks if the tile is out of the screen area
;
	ldy     #$01
	lda     (sp),y
	cmp     #$20
	bcs     L000F
	dey
	lda     (sp),y
	cmp     #$1E
	bcs     L000F
	ldx     #$00
	jmp     L0010
;
; return 1; // Return a 1 to say the player is hitting a wall.
;
L000F:	ldx     #$00
	lda     #$01
	jmp     incsp2
;
; switch(currentLevel) // Changes based on the current level.
;
L0010:	lda     _currentLevel
;
; }
;
	beq     L0012
	cmp     #$01
	beq     L0014
	cmp     #$02
	beq     L0016
	cmp     #$03
	beq     L0018
	jmp     incsp2
;
; return levelOneCollision[y * 32 + x];
;
L0012:	lda     (sp),y
	jsr     shlax4
	stx     tmp1
	asl     a
	rol     tmp1
	sta     ptr1
	iny
	lda     (sp),y
	clc
	adc     ptr1
	ldx     tmp1
	bcc     L000B
	inx
L000B:	sta     ptr1
	txa
	clc
	adc     #>(_levelOneCollision)
	sta     ptr1+1
	ldy     #<(_levelOneCollision)
	jmp     L001A
;
; return levelTwoCollision[y * 32 + x];
;
L0014:	lda     (sp),y
	jsr     shlax4
	stx     tmp1
	asl     a
	rol     tmp1
	sta     ptr1
	iny
	lda     (sp),y
	clc
	adc     ptr1
	ldx     tmp1
	bcc     L000C
	inx
L000C:	sta     ptr1
	txa
	clc
	adc     #>(_levelTwoCollision)
	sta     ptr1+1
	ldy     #<(_levelTwoCollision)
	jmp     L001A
;
; return levelThreeCollision[y * 32 + x];
;
L0016:	lda     (sp),y
	jsr     shlax4
	stx     tmp1
	asl     a
	rol     tmp1
	sta     ptr1
	iny
	lda     (sp),y
	clc
	adc     ptr1
	ldx     tmp1
	bcc     L000D
	inx
L000D:	sta     ptr1
	txa
	clc
	adc     #>(_levelThreeCollision)
	sta     ptr1+1
	ldy     #<(_levelThreeCollision)
	jmp     L001A
;
; return levelFourCollision[y * 32 + x];
;
L0018:	lda     (sp),y
	jsr     shlax4
	stx     tmp1
	asl     a
	rol     tmp1
	sta     ptr1
	iny
	lda     (sp),y
	clc
	adc     ptr1
	ldx     tmp1
	bcc     L000E
	inx
L000E:	sta     ptr1
	txa
	clc
	adc     #>(_levelFourCollision)
	sta     ptr1+1
	ldy     #<(_levelFourCollision)
L001A:	ldx     #$00
	lda     (ptr1),y
;
; }
;
	jmp     incsp2

.endproc

; ---------------------------------------------------------------
; unsigned char __near__ playerWallCollision (struct spriteData *spr)
; ---------------------------------------------------------------

.segment	"CODE"

.proc	_playerWallCollision: near

.segment	"CODE"

;
; {
;
	jsr     pushax
;
; unsigned char leftTile   = spr->X >> 3; // Gets the tile left of the player.
;
	ldy     #$01
	lda     (sp),y
	sta     ptr1+1
	dey
	lda     (sp),y
	sta     ptr1
	lda     (ptr1),y
	lsr     a
	lsr     a
	lsr     a
	jsr     pusha
;
; unsigned char rightTile  = (spr->X + spr->width) >> 3; // Gets the tile to the right of the player.
;
	ldy     #$02
	lda     (sp),y
	sta     ptr1+1
	dey
	lda     (sp),y
	sta     ptr1
	dey
	lda     (ptr1),y
	sta     sreg
	ldy     #$02
	lda     (sp),y
	sta     ptr1+1
	dey
	lda     (sp),y
	sta     ptr1
	ldy     #$03
	lda     (ptr1),y
	clc
	adc     sreg
	ror     a
	lsr     a
	lsr     a
	jsr     pusha
;
; unsigned char topTile    = spr->Y >> 3; // Gets the tile above the player.
;
	ldy     #$03
	lda     (sp),y
	sta     ptr1+1
	dey
	lda     (sp),y
	sta     ptr1
	dey
	lda     (ptr1),y
	lsr     a
	lsr     a
	lsr     a
	jsr     pusha
;
; unsigned char bottomTile = (spr->Y + spr->height) >> 3; // Gets the tile below the player.
;
	ldy     #$04
	lda     (sp),y
	sta     ptr1+1
	dey
	lda     (sp),y
	sta     ptr1
	ldy     #$01
	lda     (ptr1),y
	sta     sreg
	ldy     #$04
	lda     (sp),y
	sta     ptr1+1
	dey
	lda     (sp),y
	sta     ptr1
	dey
	lda     (ptr1),y
	clc
	adc     sreg
	ror     a
	lsr     a
	lsr     a
	jsr     pusha
;
; if(getCollisionValue(leftTile, topTile) == 1 || getCollisionValue(leftTile, topTile) == 2 || getCollisionValue(leftTile, topTile) == 3)
;
	ldy     #$03
	lda     (sp),y
	jsr     pusha
	ldy     #$02
	lda     (sp),y
	jsr     _getCollisionValue
	cmp     #$01
	jeq     L000C
	ldy     #$03
	lda     (sp),y
	jsr     pusha
	ldy     #$02
	lda     (sp),y
	jsr     _getCollisionValue
	cmp     #$02
	jeq     L000C
	ldy     #$03
	lda     (sp),y
	jsr     pusha
	ldy     #$02
	lda     (sp),y
	jsr     _getCollisionValue
	cmp     #$03
;
; return 1;
;
	jeq     L000C
;
; if(getCollisionValue(rightTile, topTile) == 1 || getCollisionValue(rightTile, topTile) == 2 || getCollisionValue(rightTile, topTile) == 3)
;
	ldy     #$02
	lda     (sp),y
	jsr     pusha
	ldy     #$02
	lda     (sp),y
	jsr     _getCollisionValue
	cmp     #$01
	jeq     L000C
	ldy     #$02
	lda     (sp),y
	jsr     pusha
	ldy     #$02
	lda     (sp),y
	jsr     _getCollisionValue
	cmp     #$02
	jeq     L000C
	ldy     #$02
	lda     (sp),y
	jsr     pusha
	ldy     #$02
	lda     (sp),y
	jsr     _getCollisionValue
	cmp     #$03
;
; return 1;
;
	beq     L000C
;
; if(getCollisionValue(leftTile, bottomTile) == 1 || getCollisionValue(leftTile, bottomTile) == 2 || getCollisionValue(leftTile, bottomTile) == 3)
;
	ldy     #$03
	lda     (sp),y
	jsr     pusha
	ldy     #$01
	lda     (sp),y
	jsr     _getCollisionValue
	cmp     #$01
	beq     L000C
	ldy     #$03
	lda     (sp),y
	jsr     pusha
	ldy     #$01
	lda     (sp),y
	jsr     _getCollisionValue
	cmp     #$02
	beq     L000C
	ldy     #$03
	lda     (sp),y
	jsr     pusha
	ldy     #$01
	lda     (sp),y
	jsr     _getCollisionValue
	cmp     #$03
;
; return 1;
;
	beq     L000C
;
; if(getCollisionValue(rightTile, bottomTile) == 1 || getCollisionValue(rightTile, bottomTile) == 2 || getCollisionValue(rightTile, bottomTile) == 3)
;
	ldy     #$02
	lda     (sp),y
	jsr     pusha
	ldy     #$01
	lda     (sp),y
	jsr     _getCollisionValue
	cmp     #$01
	beq     L000C
	ldy     #$02
	lda     (sp),y
	jsr     pusha
	ldy     #$01
	lda     (sp),y
	jsr     _getCollisionValue
	cmp     #$02
	beq     L000C
	ldy     #$02
	lda     (sp),y
	jsr     pusha
	ldy     #$01
	lda     (sp),y
	jsr     _getCollisionValue
	cmp     #$03
	beq     L000C
	ldx     #$00
	txa
	jmp     incsp6
;
; return 1;
;
L000C:	ldx     #$00
	lda     #$01
;
; }
;
	jmp     incsp6

.endproc

; ---------------------------------------------------------------
; void __near__ spawnOrangeBullet (void)
; ---------------------------------------------------------------

.segment	"CODE"

.proc	_spawnOrangeBullet: near

.segment	"CODE"

;
; orangeBulletSpriteData.X = playerSpriteData.X; // Sets the orange bullet X data to the player's X data.
;
	lda     _playerSpriteData
	sta     _orangeBulletSpriteData
;
; orangeBulletSpriteData.Y = playerSpriteData.Y; // Sets the orange bullet Y data to the player's Y data.
;
	lda     _playerSpriteData+1
	sta     _orangeBulletSpriteData+1
;
; orangeBulletActive = 1; // Sets that the orange bullet is now active.
;
	lda     #$01
	sta     _orangeBulletActive
;
; orangeBulletDirectionX = aimDirectionX; // Sets the orange bullets X direction to the X direction the player was aiming.
;
	lda     _aimDirectionX
	sta     _orangeBulletDirectionX
;
; orangeBulletDirectionY = aimDirectionY; // Sets the orange bullets Y direction to the Y direction the player was aiming.
;
	lda     _aimDirectionY
	sta     _orangeBulletDirectionY
;
; if(orangeBulletDirectionX == 0 && orangeBulletDirectionY == 0) // If the player didn't touch the DPAD to provide any aiming.
;
	lda     _orangeBulletDirectionX
	bne     L0006
	lda     _orangeBulletDirectionY
	beq     L0008
L0006:	rts
;
; orangeBulletDirectionY = -1; // Default to aiming up.
;
L0008:	lda     #$FF
	sta     _orangeBulletDirectionY
;
; }
;
	rts

.endproc

; ---------------------------------------------------------------
; void __near__ spawnBlueBullet (void)
; ---------------------------------------------------------------

.segment	"CODE"

.proc	_spawnBlueBullet: near

.segment	"CODE"

;
; blueBulletSpriteData.X = playerSpriteData.X; // Sets the blue bullet X data to the player's X data.
;
	lda     _playerSpriteData
	sta     _blueBulletSpriteData
;
; blueBulletSpriteData.Y = playerSpriteData.Y; // Sets the blue bullet Y data to the player's Y data.
;
	lda     _playerSpriteData+1
	sta     _blueBulletSpriteData+1
;
; blueBulletActive = 1; // Sets that the blue bullet is now active.
;
	lda     #$01
	sta     _blueBulletActive
;
; blueBulletDirectionX = aimDirectionX; // Sets the blue bullets X direction to the X direction the player was aiming.
;
	lda     _aimDirectionX
	sta     _blueBulletDirectionX
;
; blueBulletDirectionY = aimDirectionY; // Sets the blue bullets Y direction to the Y direction the player was aiming.
;
	lda     _aimDirectionY
	sta     _blueBulletDirectionY
;
; if(blueBulletDirectionX == 0 && blueBulletDirectionY == 0)  // If the player didn't touch the DPAD to provide any aiming.
;
	lda     _blueBulletDirectionX
	bne     L0006
	lda     _blueBulletDirectionY
	beq     L0008
L0006:	rts
;
; blueBulletDirectionY = -1; // Default to aiming up.
;
L0008:	lda     #$FF
	sta     _blueBulletDirectionY
;
; }
;
	rts

.endproc

; ---------------------------------------------------------------
; void __near__ updateBullet (void)
; ---------------------------------------------------------------

.segment	"CODE"

.proc	_updateBullet: near

.segment	"CODE"

;
; if(orangeBulletActive) // If the orange bullet is active.
;
	jsr     decsp5
	lda     _orangeBulletActive
	jeq     L001D
;
; orangeBulletSpriteData.X += orangeBulletDirectionX; // Moves the orange bullet in the X direction that the player was aiming when it was shot.
;
	lda     _orangeBulletDirectionX
	clc
	adc     _orangeBulletSpriteData
	sta     _orangeBulletSpriteData
;
; orangeBulletSpriteData.Y += orangeBulletDirectionY; // Moves the orange bullet in the Y direction that the player was aiming when it was shot.
;
	lda     _orangeBulletDirectionY
	clc
	adc     _orangeBulletSpriteData+1
	sta     _orangeBulletSpriteData+1
;
; tileX = (orangeBulletSpriteData.X + 4) >> 3; // Sets the X tile value to the tile the bullet collided with.
;
	ldx     #$00
	lda     _orangeBulletSpriteData
	clc
	adc     #$04
	bcc     L0005
	inx
L0005:	jsr     asrax3
	ldy     #$04
	sta     (sp),y
;
; tileY = (orangeBulletSpriteData.Y + 4) >> 3; // Sets the Y tile value to the tile the bullet collided with.
;
	ldx     #$00
	lda     _orangeBulletSpriteData+1
	clc
	adc     #$04
	bcc     L0006
	inx
L0006:	jsr     asrax3
	dey
	sta     (sp),y
;
; collision = getCollisionValue(tileX, tileY); // Gets the collision value for that tile, from the collision map.
;
	iny
	lda     (sp),y
	jsr     pusha
	ldy     #$04
	lda     (sp),y
	jsr     _getCollisionValue
	ldy     #$02
	sta     (sp),y
;
; if(collision == 2) // If the tile has a collision value of 2, meaning it can hold a portal.
;
	cmp     #$02
	jne     L0050
;
; if(orangeBulletDirectionX > 0) // If the orange bullet was shot to the right.
;
	lda     _orangeBulletDirectionX
	sec
	sbc     #$01
	bvs     L000A
	eor     #$80
L000A:	bpl     L0048
;
; orangePortalOrientation = 1; // Set the portal orientaion to right, so the player gets spit out to the left
;
	lda     #$01
;
; else if(orangeBulletDirectionX < 0) // If the orange bullet was shot to the left.  
;
	jmp     L003E
L0048:	lda     _orangeBulletDirectionX
	asl     a
	bcc     L0049
;
; orangePortalOrientation = 3; // Set the portal orientaion to left, so the player gets spit out to the right.
;
	lda     #$03
;
; else if(orangeBulletDirectionY > 0) // If the orange bullet was shot down.
;
	jmp     L003E
L0049:	lda     _orangeBulletDirectionY
	sec
	sbc     #$01
	bvs     L0011
	eor     #$80
L0011:	asl     a
	lda     #$00
	bcc     L003E
;
; orangePortalOrientation = 2; // Set the portal orientaion to down, so the player gets spit out up.
;
	tya
;
; orangePortalOrientation = 0; // Set the portal orientaion to up, so the player gets spit out down.
;
L003E:	sta     _orangePortalOrientation
;
; if (bluePortalActive) // If the blue portal is active.
;
	lda     _bluePortalActive
	beq     L004D
;
; otherPortalTileX = bluePortalSpriteData.X >> 3; // Get the X tile that the blue portal is located on.
;
	lda     _bluePortalSpriteData
	lsr     a
	lsr     a
	lsr     a
	dey
	sta     (sp),y
;
; otherPortalTileY = bluePortalSpriteData.Y >> 3; // Get the Y tile that the blue portal is location on.
;
	lda     _bluePortalSpriteData+1
	lsr     a
	lsr     a
	lsr     a
	dey
	sta     (sp),y
;
; if (otherPortalTileX == tileX && otherPortalTileY == tileY) // Check if the orange portal is trying to be placed at the same location as the blue portal.
;
	iny
	lda     (sp),y
	ldy     #$04
	cmp     (sp),y
	bne     L004D
	ldy     #$00
	lda     (sp),y
	ldy     #$03
	cmp     (sp),y
	bne     L004D
;
; orangeBulletActive = 0; // Disable the orange bullet if true.
;
	lda     #$00
	sta     _orangeBulletActive
;
; return;
;
	jmp     incsp5
;
; if(orangePortalOrientation == 1) // If the portal was shot to the right.
;
L004D:	lda     _orangePortalOrientation
	cmp     #$01
	bne     L004E
;
; orangePortalSpriteData.X = (tileX << 3) + (8 - PORTAL_WIDTH); // Shift the portal to the left, so it's not stuck fully in the wall and can be entered.
;
	ldy     #$04
	ldx     #$00
	lda     (sp),y
	jsr     aslax3
	clc
	adc     #$F8
	sta     _orangePortalSpriteData
	txa
	adc     #$FF
;
; else if(orangePortalOrientation == 2) // If the portal was shot down.
;
	jmp     L006C
L004E:	lda     _orangePortalOrientation
	cmp     #$02
	bne     L001A
;
; orangePortalSpriteData.X = tileX << 3; // Shift the portal up.
;
	ldy     #$04
	lda     (sp),y
	asl     a
	asl     a
	asl     a
	sta     _orangePortalSpriteData
;
; orangePortalSpriteData.Y = (tileY << 3) + (8 - PORTAL_HEIGHT);
;
	dey
	ldx     #$00
	lda     (sp),y
	jsr     aslax3
	clc
	adc     #$F8
	pha
	txa
	adc     #$FF
	pla
;
; else // If the portal was shot left or up, just place the portal normally.
;
	jmp     L003F
;
; orangePortalSpriteData.X = tileX << 3;
;
L001A:	ldy     #$04
	lda     (sp),y
	asl     a
	asl     a
	asl     a
	sta     _orangePortalSpriteData
;
; orangePortalSpriteData.Y = tileY << 3;
;
L006C:	dey
	lda     (sp),y
	asl     a
	asl     a
	asl     a
L003F:	sta     _orangePortalSpriteData+1
;
; orangePortalActive = 1; // Set the orange portal as active.
;
	lda     #$01
	sta     _orangePortalActive
;
; else if(collision == 1 || collision == 4)// If the bullet hits a normal wall, or the bullet touches an emancipation grid.
;
	jmp     L0053
L0050:	lda     (sp),y
	cmp     #$01
	beq     L0053
	cmp     #$04
	bne     L001D
;
; orangeBulletActive = 0; // Set the orange bullet as not active, so it stops getting drawn.
;
L0053:	lda     #$00
	sta     _orangeBulletActive
;
; if(blueBulletActive) // If the blue bullet is active.
;
L001D:	lda     _blueBulletActive
	jeq     L003B
;
; blueBulletSpriteData.X += blueBulletDirectionX; // Move the bullet in the X direction the player was aiming when it was shot.
;
	lda     _blueBulletDirectionX
	clc
	adc     _blueBulletSpriteData
	sta     _blueBulletSpriteData
;
; blueBulletSpriteData.Y += blueBulletDirectionY; // Move the bullet in the Y direction the player was aiming when it was shot.
;
	lda     _blueBulletDirectionY
	clc
	adc     _blueBulletSpriteData+1
	sta     _blueBulletSpriteData+1
;
; tileX = (blueBulletSpriteData.X + 4) >> 3; // Sets the X tile value to the tile the bullet collided with.
;
	ldx     #$00
	lda     _blueBulletSpriteData
	clc
	adc     #$04
	bcc     L0023
	inx
L0023:	jsr     asrax3
	ldy     #$04
	sta     (sp),y
;
; tileY = (blueBulletSpriteData.Y + 4) >> 3; // Sets the Y tile value to the tile the bullet collided with.
;
	ldx     #$00
	lda     _blueBulletSpriteData+1
	clc
	adc     #$04
	bcc     L0024
	inx
L0024:	jsr     asrax3
	dey
	sta     (sp),y
;
; collision = getCollisionValue(tileX, tileY); // Sets the collision value to the value of the tile in the collision map.
;
	iny
	lda     (sp),y
	jsr     pusha
	ldy     #$04
	lda     (sp),y
	jsr     _getCollisionValue
	ldy     #$02
	sta     (sp),y
;
; if(collision == 2) // If the tile has a collision of 2, meaning it can hold a portal.
;
	cmp     #$02
	jne     L0060
;
; if (blueBulletDirectionX > 0) // If the bullet was shot to the right.
;
	lda     _blueBulletDirectionX
	sec
	sbc     #$01
	bvs     L0028
	eor     #$80
L0028:	bpl     L0058
;
; bluePortalOrientation = 1; // Set the portal orientation to the right, so the player gets spit out to the left.
;
	lda     #$01
;
; else if (blueBulletDirectionX < 0) // If the bullet was shot to the left.
;
	jmp     L0041
L0058:	lda     _blueBulletDirectionX
	asl     a
	bcc     L0059
;
; bluePortalOrientation = 3; // Set the portal orientation to the left, so the player gets spit out to the right.
;
	lda     #$03
;
; else if (blueBulletDirectionY > 0) // If the bullet was shot down.
;
	jmp     L0041
L0059:	lda     _blueBulletDirectionY
	sec
	sbc     #$01
	bvs     L002F
	eor     #$80
L002F:	asl     a
	lda     #$00
	bcc     L0041
;
; bluePortalOrientation = 2; // Set the portal orientation to down, so the player gets spit out up.
;
	tya
;
; bluePortalOrientation = 0; // Set the portal orientation to up, so the player gets spit out down.
;
L0041:	sta     _bluePortalOrientation
;
; if (orangePortalActive) // If the orange portal is active.
;
	lda     _orangePortalActive
	beq     L005D
;
; otherPortalTileX = orangePortalSpriteData.X >> 3; // Get the X tile that the orange portal is located at.
;
	lda     _orangePortalSpriteData
	lsr     a
	lsr     a
	lsr     a
	dey
	sta     (sp),y
;
; otherPortalTileY = orangePortalSpriteData.Y >> 3; // Get the Y tile that the orange portal is located at.
;
	lda     _orangePortalSpriteData+1
	lsr     a
	lsr     a
	lsr     a
	dey
	sta     (sp),y
;
; if (otherPortalTileX == tileX && otherPortalTileY == tileY) // Check if the blue portal is trying to be placed at the same location of the orange portal.
;
	iny
	lda     (sp),y
	ldy     #$04
	cmp     (sp),y
	bne     L005D
	ldy     #$00
	lda     (sp),y
	ldy     #$03
	cmp     (sp),y
	beq     L0063
;
; if (bluePortalOrientation == 1) // If the portal was shot to the right.
;
L005D:	lda     _bluePortalOrientation
	cmp     #$01
	bne     L005E
;
; bluePortalSpriteData.X = (tileX << 3) + (8 - PORTAL_WIDTH); // Shift the portal to the left, so it's not stuck fully in the wall and can be entered.
;
	ldy     #$04
	ldx     #$00
	lda     (sp),y
	jsr     aslax3
	clc
	adc     #$F8
	sta     _bluePortalSpriteData
	txa
	adc     #$FF
;
; else if (bluePortalOrientation == 2) // If the portal was shot down.
;
	jmp     L006D
L005E:	lda     _bluePortalOrientation
	cmp     #$02
	bne     L0038
;
; bluePortalSpriteData.X = tileX << 3; // Shift the portal up.
;
	ldy     #$04
	lda     (sp),y
	asl     a
	asl     a
	asl     a
	sta     _bluePortalSpriteData
;
; bluePortalSpriteData.Y = (tileY << 3) + (8 - PORTAL_HEIGHT);
;
	dey
	ldx     #$00
	lda     (sp),y
	jsr     aslax3
	clc
	adc     #$F8
	pha
	txa
	adc     #$FF
	pla
;
; else // If the portal was shot left or up, just place the portal normally.
;
	jmp     L0043
;
; bluePortalSpriteData.X = tileX << 3;
;
L0038:	ldy     #$04
	lda     (sp),y
	asl     a
	asl     a
	asl     a
	sta     _bluePortalSpriteData
;
; bluePortalSpriteData.Y = tileY << 3;
;
L006D:	dey
	lda     (sp),y
	asl     a
	asl     a
	asl     a
L0043:	sta     _bluePortalSpriteData+1
;
; bluePortalActive = 1; // Set the blue portal to active.
;
	lda     #$01
	sta     _bluePortalActive
;
; else if (collision == 1 || collision == 4) // If the bullet hits a wall that can't hold a portal or touches an emancipation grid.
;
	jmp     L0063
L0060:	lda     (sp),y
	cmp     #$01
	beq     L0063
	cmp     #$04
	bne     L003B
;
; blueBulletActive = 0;// Set the blue bullet to not active so it can be shot again.
;
L0063:	lda     #$00
	sta     _blueBulletActive
;
; }
;
L003B:	jmp     incsp5

.endproc

; ---------------------------------------------------------------
; void __near__ drawBullet (void)
; ---------------------------------------------------------------

.segment	"CODE"

.proc	_drawBullet: near

.segment	"CODE"

;
; if (orangeBulletActive) // If the bullet active is orange.
;
	lda     _orangeBulletActive
	beq     L0002
;
; oam_meta_spr(orangeBulletSpriteData.X, orangeBulletSpriteData.Y, orangeBulletSprite); // Draw the orange sprite.
;
	jsr     decsp2
	lda     _orangeBulletSpriteData
	ldy     #$01
	sta     (sp),y
	lda     _orangeBulletSpriteData+1
	dey
	sta     (sp),y
	lda     #<(_orangeBulletSprite)
	ldx     #>(_orangeBulletSprite)
	jsr     _oam_meta_spr
;
; if (blueBulletActive) // If the bullet active is blue.
;
L0002:	lda     _blueBulletActive
	beq     L0003
;
; oam_meta_spr(blueBulletSpriteData.X, blueBulletSpriteData.Y, blueBulletSprite); // Draw the blue sprite.
;
	jsr     decsp2
	lda     _blueBulletSpriteData
	ldy     #$01
	sta     (sp),y
	lda     _blueBulletSpriteData+1
	dey
	sta     (sp),y
	lda     #<(_blueBulletSprite)
	ldx     #>(_blueBulletSprite)
	jmp     _oam_meta_spr
;
; }
;
L0003:	rts

.endproc

; ---------------------------------------------------------------
; unsigned char __near__ onGround (void)
; ---------------------------------------------------------------

.segment	"CODE"

.proc	_onGround: near

.segment	"CODE"

;
; unsigned char footY     = (playerSpriteData.Y + playerSpriteData.height + 1) >> 3; // Gets the tile directly below the sprite.
;
	ldx     #$00
	lda     _playerSpriteData+1
	clc
	adc     _playerSpriteData+2
	bcc     L0008
	inx
	clc
L0008:	adc     #$01
	bcc     L0002
	inx
L0002:	jsr     asrax3
	jsr     pusha
;
; unsigned char footXLeft = playerSpriteData.X >> 3; // Gets the tile that the "left foot", AKA, the left half of the sprite is touching.
;
	lda     _playerSpriteData
	lsr     a
	lsr     a
	lsr     a
	jsr     pusha
;
; unsigned char footXRight= (playerSpriteData.X + playerSpriteData.width) >> 3; // Gets the tile that the "right foot", AKA the left half of the player sprite is touching.
;
	ldx     #$00
	lda     _playerSpriteData
	clc
	adc     _playerSpriteData+3
	bcc     L0007
	inx
L0007:	jsr     asrax3
	jsr     pusha
;
; if(wallDetection(footXLeft, footY) || wallDetection(footXRight, footY)) // If either "foot" is touching a wall tile, or there's a wall tile directly below the player.
;
	ldy     #$01
	lda     (sp),y
	jsr     pusha
	ldy     #$03
	lda     (sp),y
	jsr     _wallDetection
	tax
	bne     L0004
	lda     (sp,x)
	jsr     pusha
	ldy     #$03
	lda     (sp),y
	jsr     _wallDetection
	tax
	beq     L0001
;
; return 1; // Return a 1, to show that they're on the floor.
;
L0004:	ldx     #$00
	lda     #$01
;
; }
;
L0001:	jmp     incsp3

.endproc

; ---------------------------------------------------------------
; void __near__ applyGravity (void)
; ---------------------------------------------------------------

.segment	"CODE"

.proc	_applyGravity: near

.segment	"CODE"

;
; if(!onGround()) // If the player is not on the ground
;
	jsr     _onGround
	tax
	bne     L0002
;
; playerVelocity += GRAVITY; // Add the gravity value to the player velocity.
;
	inc     _playerVelocity
;
; if (playerVelocity > MAX_FALL_SPEED) // If the player has more velocity than the max fall speed.
;
	lda     _playerVelocity
	sec
	sbc     #$05
	bvs     L0006
	eor     #$80
L0006:	bpl     L0010
;
; playerVelocity = MAX_FALL_SPEED; // Set the velocity to the max fall speed.
;
	lda     #$04
;
; else  // If the player is on the floor.
;
	jmp     L000E
;
; if (playerVelocity > 0) // Check if the player has an remaining velocity, 
;
L0002:	lda     _playerVelocity
	sec
	sbc     #$01
	bvs     L000A
	eor     #$80
L000A:	bpl     L0010
;
; playerVelocity = 0; // Set the velocity to 0.
;
	lda     #$00
L000E:	sta     _playerVelocity
;
; if(playerVelocity != 0) // If the player has velocity, and is falling. 
;
L0010:	lda     _playerVelocity
	beq     L0013
;
; playerSpriteData.Y += playerVelocity; // Move the player down.
;
	clc
	adc     _playerSpriteData+1
	sta     _playerSpriteData+1
;
; playerVelocity = 0; 
;
	lda     #$00
L0013:	sta     _playerVelocity
;
; }
;
	rts

.endproc

; ---------------------------------------------------------------
; const unsigned char *__near__ getPlayerSprite (void)
; ---------------------------------------------------------------

.segment	"CODE"

.proc	_getPlayerSprite: near

.segment	"CODE"

;
; if(mode == 0) // If the player is in move mode.
;
	lda     _mode
	bne     L0034
;
; return playerSprite; // Return the default player sprite.
;
	lda     #<(_playerSprite)
	ldx     #>(_playerSprite)
	rts
;
; if(aimDirectionX == 0 && aimDirectionY == -1) 
;
L0034:	lda     _aimDirectionX
	bne     L0035
	lda     _aimDirectionY
	cmp     #$FF
	jeq     L002D
;
; if(aimDirectionX == 0 && aimDirectionY == 1) 
;
L0035:	lda     _aimDirectionX
	bne     L0036
	lda     _aimDirectionY
	cmp     #$01
	bne     L0036
;
; return playerShootDownSprite;
;
	lda     #<(_playerShootDownSprite)
	ldx     #>(_playerShootDownSprite)
	rts
;
; if(aimDirectionX == -1 && aimDirectionY == 0) 
;
L0036:	lda     _aimDirectionX
	cmp     #$FF
	bne     L0037
	lda     _aimDirectionY
	bne     L0037
;
; return playerShootLeftSprite;
;
	lda     #<(_playerShootLeftSprite)
	ldx     #>(_playerShootLeftSprite)
	rts
;
; if(aimDirectionX == 1 && aimDirectionY == 0) 
;
L0037:	lda     _aimDirectionX
	cmp     #$01
	bne     L0038
	lda     _aimDirectionY
	bne     L0038
;
; return playerShootRightSprite;
;
	lda     #<(_playerShootRightSprite)
	ldx     #>(_playerShootRightSprite)
	rts
;
; if(aimDirectionX == -1 && aimDirectionY == -1) 
;
L0038:	lda     _aimDirectionX
	cmp     #$FF
	bne     L0039
	lda     _aimDirectionY
	cmp     #$FF
	bne     L0039
;
; return playerShootTopLeftSprite;
;
	lda     #<(_playerShootTopLeftSprite)
	ldx     #>(_playerShootTopLeftSprite)
	rts
;
; if(aimDirectionX == 1 && aimDirectionY == -1) 
;
L0039:	lda     _aimDirectionX
	cmp     #$01
	bne     L003A
	lda     _aimDirectionY
	cmp     #$FF
	bne     L003A
;
; return playerShootTopRightSprite;
;
	lda     #<(_playerShootTopRightSprite)
	ldx     #>(_playerShootTopRightSprite)
	rts
;
; if(aimDirectionX == -1 && aimDirectionY == 1) 
;
L003A:	lda     _aimDirectionX
	cmp     #$FF
	bne     L003B
	lda     _aimDirectionY
	cmp     #$01
	bne     L003B
;
; return playerShootBottomLeftSprite;
;
	lda     #<(_playerShootBottomLeftSprite)
	ldx     #>(_playerShootBottomLeftSprite)
	rts
;
; if(aimDirectionX == 1 && aimDirectionY == 1) 
;
L003B:	lda     _aimDirectionX
	cmp     #$01
	bne     L002D
	lda     _aimDirectionY
	cmp     #$01
	bne     L002D
;
; return playerShootBottomRightSprite;
;
	lda     #<(_playerShootBottomRightSprite)
	ldx     #>(_playerShootBottomRightSprite)
	rts
;
; return playerShootUpSprite; // Return the aiming up sprite, if no directions have pressed.
;
L002D:	lda     #<(_playerShootUpSprite)
	ldx     #>(_playerShootUpSprite)
;
; }
;
	rts

.endproc

; ---------------------------------------------------------------
; void __near__ drawSprite (void)
; ---------------------------------------------------------------

.segment	"CODE"

.proc	_drawSprite: near

.segment	"CODE"

;
; const unsigned char* currentSprite = getPlayerSprite(); // Holds the current player sprite. 
;
	jsr     _getPlayerSprite
	jsr     pushax
;
; oam_meta_spr(playerSpriteData.X, playerSpriteData.Y, currentSprite); // Draw the current sprite at the player's X and Y data.
;
	jsr     decsp2
	lda     _playerSpriteData
	ldy     #$01
	sta     (sp),y
	lda     _playerSpriteData+1
	dey
	sta     (sp),y
	ldy     #$03
	lda     (sp),y
	tax
	dey
	lda     (sp),y
	jsr     _oam_meta_spr
;
; }
;
	jmp     incsp2

.endproc

; ---------------------------------------------------------------
; void __near__ loadLevel (unsigned char lvl)
; ---------------------------------------------------------------

.segment	"CODE"

.proc	_loadLevel: near

.segment	"CODE"

;
; {
;
	jsr     pusha
;
; ppu_off(); // Turn the screen off.
;
	jsr     _ppu_off
;
; pal_bg(levelPaletteBackground); // Sets the Background Palette.
;
	lda     #<(_levelPaletteBackground)
	ldx     #>(_levelPaletteBackground)
	jsr     _pal_bg
;
; switch(lvl) // Switch on the current level.
;
	ldy     #$00
	lda     (sp),y
;
; }
;
	beq     L0004
	cmp     #$01
	beq     L0005
	cmp     #$02
	beq     L0006
	cmp     #$03
	beq     L0007
	jmp     L0009
;
; vram_adr(NAMETABLE_A); // Set the VRAM address to the start of NameTableA.
;
L0004:	ldx     #$20
	jsr     _vram_adr
;
; vram_write(levelOneData, 1024); // Fill NameTableA with all 1024 bytes from the levelThreeData array, which includes the attribute table.
;
	lda     #<(_levelOneData)
	ldx     #>(_levelOneData)
;
; break;
;
	jmp     L0014
;
; vram_adr(NAMETABLE_A); // Set the VRAM address to the start of NameTableA.
;
L0005:	ldx     #$20
	tya
	jsr     _vram_adr
;
; vram_write(levelTwoData, 1024); // Fill NameTableA with all 1024 bytes from the levelThreeData array, which includes the attribute table.
;
	lda     #<(_levelTwoData)
	ldx     #>(_levelTwoData)
;
; break;
;
	jmp     L0014
;
; vram_adr(NAMETABLE_A); // Set the VRAM address to the start of NameTableA.
;
L0006:	ldx     #$20
	tya
	jsr     _vram_adr
;
; vram_write(levelThreeData, 1024); // Fill NameTableA with all 1024 bytes from the levelThreeData array, which includes the attribute table.
;
	lda     #<(_levelThreeData)
	ldx     #>(_levelThreeData)
	jsr     pushax
	ldx     #$04
	lda     #$00
	jsr     _vram_write
;
; playerSpriteData.X = 136; // Sets the player location to the starting location for level 1.
;
	lda     #$88
;
; break;
;
	jmp     L000F
;
; vram_adr(NAMETABLE_A); // Set the VRAM address to the start of NameTableA.
;
L0007:	ldx     #$20
	tya
	jsr     _vram_adr
;
; vram_write(levelFourData, 1024); // Fill NameTableA with all 1024 bytes from the levelThreeData array, which includes the attribute table.
;
	lda     #<(_levelFourData)
	ldx     #>(_levelFourData)
L0014:	jsr     pushax
	ldx     #$04
	lda     #$00
	jsr     _vram_write
;
; playerSpriteData.X = 16; // Sets the player location to the starting location for level 1.
;
	lda     #$10
L000F:	sta     _playerSpriteData
;
; playerSpriteData.Y = 216; // Sets the player location to the starting location for level 1.
;
	lda     #$D8
	sta     _playerSpriteData+1
;
; doorSpriteData.X = 200;
;
	lda     #$C8
	sta     _doorSpriteData
;
; doorSpriteData.Y = 216;
;
	lda     #$D8
	sta     _doorSpriteData+1
;
; bluePortalActive   = 0; // Reset the blue portal active.
;
L0009:	lda     #$00
	sta     _bluePortalActive
;
; orangePortalActive = 0; // Reset the orange portal active.
;
	sta     _orangePortalActive
;
; blueBulletActive   = 0; // Reset the blue bullet being active.
;
	sta     _blueBulletActive
;
; orangeBulletActive = 0; // Reset the orange bullet being active.
;
	sta     _orangeBulletActive
;
; lastPortalUsed     = 0; // Reset the last portal used.
;
	sta     _lastPortalUsed
;
; ppu_on_all(); // Turn the screen back on.
;
	jsr     _ppu_on_all
;
; }
;
	jmp     incsp1

.endproc

; ---------------------------------------------------------------
; void __near__ drawMainMenu (void)
; ---------------------------------------------------------------

.segment	"CODE"

.proc	_drawMainMenu: near

.segment	"CODE"

;
; ppu_off(); // Turns the screen off.
;
	jsr     _ppu_off
;
; vram_adr(NAMETABLE_A); // Set the VRAM address to the start of NameTableA.
;
	ldx     #$20
	lda     #$00
	jsr     _vram_adr
;
; vram_write(menu, 1024); // Fill NameTableA with all 1024 bytes from the menu array, which includes the attribute table.
;
	lda     #<(_menu)
	ldx     #>(_menu)
	jsr     pushax
	ldx     #$04
	lda     #$00
	jsr     _vram_write
;
; ppu_on_all(); // Turns the screen on.
;
	jmp     _ppu_on_all

.endproc

; ---------------------------------------------------------------
; void __near__ animatePressStartText (void)
; ---------------------------------------------------------------

.segment	"CODE"

.proc	_animatePressStartText: near

.segment	"CODE"

;
; flashTimer++; // Increments the flash timer.
;
	inc     M0001
;
; if(flashTimer >= 30) // If the flash timer has gone for 30 frames.
;
	lda     M0001
	cmp     #$1E
	bcc     L0002
;
; flashTimer = 0; // Reset the flash timer.
;
	lda     #$00
	sta     M0001
;
; ppu_off(); // Turn the screen off.
;
	jsr     _ppu_off
;
; vram_adr(NAMETABLE_A + (17 * 32) + 10); // Sets the VRAM address to the start of NametableA, and then moves to the location of the 17th row and 10th col to the exact location the PRESS START! tiles are.
;
	ldx     #$22
	lda     #$2A
	jsr     _vram_adr
;
; if(showPressStartText) // If the text is visible.
;
	lda     M0002
	beq     L0003
;
; vram_write(blankTiles, 12); // Change the text tiles to blank tiles.
;
	lda     #<(_blankTiles)
	ldx     #>(_blankTiles)
	jsr     pushax
	ldx     #$00
	lda     #$0C
	jsr     _vram_write
;
; showPressStartText = 0; // Set that the text is not visible anymore.
;
	lda     #$00
;
; else 
;
	jmp     L0005
;
; vram_write(pressStartTiles, 12); // Change the blank tiles to the text tiles.
;
L0003:	lda     #<(_pressStartTiles)
	ldx     #>(_pressStartTiles)
	jsr     pushax
	ldx     #$00
	lda     #$0C
	jsr     _vram_write
;
; showPressStartText = 1; // Set that the text is now visible.
;
	lda     #$01
L0005:	sta     M0002
;
; ppu_on_all(); // Turn the screen on.
;
	jmp     _ppu_on_all
;
; }
;
L0002:	rts

.segment	"DATA"

M0001:
	.byte	$00
M0002:
	.byte	$01

.endproc

; ---------------------------------------------------------------
; void __near__ drawOrangePortalSprite (void)
; ---------------------------------------------------------------

.segment	"CODE"

.proc	_drawOrangePortalSprite: near

.segment	"CODE"

;
; if(orangePortalActive)
;
	lda     _orangePortalActive
	beq     L0002
;
; oam_meta_spr(orangePortalSpriteData.X, orangePortalSpriteData.Y, orangePortal);
;
	jsr     decsp2
	lda     _orangePortalSpriteData
	ldy     #$01
	sta     (sp),y
	lda     _orangePortalSpriteData+1
	dey
	sta     (sp),y
	lda     #<(_orangePortal)
	ldx     #>(_orangePortal)
	jmp     _oam_meta_spr
;
; }
;
L0002:	rts

.endproc

; ---------------------------------------------------------------
; void __near__ drawBluePortalSprite (void)
; ---------------------------------------------------------------

.segment	"CODE"

.proc	_drawBluePortalSprite: near

.segment	"CODE"

;
; if(bluePortalActive)
;
	lda     _bluePortalActive
	beq     L0002
;
; oam_meta_spr(bluePortalSpriteData.X, bluePortalSpriteData.Y, bluePortal);
;
	jsr     decsp2
	lda     _bluePortalSpriteData
	ldy     #$01
	sta     (sp),y
	lda     _bluePortalSpriteData+1
	dey
	sta     (sp),y
	lda     #<(_bluePortal)
	ldx     #>(_bluePortal)
	jmp     _oam_meta_spr
;
; }
;
L0002:	rts

.endproc

; ---------------------------------------------------------------
; unsigned char __near__ getCollisionValue (unsigned char x, unsigned char y)
; ---------------------------------------------------------------

.segment	"CODE"

.proc	_getCollisionValue: near

.segment	"CODE"

;
; {
;
	jsr     pusha
;
; if(x >= 32 || y >= 30) // If the tile is out of bounds.
;
	ldy     #$01
	lda     (sp),y
	cmp     #$20
	bcs     L0010
	dey
	lda     (sp),y
	cmp     #$1E
	bcs     L0010
	ldx     #$00
	jmp     L0011
;
; return 1; // Return a 1 to say it's a wall.
;
L0010:	ldx     #$00
	lda     #$01
	jmp     incsp2
;
; switch(currentLevel) // Changes based on the current level.
;
L0011:	lda     _currentLevel
;
; }
;
	beq     L0013
	cmp     #$01
	beq     L0015
	cmp     #$02
	beq     L0017
	cmp     #$03
	beq     L0019
	jmp     incsp2
;
; return levelOneCollision[y * 32 + x];
;
L0013:	lda     (sp),y
	jsr     shlax4
	stx     tmp1
	asl     a
	rol     tmp1
	sta     ptr1
	iny
	lda     (sp),y
	clc
	adc     ptr1
	ldx     tmp1
	bcc     L000B
	inx
L000B:	sta     ptr1
	txa
	clc
	adc     #>(_levelOneCollision)
	sta     ptr1+1
	ldy     #<(_levelOneCollision)
	jmp     L001A
;
; return levelTwoCollision[y * 32 + x];
;
L0015:	lda     (sp),y
	jsr     shlax4
	stx     tmp1
	asl     a
	rol     tmp1
	sta     ptr1
	iny
	lda     (sp),y
	clc
	adc     ptr1
	ldx     tmp1
	bcc     L000C
	inx
L000C:	sta     ptr1
	txa
	clc
	adc     #>(_levelTwoCollision)
	sta     ptr1+1
	ldy     #<(_levelTwoCollision)
	jmp     L001A
;
; return levelThreeCollision[y * 32 + x]; // Returns the collision value for the tile at X and Y of the collision table for the level.
;
L0017:	lda     (sp),y
	jsr     shlax4
	stx     tmp1
	asl     a
	rol     tmp1
	sta     ptr1
	iny
	lda     (sp),y
	clc
	adc     ptr1
	ldx     tmp1
	bcc     L000D
	inx
L000D:	sta     ptr1
	txa
	clc
	adc     #>(_levelThreeCollision)
	sta     ptr1+1
	ldy     #<(_levelThreeCollision)
	jmp     L001A
;
; return levelFourCollision[y * 32 + x];
;
L0019:	lda     (sp),y
	jsr     shlax4
	stx     tmp1
	asl     a
	rol     tmp1
	sta     ptr1
	iny
	lda     (sp),y
	clc
	adc     ptr1
	ldx     tmp1
	bcc     L000E
	inx
L000E:	sta     ptr1
	txa
	clc
	adc     #>(_levelFourCollision)
	sta     ptr1+1
	ldy     #<(_levelFourCollision)
L001A:	ldx     #$00
	lda     (ptr1),y
;
; }
;
	jmp     incsp2

.endproc

; ---------------------------------------------------------------
; void __near__ drawDoorSprite (void)
; ---------------------------------------------------------------

.segment	"CODE"

.proc	_drawDoorSprite: near

.segment	"CODE"

;
; oam_meta_spr(doorSpriteData.X, doorSpriteData.Y, doorSprite);
;
	jsr     decsp2
	lda     _doorSpriteData
	ldy     #$01
	sta     (sp),y
	lda     _doorSpriteData+1
	dey
	sta     (sp),y
	lda     #<(_doorSprite)
	ldx     #>(_doorSprite)
	jmp     _oam_meta_spr

.endproc

; ---------------------------------------------------------------
; void __near__ doorPlayerCollision (void)
; ---------------------------------------------------------------

.segment	"CODE"

.proc	_doorPlayerCollision: near

.segment	"CODE"

;
; doorCollision = check_collision(&playerSpriteData, &doorSpriteData);
;
	lda     #<(_playerSpriteData)
	ldx     #>(_playerSpriteData)
	jsr     pushax
	lda     #<(_doorSpriteData)
	ldx     #>(_doorSpriteData)
	jsr     _check_collision
	sta     _doorCollision
;
; if (doorCollision)
;
	lda     _doorCollision
	beq     L0002
;
; currentLevel++;
;
	inc     _currentLevel
;
; loadLevel(currentLevel);
;
	lda     _currentLevel
	jmp     _loadLevel
;
; }
;
L0002:	rts

.endproc

; ---------------------------------------------------------------
; unsigned char __near__ disablePortals (struct spriteData *spr)
; ---------------------------------------------------------------

.segment	"CODE"

.proc	_disablePortals: near

.segment	"CODE"

;
; {
;
	jsr     pushax
;
; unsigned char leftTile   = spr->X >> 3;
;
	ldy     #$01
	lda     (sp),y
	sta     ptr1+1
	dey
	lda     (sp),y
	sta     ptr1
	lda     (ptr1),y
	lsr     a
	lsr     a
	lsr     a
	jsr     pusha
;
; unsigned char rightTile  = (spr->X + spr->width) >> 3;
;
	ldy     #$02
	lda     (sp),y
	sta     ptr1+1
	dey
	lda     (sp),y
	sta     ptr1
	dey
	lda     (ptr1),y
	sta     sreg
	ldy     #$02
	lda     (sp),y
	sta     ptr1+1
	dey
	lda     (sp),y
	sta     ptr1
	ldy     #$03
	lda     (ptr1),y
	clc
	adc     sreg
	ror     a
	lsr     a
	lsr     a
	jsr     pusha
;
; unsigned char topTile    = spr->Y >> 3;
;
	ldy     #$03
	lda     (sp),y
	sta     ptr1+1
	dey
	lda     (sp),y
	sta     ptr1
	dey
	lda     (ptr1),y
	lsr     a
	lsr     a
	lsr     a
	jsr     pusha
;
; unsigned char bottomTile = (spr->Y + spr->height) >> 3;
;
	ldy     #$04
	lda     (sp),y
	sta     ptr1+1
	dey
	lda     (sp),y
	sta     ptr1
	ldy     #$01
	lda     (ptr1),y
	sta     sreg
	ldy     #$04
	lda     (sp),y
	sta     ptr1+1
	dey
	lda     (sp),y
	sta     ptr1
	dey
	lda     (ptr1),y
	clc
	adc     sreg
	ror     a
	lsr     a
	lsr     a
	jsr     pusha
;
; if(getCollisionValue(leftTile, topTile) == 4 || getCollisionValue(rightTile, topTile) == 4 || getCollisionValue(leftTile, bottomTile) == 4 || getCollisionValue(rightTile, bottomTile) == 4)
;
	ldy     #$03
	lda     (sp),y
	jsr     pusha
	ldy     #$02
	lda     (sp),y
	jsr     _getCollisionValue
	cmp     #$04
	beq     L0003
	ldy     #$02
	lda     (sp),y
	jsr     pusha
	ldy     #$02
	lda     (sp),y
	jsr     _getCollisionValue
	cmp     #$04
	beq     L0003
	ldy     #$03
	lda     (sp),y
	jsr     pusha
	ldy     #$01
	lda     (sp),y
	jsr     _getCollisionValue
	cmp     #$04
	beq     L0003
	ldy     #$02
	lda     (sp),y
	jsr     pusha
	ldy     #$01
	lda     (sp),y
	jsr     _getCollisionValue
	cmp     #$04
	beq     L0003
	ldx     #$00
	txa
	jmp     incsp6
;
; return 1;
;
L0003:	ldx     #$00
	lda     #$01
;
; }
;
	jmp     incsp6

.endproc

; ---------------------------------------------------------------
; void __near__ main (void)
; ---------------------------------------------------------------

.segment	"CODE"

.proc	_main: near

.segment	"CODE"

;
; ppu_off(); // Turns the screen off.
;
	jsr     _ppu_off
;
; pal_bg(paletteBackground); // Sets the Background Palette.
;
	lda     #<(_paletteBackground)
	ldx     #>(_paletteBackground)
	jsr     _pal_bg
;
; pal_spr(paletteSprite); // Sets the Sprite Palette.
;
	lda     #<(_paletteSprite)
	ldx     #>(_paletteSprite)
	jsr     _pal_spr
;
; set_scroll_y(0xff); // Moves the background down by 1 pixel.
;
	ldx     #$00
	lda     #$FF
	jsr     _set_scroll_y
;
; gameState = 0; // 0 means main menu.
;
	lda     #$00
	sta     _gameState
;
; drawMainMenu(); // Displays the main menu.
;
	jsr     _drawMainMenu
;
; bank_spr(1); // Tells the program that the sprites are located on the 2nd side of the chr file.
;
	lda     #$01
	jsr     _bank_spr
;
; ppu_on_all(); // Turns on the Screen.
;
	jsr     _ppu_on_all
;
; ppu_wait_nmi();
;
L0002:	jsr     _ppu_wait_nmi
;
; pad1 = pad_poll(0); // read the first controller
;
	lda     #$00
	jsr     _pad_poll
	sta     _pad1
;
; if(gameState == 0) // If the game is at the main menu.
;
	lda     _gameState
	bne     L000D
;
; if(pad1 & PAD_START) // Check if the player has pressed start.
;
	lda     _pad1
	and     #$10
	beq     L0006
;
; currentLevel = 0; // Set current level to 0, meaning the first level.
;
	lda     #$00
	sta     _currentLevel
;
; loadLevel(currentLevel); // Loads the current level.
;
	jsr     _loadLevel
;
; gameState = 1; // Sets the game state to 1, meaning in game.
;
	lda     #$01
	sta     _gameState
;
; animatePressStartText(); // Animates the PRESS START! text if start isn't pressed.
;
L0006:	jsr     _animatePressStartText
;
; else if(gameState == 1) // If the game has started and is not on the menu.
;
	jmp     L0002
L000D:	lda     _gameState
	cmp     #$01
	bne     L0002
;
; modeToggle(); // Call the mode toggle function to check what mode the player is in.
;
	jsr     _modeToggle
;
; if(mode == 0) // If the user is in walk mode.
;
	lda     _mode
	bne     L000E
;
; walkMode(); // Call the walk mode function.
;
	jsr     _walkMode
;
; else if(mode == 1) // If the user is in shoot mode.
;
	jmp     L000B
L000E:	lda     _mode
	cmp     #$01
	bne     L000B
;
; shootMode(); // Call the shoot mode function.
;
	jsr     _shootMode
;
; applyGravity(); // Applies gravity to the player.
;
L000B:	jsr     _applyGravity
;
; updateBullet(); // Updates bullet location and logic, if any are on the screen.
;
	jsr     _updateBullet
;
; portalPlayerCollision(); // Check if the player is colliding with any portals.
;
	jsr     _portalPlayerCollision
;
; doorPlayerCollision();
;
	jsr     _doorPlayerCollision
;
; if (disablePortals(&playerSpriteData))
;
	lda     #<(_playerSpriteData)
	ldx     #>(_playerSpriteData)
	jsr     _disablePortals
	tax
	beq     L000C
;
; orangePortalActive = 0;
;
	lda     #$00
	sta     _orangePortalActive
;
; bluePortalActive = 0;
;
	sta     _bluePortalActive
;
; oam_clear(); // Clear the OAM buffer/
;
L000C:	jsr     _oam_clear
;
; drawSprite(); // Draws the player sprite.
;
	jsr     _drawSprite
;
; drawBullet(); // Draws the bullet sprites.
;
	jsr     _drawBullet
;
; drawBluePortalSprite(); // Draws the blue portal sprite.
;
	jsr     _drawBluePortalSprite
;
; drawOrangePortalSprite(); // Draws the orange portal sprite.
;
	jsr     _drawOrangePortalSprite
;
; drawDoorSprite();
;
	jsr     _drawDoorSprite
;
; while(1) {
;
	jmp     L0002

.endproc

